---
triple:          'arm64-apple-darwin'
binary-path:     '/Users/guy/Library/Developer/Xcode/DerivedData/kamioza-ajezxfpcnhwkbwceincfxlntpyli/Build/Products/Release/kamioza'
relocations:
  - { offsetInCU: 0x26, offset: 0x26, size: 0x8, addend: 0x0, symName: __Z14DumpNavigationv, symObjAddr: 0x0, symBinAddr: 0x100001000, symSize: 0x28 }
  - { offsetInCU: 0x3F, offset: 0x3F, size: 0x8, addend: 0x0, symName: _tbl_triggers, symObjAddr: 0x6E320, symBinAddr: 0x1003221B0, symSize: 0x0 }
  - { offsetInCU: 0xC6C9, offset: 0xC6C9, size: 0x8, addend: 0x0, symName: __ZNSt3__120__throw_length_errorB8ue170006EPKc, symObjAddr: 0xB60, symBinAddr: 0x100001B38, symSize: 0x50 }
  - { offsetInCU: 0xD5CC, offset: 0xD5CC, size: 0x8, addend: 0x0, symName: _tbl_panel_nav, symObjAddr: 0x6E338, symBinAddr: 0x1003221C8, symSize: 0x0 }
  - { offsetInCU: 0x13225, offset: 0x13225, size: 0x8, addend: 0x0, symName: __Z14DumpNavigationv, symObjAddr: 0x0, symBinAddr: 0x100001000, symSize: 0x28 }
  - { offsetInCU: 0x1325C, offset: 0x1325C, size: 0x8, addend: 0x0, symName: __ZN13TBL_PANEL_NAV4DumpEv, symObjAddr: 0x28, symBinAddr: 0x100001028, symSize: 0x18C }
  - { offsetInCU: 0x13646, offset: 0x13646, size: 0x8, addend: 0x0, symName: __ZN12TBL_TRIGGERS4DumpEv, symObjAddr: 0x1B4, symBinAddr: 0x1000011B4, symSize: 0x16C }
  - { offsetInCU: 0x13B70, offset: 0x13B70, size: 0x8, addend: 0x0, symName: __ZNSt3__112basic_stringIcNS_11char_traitsIcEENS_9allocatorIcEEEC2B8ue170006ILi0EEEPKc, symObjAddr: 0xBD4, symBinAddr: 0x100001BAC, symSize: 0xA0 }
  - { offsetInCU: 0x13F0F, offset: 0x13F0F, size: 0x8, addend: 0x0, symName: __ZNSt3__112basic_stringIcNS_11char_traitsIcEENS_9allocatorIcEEE25__init_copy_ctor_externalEPKcm, symObjAddr: 0xC74, symBinAddr: 0x100001C4C, symSize: 0x7C }
  - { offsetInCU: 0x14170, offset: 0x14170, size: 0x8, addend: 0x0, symName: __ZN12TBL_TRIGGERS4LoadEv, symObjAddr: 0x320, symBinAddr: 0x100001320, symSize: 0x22C }
  - { offsetInCU: 0x147DA, offset: 0x147DA, size: 0x8, addend: 0x0, symName: __ZNSt3__112basic_stringIcNS_11char_traitsIcEENS_9allocatorIcEEE17__assign_externalEPKcm, symObjAddr: 0xA90, symBinAddr: 0x100001A68, symSize: 0xBC }
  - { offsetInCU: 0x14AAC, offset: 0x14AAC, size: 0x8, addend: 0x0, symName: __ZN7B_TABLEI7TRIGGERiiiE8ValidateEv, symObjAddr: 0x960, symBinAddr: 0x100001938, symSize: 0x98 }
  - { offsetInCU: 0x14B67, offset: 0x14B67, size: 0x8, addend: 0x0, symName: __ZN7B_TABLEI9PANEL_NAViiiE8ValidateEv, symObjAddr: 0x9F8, symBinAddr: 0x1000019D0, symSize: 0x98 }
  - { offsetInCU: 0x15493, offset: 0x15493, size: 0x8, addend: 0x0, symName: __ZN12TBL_TRIGGERS4FireEi5POINT, symObjAddr: 0x54C, symBinAddr: 0x10000154C, symSize: 0x118 }
  - { offsetInCU: 0x15B7A, offset: 0x15B7A, size: 0x8, addend: 0x0, symName: __ZN7B_TABLEI7TRIGGERiiiE3HitEi5POINT, symObjAddr: 0x664, symBinAddr: 0x100001664, symSize: 0xD0 }
  - { offsetInCU: 0x15C92, offset: 0x15C92, size: 0x8, addend: 0x0, symName: __ZNSt3__112basic_stringIcNS_11char_traitsIcEENS_9allocatorIcEEE25__init_copy_ctor_externalEPKcm, symObjAddr: 0xC74, symBinAddr: 0x100001C4C, symSize: 0x7C }
  - { offsetInCU: 0x1600B, offset: 0x1600B, size: 0x8, addend: 0x0, symName: __ZN7B_TABLEI7TRIGGERiiiE8GetFirstEiPi, symObjAddr: 0xCF0, symBinAddr: 0x100001CC8, symSize: 0x70 }
  - { offsetInCU: 0x160A1, offset: 0x160A1, size: 0x8, addend: 0x0, symName: __ZN7B_TABLEI7TRIGGERiiiE8GetFirstEiPi, symObjAddr: 0xCF0, symBinAddr: 0x100001CC8, symSize: 0x70 }
  - { offsetInCU: 0x1618C, offset: 0x1618C, size: 0x8, addend: 0x0, symName: __Z14trgQueryCursori5POINT, symObjAddr: 0x75C, symBinAddr: 0x100001734, symSize: 0x38 }
  - { offsetInCU: 0x1621E, offset: 0x1621E, size: 0x8, addend: 0x0, symName: __Z7trgFirei5POINT, symObjAddr: 0x794, symBinAddr: 0x10000176C, symSize: 0x18 }
  - { offsetInCU: 0x162AA, offset: 0x162AA, size: 0x8, addend: 0x0, symName: __ZN13TBL_PANEL_NAV4LoadEv, symObjAddr: 0x7AC, symBinAddr: 0x100001784, symSize: 0x13C }
  - { offsetInCU: 0x16459, offset: 0x16459, size: 0x8, addend: 0x0, symName: __ZN7B_TABLEI9PANEL_NAViiiE8ValidateEv, symObjAddr: 0x9F8, symBinAddr: 0x1000019D0, symSize: 0x98 }
  - { offsetInCU: 0x16513, offset: 0x16513, size: 0x8, addend: 0x0, symName: __ZNSt3__112basic_stringIcNS_11char_traitsIcEENS_9allocatorIcEEE17__assign_externalEPKcm, symObjAddr: 0xA90, symBinAddr: 0x100001A68, symSize: 0xBC }
  - { offsetInCU: 0x1654B, offset: 0x1654B, size: 0x8, addend: 0x0, symName: __ZN13TBL_PANEL_NAV4FireEiib, symObjAddr: 0x8E8, symBinAddr: 0x1000018C0, symSize: 0x74 }
  - { offsetInCU: 0x165F3, offset: 0x165F3, size: 0x8, addend: 0x0, symName: __ZN7B_TABLEI9PANEL_NAViiiE4PGetEiPi, symObjAddr: 0xD60, symBinAddr: 0x100001D38, symSize: 0x64 }
  - { offsetInCU: 0x1669A, offset: 0x1669A, size: 0x8, addend: 0x0, symName: __Z8PanelNavibb, symObjAddr: 0x95C, symBinAddr: 0x100001934, symSize: 0x4 }
  - { offsetInCU: 0x166F4, offset: 0x166F4, size: 0x8, addend: 0x0, symName: __Z8PanelNavibb, symObjAddr: 0x95C, symBinAddr: 0x100001934, symSize: 0x4 }
  - { offsetInCU: 0x16727, offset: 0x16727, size: 0x8, addend: 0x0, symName: __ZN7B_TABLEI7TRIGGERiiiE8ValidateEv.cold.1, symObjAddr: 0xDC4, symBinAddr: 0x10024E67C, symSize: 0x28 }
  - { offsetInCU: 0x16755, offset: 0x16755, size: 0x8, addend: 0x0, symName: __ZN7B_TABLEI9PANEL_NAViiiE8ValidateEv.cold.1, symObjAddr: 0xDEC, symBinAddr: 0x10024E6A4, symSize: 0x28 }
  - { offsetInCU: 0x16854, offset: 0x16854, size: 0x8, addend: 0x0, symName: __ZNKSt3__112basic_stringIcNS_11char_traitsIcEENS_9allocatorIcEEE20__throw_length_errorB8ue170006Ev, symObjAddr: 0xB4C, symBinAddr: 0x100001B24, symSize: 0x14 }
  - { offsetInCU: 0x1687E, offset: 0x1687E, size: 0x8, addend: 0x0, symName: __ZNSt3__120__throw_length_errorB8ue170006EPKc, symObjAddr: 0xB60, symBinAddr: 0x100001B38, symSize: 0x50 }
  - { offsetInCU: 0x16889, offset: 0x16889, size: 0x8, addend: 0x0, symName: __ZNSt12length_errorC1B8ue170006EPKc, symObjAddr: 0xBB0, symBinAddr: 0x100001B88, symSize: 0x24 }
  - { offsetInCU: 0x3A, offset: 0x16B25, size: 0x8, addend: 0x0, symName: __ZN6SPIRIT9c_monitorE, symObjAddr: 0x8E188, symBinAddr: 0x1003221E0, symSize: 0x0 }
  - { offsetInCU: 0x115DD, offset: 0x280C8, size: 0x8, addend: 0x0, symName: __ZN6SPIRIT12c_bDeanimateE, symObjAddr: 0x8E370, symBinAddr: 0x1003223C8, symSize: 0x0 }
  - { offsetInCU: 0x115F1, offset: 0x280DC, size: 0x8, addend: 0x0, symName: __ZN6SPIRIT6c_poolE, symObjAddr: 0x8E190, symBinAddr: 0x1003221E8, symSize: 0x0 }
  - { offsetInCU: 0x11605, offset: 0x280F0, size: 0x8, addend: 0x0, symName: __ZN6SPIRIT6c_viewE, symObjAddr: 0x8E2D0, symBinAddr: 0x100322328, symSize: 0x0 }
  - { offsetInCU: 0x11619, offset: 0x28104, size: 0x8, addend: 0x0, symName: __ZN6SPIRIT7c_countE, symObjAddr: 0x8E18C, symBinAddr: 0x1003221E4, symSize: 0x0 }
  - { offsetInCU: 0x15920, offset: 0x2C40B, size: 0x8, addend: 0x0, symName: __ZN6SPIRITC2EP3ONENSt3__112basic_stringIcNS2_11char_traitsIcEENS2_9allocatorIcEEEE, symObjAddr: 0x0, symBinAddr: 0x100001D9C, symSize: 0x1DC }
  - { offsetInCU: 0x15F8B, offset: 0x2CA76, size: 0x8, addend: 0x0, symName: __ZN6SPIRITC1EP3ONENSt3__112basic_stringIcNS2_11char_traitsIcEENS2_9allocatorIcEEEE, symObjAddr: 0x1DC, symBinAddr: 0x100001F78, symSize: 0x4 }
  - { offsetInCU: 0x15FC0, offset: 0x2CAAB, size: 0x8, addend: 0x0, symName: __ZN6SPIRITC1EP3ONENSt3__112basic_stringIcNS2_11char_traitsIcEENS2_9allocatorIcEEEE, symObjAddr: 0x1DC, symBinAddr: 0x100001F78, symSize: 0x4 }
  - { offsetInCU: 0x15FE1, offset: 0x2CACC, size: 0x8, addend: 0x0, symName: __ZN6SPIRITD2Ev, symObjAddr: 0x1E0, symBinAddr: 0x100001F7C, symSize: 0x48 }
  - { offsetInCU: 0x16031, offset: 0x2CB1C, size: 0x8, addend: 0x0, symName: __ZN6SPIRIT9DeAnimateEv, symObjAddr: 0x228, symBinAddr: 0x100001FC4, symSize: 0x58 }
  - { offsetInCU: 0x1606D, offset: 0x2CB58, size: 0x8, addend: 0x0, symName: __ZN6SPIRITD1Ev, symObjAddr: 0x28C, symBinAddr: 0x100002028, symSize: 0x4 }
  - { offsetInCU: 0x16091, offset: 0x2CB7C, size: 0x8, addend: 0x0, symName: __ZN6SPIRITD1Ev, symObjAddr: 0x28C, symBinAddr: 0x100002028, symSize: 0x4 }
  - { offsetInCU: 0x160A4, offset: 0x2CB8F, size: 0x8, addend: 0x0, symName: __ZN6SPIRIT8SetFrameEi, symObjAddr: 0x290, symBinAddr: 0x10000202C, symSize: 0x8 }
  - { offsetInCU: 0x160D9, offset: 0x2CBC4, size: 0x8, addend: 0x0, symName: __ZN6SPIRIT2ONEv, symObjAddr: 0x298, symBinAddr: 0x100002034, symSize: 0x7C }
  - { offsetInCU: 0x16105, offset: 0x2CBF0, size: 0x8, addend: 0x0, symName: __ZN6SPIRIT3OFFEv, symObjAddr: 0x314, symBinAddr: 0x1000020B0, symSize: 0x58 }
  - { offsetInCU: 0x16110, offset: 0x2CBFB, size: 0x8, addend: 0x0, symName: __ZN6SPIRIT2ONEv.cold.1, symObjAddr: 0xBA4, symBinAddr: 0x10024E6CC, symSize: 0x28 }
  - { offsetInCU: 0x16128, offset: 0x2CC13, size: 0x8, addend: 0x0, symName: __ZN6SPIRIT3OFFEv, symObjAddr: 0x314, symBinAddr: 0x1000020B0, symSize: 0x58 }
  - { offsetInCU: 0x16154, offset: 0x2CC3F, size: 0x8, addend: 0x0, symName: __ZN6SPIRIT7GetRectEP4RECT, symObjAddr: 0x36C, symBinAddr: 0x100002108, symSize: 0x20 }
  - { offsetInCU: 0x1615F, offset: 0x2CC4A, size: 0x8, addend: 0x0, symName: __ZN6SPIRIT3OFFEv.cold.1, symObjAddr: 0xBCC, symBinAddr: 0x10024E6F4, symSize: 0x28 }
  - { offsetInCU: 0x16177, offset: 0x2CC62, size: 0x8, addend: 0x0, symName: __ZN6SPIRIT7GetRectEP4RECT, symObjAddr: 0x36C, symBinAddr: 0x100002108, symSize: 0x20 }
  - { offsetInCU: 0x16218, offset: 0x2CD03, size: 0x8, addend: 0x0, symName: __ZN6SPIRIT7AnimateEibbbb, symObjAddr: 0x408, symBinAddr: 0x100002128, symSize: 0x188 }
  - { offsetInCU: 0x16371, offset: 0x2CE5C, size: 0x8, addend: 0x0, symName: __ZN6SPIRIT5VideoEP4VIEWttNSt3__112basic_stringIcNS2_11char_traitsIcEENS2_9allocatorIcEEEEbbb, symObjAddr: 0x590, symBinAddr: 0x1000022B0, symSize: 0x108 }
  - { offsetInCU: 0x167F7, offset: 0x2D2E2, size: 0x8, addend: 0x0, symName: __ZN6SPIRIT8VideoCutEi, symObjAddr: 0x698, symBinAddr: 0x1000023B8, symSize: 0x88 }
  - { offsetInCU: 0x16870, offset: 0x2D35B, size: 0x8, addend: 0x0, symName: __ZN6SPIRIT12SetNextFrameEi, symObjAddr: 0x720, symBinAddr: 0x100002440, symSize: 0x11C }
  - { offsetInCU: 0x16925, offset: 0x2D410, size: 0x8, addend: 0x0, symName: __ZN6SPIRIT4TickEi, symObjAddr: 0x83C, symBinAddr: 0x10000255C, symSize: 0xC0 }
  - { offsetInCU: 0x16980, offset: 0x2D46B, size: 0x8, addend: 0x0, symName: __ZN6SPIRIT7VideoONEi, symObjAddr: 0x990, symBinAddr: 0x10000261C, symSize: 0x94 }
  - { offsetInCU: 0x169F4, offset: 0x2D4DF, size: 0x8, addend: 0x0, symName: __ZN6SPIRIT8VideoOFFEi, symObjAddr: 0xA24, symBinAddr: 0x1000026B0, symSize: 0x7C }
  - { offsetInCU: 0x9634, offset: 0x36D18, size: 0x8, addend: 0x0, symName: __ZNSt3__112construct_atB8ue170006I11ipCandidateJRKS1_EPS1_EEPT_S6_DpOT0_, symObjAddr: 0x3750, symBinAddr: 0x100003754, symSize: 0xE4 }
  - { offsetInCU: 0x9AAD, offset: 0x37191, size: 0x8, addend: 0x0, symName: __ZNSt3__119__allocate_at_leastB8ue170006INS_9allocatorI11ipCandidateEEEENS_19__allocation_resultINS_16allocator_traitsIT_E7pointerEEERS6_m, symObjAddr: 0x38FC, symBinAddr: 0x100003900, symSize: 0x48 }
  - { offsetInCU: 0x9B56, offset: 0x3723A, size: 0x8, addend: 0x0, symName: __ZNSt3__112__destroy_atB8ue170006I11ipCandidateLi0EEEvPT_, symObjAddr: 0x3944, symBinAddr: 0x100003948, symSize: 0x54 }
  - { offsetInCU: 0xA0A6, offset: 0x3778A, size: 0x8, addend: 0x0, symName: __ZNSt3__112__destroy_atB8ue170006I11ipCandidateLi0EEEvPT_, symObjAddr: 0x3944, symBinAddr: 0x100003948, symSize: 0x54 }
  - { offsetInCU: 0xA4BE, offset: 0x37BA2, size: 0x8, addend: 0x0, symName: __ZSt28__throw_bad_array_new_lengthB8ue170006v, symObjAddr: 0x3728, symBinAddr: 0x10000372C, symSize: 0x28 }
  - { offsetInCU: 0xA8AD, offset: 0x37F91, size: 0x8, addend: 0x0, symName: __ZNSt3__16vectorI11ipCandidateNS_9allocatorIS1_EEE26__swap_out_circular_bufferERNS_14__split_bufferIS1_RS3_EE, symObjAddr: 0x3834, symBinAddr: 0x100003838, symSize: 0xB4 }
  - { offsetInCU: 0xD24E, offset: 0x3A932, size: 0x8, addend: 0x0, symName: __Z9getPortNoi, symObjAddr: 0x58, symBinAddr: 0x10000272C, symSize: 0x9C }
  - { offsetInCU: 0xD49C, offset: 0x3AB80, size: 0x8, addend: 0x0, symName: __Z19stun_candidate_listiRNSt3__16vectorI11ipCandidateNS_9allocatorIS1_EEEE, symObjAddr: 0xF4, symBinAddr: 0x1000027C8, symSize: 0x154 }
  - { offsetInCU: 0xE1B1, offset: 0x3B895, size: 0x8, addend: 0x0, symName: __Z4testv, symObjAddr: 0x248, symBinAddr: 0x10000291C, symSize: 0x198 }
  - { offsetInCU: 0xE3C8, offset: 0x3BAAC, size: 0x8, addend: 0x0, symName: __Z15fetch_stun_ip_bNSt3__112basic_stringIcNS_11char_traitsIcEENS_9allocatorIcEEEEsR11ipCandidate, symObjAddr: 0x3E0, symBinAddr: 0x100002AB4, symSize: 0x10C }
  - { offsetInCU: 0xE3D2, offset: 0x3BAB6, size: 0x8, addend: 0x0, symName: __Z15fetch_stun_ip_bNSt3__112basic_stringIcNS_11char_traitsIcEENS_9allocatorIcEEEEsR11ipCandidate, symObjAddr: 0x3E0, symBinAddr: 0x100002AB4, symSize: 0x10C }
  - { offsetInCU: 0xE93C, offset: 0x3C020, size: 0x8, addend: 0x0, symName: __Z13fetch_stun_ipiR11ipCandidate, symObjAddr: 0x4EC, symBinAddr: 0x100002BC0, symSize: 0x100 }
  - { offsetInCU: 0xEF7B, offset: 0x3C65F, size: 0x8, addend: 0x0, symName: __Z19getLocalCandidatesPRNSt3__16vectorI11ipCandidateNS_9allocatorIS1_EEEEi, symObjAddr: 0x5EC, symBinAddr: 0x100002CC0, symSize: 0x1D0 }
  - { offsetInCU: 0xF752, offset: 0x3CE36, size: 0x8, addend: 0x0, symName: __ZNSt3__16vectorI11ipCandidateNS_9allocatorIS1_EEE9push_backB8ue170006ERKS1_, symObjAddr: 0x7BC, symBinAddr: 0x100002E90, symSize: 0x130 }
  - { offsetInCU: 0xFAD8, offset: 0x3D1BC, size: 0x8, addend: 0x0, symName: __ZN11ipCandidateD1Ev, symObjAddr: 0x8EC, symBinAddr: 0x100002FC0, symSize: 0x50 }
  - { offsetInCU: 0xFF93, offset: 0x3D677, size: 0x8, addend: 0x0, symName: __Z13dump_responsePKhi, symObjAddr: 0x344C, symBinAddr: 0x100003578, symSize: 0x1B4 }
  - { offsetInCU: 0x100B2, offset: 0x3D796, size: 0x8, addend: 0x0, symName: __Z4testv.cold.1, symObjAddr: 0x3B1C, symBinAddr: 0x10024E71C, symSize: 0x18 }
  - { offsetInCU: 0x100EC, offset: 0x3D7D0, size: 0x8, addend: 0x0, symName: __Z4testv.cold.2, symObjAddr: 0x3B34, symBinAddr: 0x10024E734, symSize: 0x18 }
  - { offsetInCU: 0x10126, offset: 0x3D80A, size: 0x8, addend: 0x0, symName: __Z4testv.cold.3, symObjAddr: 0x3B4C, symBinAddr: 0x10024E74C, symSize: 0x18 }
  - { offsetInCU: 0x1050D, offset: 0x3DBF1, size: 0x8, addend: 0x0, symName: __Z4testv.cold.1, symObjAddr: 0x3B1C, symBinAddr: 0x10024E71C, symSize: 0x18 }
  - { offsetInCU: 0x1051E, offset: 0x3DC02, size: 0x8, addend: 0x0, symName: __Z12resolve_hostNSt3__112basic_stringIcNS_11char_traitsIcEENS_9allocatorIcEEEE, symObjAddr: 0x93C, symBinAddr: 0x100003010, symSize: 0xD4 }
  - { offsetInCU: 0x10654, offset: 0x3DD38, size: 0x8, addend: 0x0, symName: __Z15stun_xor_addr_bP7in_addrttR11ipCandidate, symObjAddr: 0xB50, symBinAddr: 0x100003224, symSize: 0xCC }
  - { offsetInCU: 0x10751, offset: 0x3DE35, size: 0x8, addend: 0x0, symName: __Z15stun_xor_addr_aiP7in_addrtR11ipCandidate, symObjAddr: 0xA10, symBinAddr: 0x1000030E4, symSize: 0x140 }
  - { offsetInCU: 0x10DC6, offset: 0x3E4AA, size: 0x8, addend: 0x0, symName: __ZNSt3__114__split_bufferI11ipCandidateRNS_9allocatorIS1_EEED2Ev, symObjAddr: 0x3998, symBinAddr: 0x10000399C, symSize: 0x4C }
  - { offsetInCU: 0x10F63, offset: 0x3E647, size: 0x8, addend: 0x0, symName: __ZNKSt3__16vectorI11ipCandidateNS_9allocatorIS1_EEE20__throw_length_errorB8ue170006Ev, symObjAddr: 0x38E8, symBinAddr: 0x1000038EC, symSize: 0x14 }
  - { offsetInCU: 0x10F8D, offset: 0x3E671, size: 0x8, addend: 0x0, symName: __ZNSt3__119__allocate_at_leastB8ue170006INS_9allocatorI11ipCandidateEEEENS_19__allocation_resultINS_16allocator_traitsIT_E7pointerEEERS6_m, symObjAddr: 0x38FC, symBinAddr: 0x100003900, symSize: 0x48 }
  - { offsetInCU: 0x10FCE, offset: 0x3E6B2, size: 0x8, addend: 0x0, symName: __Z19stun_parse_responsePKhiR11ipCandidate, symObjAddr: 0xE64, symBinAddr: 0x1000032F0, symSize: 0x288 }
  - { offsetInCU: 0x11B20, offset: 0x3F204, size: 0x8, addend: 0x0, symName: _OUTLINED_FUNCTION_0, symObjAddr: 0x3B64, symBinAddr: 0x1000039E8, symSize: 0x8 }
  - { offsetInCU: 0x53, offset: 0x3F2AC, size: 0x8, addend: 0x0, symName: _opcode_map, symObjAddr: 0x1B8240, symBinAddr: 0x1003223D0, symSize: 0x0 }
  - { offsetInCU: 0x503F, offset: 0x44298, size: 0x8, addend: 0x0, symName: __ZNSt3__119piecewise_constructE, symObjAddr: 0x11C7A, symBinAddr: 0x10028CA4A, symSize: 0x0 }
  - { offsetInCU: 0x143EC, offset: 0x53645, size: 0x8, addend: 0x0, symName: __ZNSt3__124__put_character_sequenceB8ue170006IcNS_11char_traitsIcEEEERNS_13basic_ostreamIT_T0_EES7_PKS4_m, symObjAddr: 0xF23C, symBinAddr: 0x100012A54, symSize: 0x164 }
  - { offsetInCU: 0x1552A, offset: 0x54783, size: 0x8, addend: 0x0, symName: __ZNSt3__1plB8ue170006IcNS_11char_traitsIcEENS_9allocatorIcEEEENS_12basic_stringIT_T0_T1_EERKS9_SB_, symObjAddr: 0x73C, symBinAddr: 0x10000412C, symSize: 0xC8 }
  - { offsetInCU: 0x15B26, offset: 0x54D7F, size: 0x8, addend: 0x0, symName: __ZNSt3__1ssB8ue170006IcNS_11char_traitsIcEENS_9allocatorIcEEEEDaRKNS_12basic_stringIT_T0_T1_EESC_, symObjAddr: 0x804, symBinAddr: 0x1000041F4, symSize: 0x38 }
  - { offsetInCU: 0x15B68, offset: 0x54DC1, size: 0x8, addend: 0x0, symName: __ZNSt3__1ssB8ue170006IcNS_11char_traitsIcEENS_9allocatorIcEEEEDaRKNS_12basic_stringIT_T0_T1_EESC_, symObjAddr: 0x804, symBinAddr: 0x1000041F4, symSize: 0x38 }
  - { offsetInCU: 0x15B88, offset: 0x54DE1, size: 0x8, addend: 0x0, symName: __ZNSt3__1ssB8ue170006IcNS_11char_traitsIcEENS_9allocatorIcEEEEDaRKNS_12basic_stringIT_T0_T1_EESC_, symObjAddr: 0x804, symBinAddr: 0x1000041F4, symSize: 0x38 }
  - { offsetInCU: 0x15BA8, offset: 0x54E01, size: 0x8, addend: 0x0, symName: __ZNSt3__1ssB8ue170006IcNS_11char_traitsIcEENS_9allocatorIcEEEEDaRKNS_12basic_stringIT_T0_T1_EESC_, symObjAddr: 0x804, symBinAddr: 0x1000041F4, symSize: 0x38 }
  - { offsetInCU: 0x15BC8, offset: 0x54E21, size: 0x8, addend: 0x0, symName: __ZNSt3__1ssB8ue170006IcNS_11char_traitsIcEENS_9allocatorIcEEEEDaRKNS_12basic_stringIT_T0_T1_EESC_, symObjAddr: 0x804, symBinAddr: 0x1000041F4, symSize: 0x38 }
  - { offsetInCU: 0x1606A, offset: 0x552C3, size: 0x8, addend: 0x0, symName: __ZNSt3__1ssB8ue170006IcNS_11char_traitsIcEEEEDaNS_17basic_string_viewIT_T0_EES7_, symObjAddr: 0x1ADC, symBinAddr: 0x1000052F4, symSize: 0x5C }
  - { offsetInCU: 0x16246, offset: 0x5549F, size: 0x8, addend: 0x0, symName: __ZNSt3__112construct_atB8ue170006I4ParmJRKS1_EPS1_EEPT_S6_DpOT0_, symObjAddr: 0x1B80, symBinAddr: 0x100005398, symSize: 0x5C }
  - { offsetInCU: 0x16365, offset: 0x555BE, size: 0x8, addend: 0x0, symName: __ZNSt3__119__allocate_at_leastB8ue170006INS_9allocatorI4ParmEEEENS_19__allocation_resultINS_16allocator_traitsIT_E7pointerEEERS6_m, symObjAddr: 0x1C64, symBinAddr: 0x10000547C, symSize: 0x44 }
  - { offsetInCU: 0x1640D, offset: 0x55666, size: 0x8, addend: 0x0, symName: __ZNSt3__142__uninitialized_allocator_move_if_noexceptB8ue170006INS_9allocatorI4ParmEENS_16reverse_iteratorIPS2_EES6_S6_EET2_RT_T0_T1_S7_, symObjAddr: 0x1CA8, symBinAddr: 0x1000054C0, symSize: 0xB8 }
  - { offsetInCU: 0x16485, offset: 0x556DE, size: 0x8, addend: 0x0, symName: __ZNSt3__14endlB8ue170006IcNS_11char_traitsIcEEEERNS_13basic_ostreamIT_T0_EES7_, symObjAddr: 0x23EC, symBinAddr: 0x100005C04, symSize: 0x90 }
  - { offsetInCU: 0x16644, offset: 0x5589D, size: 0x8, addend: 0x0, symName: __ZNSt3__142__uninitialized_allocator_move_if_noexceptB8ue170006INS_9allocatorI4ParmEENS_16reverse_iteratorIPS2_EES6_S6_EET2_RT_T0_T1_S7_, symObjAddr: 0x1CA8, symBinAddr: 0x1000054C0, symSize: 0xB8 }
  - { offsetInCU: 0x180F7, offset: 0x57350, size: 0x8, addend: 0x0, symName: __ZNSt3__119__allocate_at_leastB8ue170006INS_9allocatorImEEEENS_19__allocation_resultINS_16allocator_traitsIT_E7pointerEEERS5_m, symObjAddr: 0x5DD4, symBinAddr: 0x1000095EC, symSize: 0x34 }
  - { offsetInCU: 0x1819F, offset: 0x573F8, size: 0x8, addend: 0x0, symName: __ZNSt3__121__unwrap_and_dispatchB8ue170006INS_10__overloadINS_11__copy_loopINS_17_ClassicAlgPolicyEEENS_14__copy_trivialEEENS_14__bit_iteratorINS_6vectorIbNS_9allocatorIbEEEELb0ELm0EEESC_SC_Li0EEENS_4pairIT0_T2_EESE_T1_SF_, symObjAddr: 0x5E08, symBinAddr: 0x100009620, symSize: 0x8C }
  - { offsetInCU: 0x18345, offset: 0x5759E, size: 0x8, addend: 0x0, symName: __ZNSt3__121__unwrap_and_dispatchB8ue170006INS_10__overloadINS_11__copy_loopINS_17_ClassicAlgPolicyEEENS_14__copy_trivialEEENS_14__bit_iteratorINS_6vectorIbNS_9allocatorIbEEEELb0ELm0EEESC_SC_Li0EEENS_4pairIT0_T2_EESE_T1_SF_, symObjAddr: 0x5E08, symBinAddr: 0x100009620, symSize: 0x8C }
  - { offsetInCU: 0x18B28, offset: 0x57D81, size: 0x8, addend: 0x0, symName: __ZNSt3__119__allocate_at_leastB8ue170006INS_9allocatorIPN8nlohmann16json_abi_v3_11_210basic_jsonINS_3mapENS_6vectorENS_12basic_stringIcNS_11char_traitsIcEENS1_IcEEEEbxydS1_NS3_14adl_serializerENS6_IhNS1_IhEEEEvEEEEEENS_19__allocation_resultINS_16allocator_traitsIT_E7pointerEEERSK_m, symObjAddr: 0x7340, symBinAddr: 0x10000AB58, symSize: 0x34 }
  - { offsetInCU: 0x18BD0, offset: 0x57E29, size: 0x8, addend: 0x0, symName: __ZN8nlohmann16json_abi_v3_11_26detail6concatINSt3__112basic_stringIcNS3_11char_traitsIcEENS3_9allocatorIcEEEEJS9_S9_RKS9_EEET_DpOT0_, symObjAddr: 0x7374, symBinAddr: 0x10000AB8C, symSize: 0x100 }
  - { offsetInCU: 0x18BFA, offset: 0x57E53, size: 0x8, addend: 0x0, symName: __ZNSt3__125__throw_bad_function_callB8ue170006Ev, symObjAddr: 0x6ED0, symBinAddr: 0x10000A6E8, symSize: 0x34 }
  - { offsetInCU: 0x18CF3, offset: 0x57F4C, size: 0x8, addend: 0x0, symName: __ZNSt3__119__allocate_at_leastB8ue170006INS_9allocatorIN8nlohmann16json_abi_v3_11_210basic_jsonINS_3mapENS_6vectorENS_12basic_stringIcNS_11char_traitsIcEENS1_IcEEEEbxydS1_NS3_14adl_serializerENS6_IhNS1_IhEEEEvEEEEEENS_19__allocation_resultINS_16allocator_traitsIT_E7pointerEEERSJ_m, symObjAddr: 0x7098, symBinAddr: 0x10000A8B0, symSize: 0x34 }
  - { offsetInCU: 0x18D9B, offset: 0x57FF4, size: 0x8, addend: 0x0, symName: __ZNSt3__142__uninitialized_allocator_move_if_noexceptB8ue170006INS_9allocatorIN8nlohmann16json_abi_v3_11_210basic_jsonINS_3mapENS_6vectorENS_12basic_stringIcNS_11char_traitsIcEENS1_IcEEEEbxydS1_NS3_14adl_serializerENS6_IhNS1_IhEEEEvEEEENS_16reverse_iteratorIPSF_EESJ_SJ_EET2_RT_T0_T1_SK_, symObjAddr: 0x70CC, symBinAddr: 0x10000A8E4, symSize: 0xC4 }
  - { offsetInCU: 0x18DF4, offset: 0x5804D, size: 0x8, addend: 0x0, symName: __ZNSt3__142__uninitialized_allocator_move_if_noexceptB8ue170006INS_9allocatorIN8nlohmann16json_abi_v3_11_210basic_jsonINS_3mapENS_6vectorENS_12basic_stringIcNS_11char_traitsIcEENS1_IcEEEEbxydS1_NS3_14adl_serializerENS6_IhNS1_IhEEEEvEEEENS_16reverse_iteratorIPSF_EESJ_SJ_EET2_RT_T0_T1_SK_, symObjAddr: 0x70CC, symBinAddr: 0x10000A8E4, symSize: 0xC4 }
  - { offsetInCU: 0x19252, offset: 0x584AB, size: 0x8, addend: 0x0, symName: __ZNSt3__119__allocator_destroyB8ue170006INS_9allocatorIN8nlohmann16json_abi_v3_11_210basic_jsonINS_3mapENS_6vectorENS_12basic_stringIcNS_11char_traitsIcEENS1_IcEEEEbxydS1_NS3_14adl_serializerENS6_IhNS1_IhEEEEvEEEENS_16reverse_iteratorINSH_IPSF_EEEESK_EEvRT_T0_T1_, symObjAddr: 0x7238, symBinAddr: 0x10000AA50, symSize: 0x64 }
  - { offsetInCU: 0x199D6, offset: 0x58C2F, size: 0x8, addend: 0x0, symName: __ZNSt3__110destroy_atB8ue170006INS_4pairIKNS_12basic_stringIcNS_11char_traitsIcEENS_9allocatorIcEEEEN8nlohmann16json_abi_v3_11_210basic_jsonINS_3mapENS_6vectorES7_bxydS5_NSA_14adl_serializerENSD_IhNS5_IhEEEEvEEEELi0EEEvPT_, symObjAddr: 0x8588, symBinAddr: 0x10000BDA0, symSize: 0x4C }
  - { offsetInCU: 0x19D7A, offset: 0x58FD3, size: 0x8, addend: 0x0, symName: __ZNSt3__113__tree_removeB8ue170006IPNS_16__tree_node_baseIPvEEEEvT_S5_, symObjAddr: 0x8204, symBinAddr: 0x10000BA1C, symSize: 0x384 }
  - { offsetInCU: 0x1AB9D, offset: 0x59DF6, size: 0x8, addend: 0x0, symName: __ZNSt3__127__tree_balance_after_insertB8ue170006IPNS_16__tree_node_baseIPvEEEEvT_S5_, symObjAddr: 0x90D0, symBinAddr: 0x10000C8E8, symSize: 0x198 }
  - { offsetInCU: 0x1C2FC, offset: 0x5B555, size: 0x8, addend: 0x0, symName: __ZNSt3__135__uninitialized_allocator_copy_implB8ue170006INS_9allocatorIN8nlohmann16json_abi_v3_11_210basic_jsonINS_3mapENS_6vectorENS_12basic_stringIcNS_11char_traitsIcEENS1_IcEEEEbxydS1_NS3_14adl_serializerENS6_IhNS1_IhEEEEvEEEEPSF_SH_SH_EET2_RT_T0_T1_SI_, symObjAddr: 0xC830, symBinAddr: 0x100010048, symSize: 0xA0 }
  - { offsetInCU: 0x1C56D, offset: 0x5B7C6, size: 0x8, addend: 0x0, symName: __ZNSt3__119__allocator_destroyB8ue170006INS_9allocatorIN8nlohmann16json_abi_v3_11_210basic_jsonINS_3mapENS_6vectorENS_12basic_stringIcNS_11char_traitsIcEENS1_IcEEEEbxydS1_NS3_14adl_serializerENS6_IhNS1_IhEEEEvEEEENS_16reverse_iteratorIPSF_EESJ_EEvRT_T0_T1_, symObjAddr: 0xC918, symBinAddr: 0x100010130, symSize: 0x48 }
  - { offsetInCU: 0x1CF76, offset: 0x5C1CF, size: 0x8, addend: 0x0, symName: __ZNSt3__116__pad_and_outputB8ue170006IcNS_11char_traitsIcEEEENS_19ostreambuf_iteratorIT_T0_EES6_PKS4_S8_S8_RNS_8ios_baseES4_, symObjAddr: 0xF3A0, symBinAddr: 0x100012BB8, symSize: 0x13C }
  - { offsetInCU: 0x1F19E, offset: 0x5E3F7, size: 0x8, addend: 0x0, symName: __ZN8nlohmann16json_abi_v3_11_26detail9dtoa_impl36get_cached_power_for_binary_exponentEi, symObjAddr: 0xEB4C, symBinAddr: 0x100012364, symSize: 0xB4 }
  - { offsetInCU: 0x1F1CB, offset: 0x5E424, size: 0x8, addend: 0x0, symName: __ZZN8nlohmann16json_abi_v3_11_26detail9dtoa_impl36get_cached_power_for_binary_exponentEiE13kCachedPowers, symObjAddr: 0x121F8, symBinAddr: 0x10028CEB8, symSize: 0x0 }
  - { offsetInCU: 0x1F2C0, offset: 0x5E519, size: 0x8, addend: 0x0, symName: __ZN8nlohmann16json_abi_v3_11_26detail9dtoa_impl5diyfp3mulERKS3_S5_, symObjAddr: 0xEC00, symBinAddr: 0x100012418, symSize: 0x60 }
  - { offsetInCU: 0x1F32B, offset: 0x5E584, size: 0x8, addend: 0x0, symName: __ZN8nlohmann16json_abi_v3_11_26detail9dtoa_impl6grisu2IdEEvPcRiS5_T_, symObjAddr: 0xE5CC, symBinAddr: 0x100011DE4, symSize: 0x84 }
  - { offsetInCU: 0x1F3FC, offset: 0x5E655, size: 0x8, addend: 0x0, symName: __ZN8nlohmann16json_abi_v3_11_26detail9dtoa_impl13format_bufferEPciiii, symObjAddr: 0xE650, symBinAddr: 0x100011E68, symSize: 0x22C }
  - { offsetInCU: 0x1F40F, offset: 0x5E668, size: 0x8, addend: 0x0, symName: __ZN8nlohmann16json_abi_v3_11_26detail9dtoa_impl13format_bufferEPciiii, symObjAddr: 0xE650, symBinAddr: 0x100011E68, symSize: 0x22C }
  - { offsetInCU: 0x1F50A, offset: 0x5E763, size: 0x8, addend: 0x0, symName: __ZN8nlohmann16json_abi_v3_11_26detail9dtoa_impl18compute_boundariesIdEENS2_10boundariesET_, symObjAddr: 0xE87C, symBinAddr: 0x100012094, symSize: 0x128 }
  - { offsetInCU: 0x1F514, offset: 0x5E76D, size: 0x8, addend: 0x0, symName: __ZN8nlohmann16json_abi_v3_11_26detail9dtoa_impl18compute_boundariesIdEENS2_10boundariesET_, symObjAddr: 0xE87C, symBinAddr: 0x100012094, symSize: 0x128 }
  - { offsetInCU: 0x1F6F4, offset: 0x5E94D, size: 0x8, addend: 0x0, symName: __ZN8nlohmann16json_abi_v3_11_26detail9dtoa_impl6grisu2EPcRiS4_NS2_5diyfpES5_S5_, symObjAddr: 0xE9A4, symBinAddr: 0x1000121BC, symSize: 0xE8 }
  - { offsetInCU: 0x1F708, offset: 0x5E961, size: 0x8, addend: 0x0, symName: __ZN8nlohmann16json_abi_v3_11_26detail9dtoa_impl6grisu2EPcRiS4_NS2_5diyfpES5_S5_, symObjAddr: 0xE9A4, symBinAddr: 0x1000121BC, symSize: 0xE8 }
  - { offsetInCU: 0x1F984, offset: 0x5EBDD, size: 0x8, addend: 0x0, symName: __ZN8nlohmann16json_abi_v3_11_26detail9dtoa_impl5diyfp9normalizeES3_, symObjAddr: 0xEA8C, symBinAddr: 0x1000122A4, symSize: 0x54 }
  - { offsetInCU: 0x1FAB4, offset: 0x5ED0D, size: 0x8, addend: 0x0, symName: __ZN8nlohmann16json_abi_v3_11_26detail9dtoa_impl16grisu2_digit_genEPcRiS4_NS2_5diyfpES5_S5_, symObjAddr: 0xEC60, symBinAddr: 0x100012478, symSize: 0x298 }
  - { offsetInCU: 0x1FD10, offset: 0x5EF69, size: 0x8, addend: 0x0, symName: __ZN8nlohmann16json_abi_v3_11_26detail9dtoa_impl5diyfp3subERKS3_S5_, symObjAddr: 0xEEF8, symBinAddr: 0x100012710, symSize: 0x6C }
  - { offsetInCU: 0x1FD45, offset: 0x5EF9E, size: 0x8, addend: 0x0, symName: __ZN8nlohmann16json_abi_v3_11_26detail9dtoa_impl12grisu2_roundEPciyyyy, symObjAddr: 0xEF64, symBinAddr: 0x10001277C, symSize: 0xAC }
  - { offsetInCU: 0x1FDFC, offset: 0x5F055, size: 0x8, addend: 0x0, symName: __ZN8nlohmann16json_abi_v3_11_26detail10serializerINS0_10basic_jsonINSt3__13mapENS4_6vectorENS4_12basic_stringIcNS4_11char_traitsIcEENS4_9allocatorIcEEEEbxydSA_NS0_14adl_serializerENS6_IhNSA_IhEEEEvEEED2Ev, symObjAddr: 0xF010, symBinAddr: 0x100012828, symSize: 0x30 }
  - { offsetInCU: 0x2061F, offset: 0x5F878, size: 0x8, addend: 0x0, symName: __ZN8nlohmann16json_abi_v3_11_26detail6concatINSt3__112basic_stringIcNS3_11char_traitsIcEENS3_9allocatorIcEEEEJRA52_KcPSA_EEET_DpOT0_, symObjAddr: 0xBFCC, symBinAddr: 0x10000F7E4, symSize: 0xA0 }
  - { offsetInCU: 0x21469, offset: 0x606C2, size: 0x8, addend: 0x0, symName: __ZN8nlohmann16json_abi_v3_11_26detail6concatINSt3__112basic_stringIcNS3_11char_traitsIcEENS3_9allocatorIcEEEEJRA26_KcS9_cEEET_DpOT0_, symObjAddr: 0x68FC, symBinAddr: 0x10000A114, symSize: 0xC0 }
  - { offsetInCU: 0x2187A, offset: 0x60AD3, size: 0x8, addend: 0x0, symName: __ZN8nlohmann16json_abi_v3_11_26detail6concatINSt3__112basic_stringIcNS3_11char_traitsIcEENS3_9allocatorIcEEEEJS9_RA12_KcS9_RA3_SA_S9_RKS9_EEET_DpOT0_, symObjAddr: 0xA54C, symBinAddr: 0x10000DD64, symSize: 0x1A8 }
  - { offsetInCU: 0x223F9, offset: 0x61652, size: 0x8, addend: 0x0, symName: __ZN8nlohmann16json_abi_v3_11_26detail6concatINSt3__112basic_stringIcNS3_11char_traitsIcEENS3_9allocatorIcEEEEJPKcRA15_SA_S9_cEEET_DpOT0_, symObjAddr: 0xA8D0, symBinAddr: 0x10000E0E8, symSize: 0xFC }
  - { offsetInCU: 0x228F5, offset: 0x61B4E, size: 0x8, addend: 0x0, symName: __ZN8nlohmann16json_abi_v3_11_26detail6concatINSt3__112basic_stringIcNS3_11char_traitsIcEENS3_9allocatorIcEEEEJRA24_KcS9_EEET_DpOT0_, symObjAddr: 0x6E24, symBinAddr: 0x10000A63C, symSize: 0xAC }
  - { offsetInCU: 0x22C9B, offset: 0x61EF4, size: 0x8, addend: 0x0, symName: __ZN8nlohmann16json_abi_v3_11_26detail6concatINSt3__112basic_stringIcNS3_11char_traitsIcEENS3_9allocatorIcEEEEJRA23_KcS9_EEET_DpOT0_, symObjAddr: 0x92AC, symBinAddr: 0x10000CAC4, symSize: 0xAC }
  - { offsetInCU: 0x23041, offset: 0x6229A, size: 0x8, addend: 0x0, symName: __ZN8nlohmann16json_abi_v3_11_26detail6concatINSt3__112basic_stringIcNS3_11char_traitsIcEENS3_9allocatorIcEEEEJS9_S9_RKS9_EEET_DpOT0_, symObjAddr: 0x7374, symBinAddr: 0x10000AB8C, symSize: 0x100 }
  - { offsetInCU: 0x238FF, offset: 0x62B58, size: 0x8, addend: 0x0, symName: __ZN8nlohmann16json_abi_v3_11_26detail6concatINSt3__112basic_stringIcNS3_11char_traitsIcEENS3_9allocatorIcEEEEJRA17_KcRKS9_cS9_RA3_SA_EEET_DpOT0_, symObjAddr: 0x7500, symBinAddr: 0x10000AD18, symSize: 0x140 }
  - { offsetInCU: 0x2432C, offset: 0x63585, size: 0x8, addend: 0x0, symName: __ZN8nlohmann16json_abi_v3_11_26detail6concatINSt3__112basic_stringIcNS3_11char_traitsIcEENS3_9allocatorIcEEEEJRA25_KcPSA_EEET_DpOT0_, symObjAddr: 0x809C, symBinAddr: 0x10000B8B4, symSize: 0xA0 }
  - { offsetInCU: 0x24CDB, offset: 0x63F34, size: 0x8, addend: 0x0, symName: __ZN8nlohmann16json_abi_v3_11_26detail6concatINSt3__112basic_stringIcNS3_11char_traitsIcEENS3_9allocatorIcEEEEJRA10_KcS9_SC_S9_EEET_DpOT0_, symObjAddr: 0xA7AC, symBinAddr: 0x10000DFC4, symSize: 0x124 }
  - { offsetInCU: 0x2560E, offset: 0x64867, size: 0x8, addend: 0x0, symName: __ZN8nlohmann16json_abi_v3_11_26detail6concatINSt3__112basic_stringIcNS3_11char_traitsIcEENS3_9allocatorIcEEEEJRA29_KcS9_RA5_SA_S9_EEET_DpOT0_, symObjAddr: 0xE2B8, symBinAddr: 0x100011AD0, symSize: 0x124 }
  - { offsetInCU: 0x25BE0, offset: 0x64E39, size: 0x8, addend: 0x0, symName: __ZN8nlohmann16json_abi_v3_11_26detail6concatINSt3__112basic_stringIcNS3_11char_traitsIcEENS3_9allocatorIcEEEEJRA39_KcS9_EEET_DpOT0_, symObjAddr: 0xE44C, symBinAddr: 0x100011C64, symSize: 0xAC }
  - { offsetInCU: 0x25F86, offset: 0x651DF, size: 0x8, addend: 0x0, symName: __ZN8nlohmann16json_abi_v3_11_26detail8to_charsIdEEPcS3_PKcT_, symObjAddr: 0xE4F8, symBinAddr: 0x100011D10, symSize: 0xD4 }
  - { offsetInCU: 0x260CF, offset: 0x65328, size: 0x8, addend: 0x0, symName: __ZN8nlohmann16json_abi_v3_11_26detail9dtoa_impl6grisu2IdEEvPcRiS5_T_, symObjAddr: 0xE5CC, symBinAddr: 0x100011DE4, symSize: 0x84 }
  - { offsetInCU: 0x2885A, offset: 0x67AB3, size: 0x8, addend: 0x0, symName: __ZN8nlohmann16json_abi_v3_11_26detail10serializerINS0_10basic_jsonINSt3__13mapENS4_6vectorENS4_12basic_stringIcNS4_11char_traitsIcEENS4_9allocatorIcEEEEbxydSA_NS0_14adl_serializerENS6_IhNSA_IhEEEEvEEE6decodeERhRjh, symObjAddr: 0xE0E8, symBinAddr: 0x100011900, symSize: 0x8C }
  - { offsetInCU: 0x2887B, offset: 0x67AD4, size: 0x8, addend: 0x0, symName: __ZZN8nlohmann16json_abi_v3_11_26detail10serializerINS0_10basic_jsonINSt3__13mapENS4_6vectorENS4_12basic_stringIcNS4_11char_traitsIcEENS4_9allocatorIcEEEEbxydSA_NS0_14adl_serializerENS6_IhNSA_IhEEEEvEEE6decodeERhRjhE5utf8d, symObjAddr: 0x11E10, symBinAddr: 0x10028CAD0, symSize: 0x0 }
  - { offsetInCU: 0x28924, offset: 0x67B7D, size: 0x8, addend: 0x0, symName: __ZN8nlohmann16json_abi_v3_11_26detail10serializerINS0_10basic_jsonINSt3__13mapENS4_6vectorENS4_12basic_stringIcNS4_11char_traitsIcEENS4_9allocatorIcEEEEbxydSA_NS0_14adl_serializerENS6_IhNSA_IhEEEEvEEE12dump_integerIhLi0EEEvT_, symObjAddr: 0xDCB4, symBinAddr: 0x1000114CC, symSize: 0xAC }
  - { offsetInCU: 0x28949, offset: 0x67BA2, size: 0x8, addend: 0x0, symName: __ZZN8nlohmann16json_abi_v3_11_26detail10serializerINS0_10basic_jsonINSt3__13mapENS4_6vectorENS4_12basic_stringIcNS4_11char_traitsIcEENS4_9allocatorIcEEEEbxydSA_NS0_14adl_serializerENS6_IhNSA_IhEEEEvEEE12dump_integerIhLi0EEEvT_E12digits_to_99, symObjAddr: 0x11FA0, symBinAddr: 0x10028CC60, symSize: 0x0 }
  - { offsetInCU: 0x28B24, offset: 0x67D7D, size: 0x8, addend: 0x0, symName: __ZN8nlohmann16json_abi_v3_11_26detail10serializerINS0_10basic_jsonINSt3__13mapENS4_6vectorENS4_12basic_stringIcNS4_11char_traitsIcEENS4_9allocatorIcEEEEbxydSA_NS0_14adl_serializerENS6_IhNSA_IhEEEEvEEE12dump_integerIyLi0EEEvT_, symObjAddr: 0xDD60, symBinAddr: 0x100011578, symSize: 0x13C }
  - { offsetInCU: 0x28B49, offset: 0x67DA2, size: 0x8, addend: 0x0, symName: __ZZN8nlohmann16json_abi_v3_11_26detail10serializerINS0_10basic_jsonINSt3__13mapENS4_6vectorENS4_12basic_stringIcNS4_11char_traitsIcEENS4_9allocatorIcEEEEbxydSA_NS0_14adl_serializerENS6_IhNSA_IhEEEEvEEE12dump_integerIyLi0EEEvT_E12digits_to_99, symObjAddr: 0x12068, symBinAddr: 0x10028CD28, symSize: 0x0 }
  - { offsetInCU: 0x28C70, offset: 0x67EC9, size: 0x8, addend: 0x0, symName: __ZN8nlohmann16json_abi_v3_11_26detail10serializerINS0_10basic_jsonINSt3__13mapENS4_6vectorENS4_12basic_stringIcNS4_11char_traitsIcEENS4_9allocatorIcEEEEbxydSA_NS0_14adl_serializerENS6_IhNSA_IhEEEEvEEE12dump_integerIxLi0EEEvT_, symObjAddr: 0xDE9C, symBinAddr: 0x1000116B4, symSize: 0x1D4 }
  - { offsetInCU: 0x28C8A, offset: 0x67EE3, size: 0x8, addend: 0x0, symName: __ZN8nlohmann16json_abi_v3_11_26detail10serializerINS0_10basic_jsonINSt3__13mapENS4_6vectorENS4_12basic_stringIcNS4_11char_traitsIcEENS4_9allocatorIcEEEEbxydSA_NS0_14adl_serializerENS6_IhNSA_IhEEEEvEEE12dump_integerIxLi0EEEvT_, symObjAddr: 0xDE9C, symBinAddr: 0x1000116B4, symSize: 0x1D4 }
  - { offsetInCU: 0x28CAF, offset: 0x67F08, size: 0x8, addend: 0x0, symName: __ZZN8nlohmann16json_abi_v3_11_26detail10serializerINS0_10basic_jsonINSt3__13mapENS4_6vectorENS4_12basic_stringIcNS4_11char_traitsIcEENS4_9allocatorIcEEEEbxydSA_NS0_14adl_serializerENS6_IhNSA_IhEEEEvEEE12dump_integerIxLi0EEEvT_E12digits_to_99, symObjAddr: 0x12130, symBinAddr: 0x10028CDF0, symSize: 0x0 }
  - { offsetInCU: 0x28E2A, offset: 0x68083, size: 0x8, addend: 0x0, symName: __ZN8nlohmann16json_abi_v3_11_26detail10serializerINS0_10basic_jsonINSt3__13mapENS4_6vectorENS4_12basic_stringIcNS4_11char_traitsIcEENS4_9allocatorIcEEEEbxydSA_NS0_14adl_serializerENS6_IhNSA_IhEEEEvEEE10dump_floatEd, symObjAddr: 0xE070, symBinAddr: 0x100011888, symSize: 0x78 }
  - { offsetInCU: 0x28E44, offset: 0x6809D, size: 0x8, addend: 0x0, symName: __ZN8nlohmann16json_abi_v3_11_26detail10serializerINS0_10basic_jsonINSt3__13mapENS4_6vectorENS4_12basic_stringIcNS4_11char_traitsIcEENS4_9allocatorIcEEEEbxydSA_NS0_14adl_serializerENS6_IhNSA_IhEEEEvEEE10dump_floatEd, symObjAddr: 0xE070, symBinAddr: 0x100011888, symSize: 0x78 }
  - { offsetInCU: 0x29323, offset: 0x6857C, size: 0x8, addend: 0x0, symName: __ZNSt3__16vectorI4ParmNS_9allocatorIS1_EEE26__swap_out_circular_bufferERNS_14__split_bufferIS1_RS3_EE, symObjAddr: 0x1BDC, symBinAddr: 0x1000053F4, symSize: 0x74 }
  - { offsetInCU: 0x29A5C, offset: 0x68CB5, size: 0x8, addend: 0x0, symName: __ZNSt3__16vectorIN8nlohmann16json_abi_v3_11_210basic_jsonINS_3mapES0_NS_12basic_stringIcNS_11char_traitsIcEENS_9allocatorIcEEEEbxydS8_NS2_14adl_serializerENS0_IhNS8_IhEEEEvEENS8_ISE_EEE26__swap_out_circular_bufferERNS_14__split_bufferISE_RSF_EE, symObjAddr: 0x7010, symBinAddr: 0x10000A828, symSize: 0x74 }
  - { offsetInCU: 0x2BC58, offset: 0x6AEB1, size: 0x8, addend: 0x0, symName: __ZNSt3__13mapINS_12basic_stringIcNS_11char_traitsIcEENS_9allocatorIcEEEEiNS_4lessIS6_EENS4_INS_4pairIKS6_iEEEEED1B8ue170006Ev, symObjAddr: 0x0, symBinAddr: 0x1000039F0, symSize: 0x28 }
  - { offsetInCU: 0x2BD14, offset: 0x6AF6D, size: 0x8, addend: 0x0, symName: __ZNSt3__16__treeINS_12__value_typeINS_12basic_stringIcNS_11char_traitsIcEENS_9allocatorIcEEEEiEENS_19__map_value_compareIS7_S8_NS_4lessIS7_EELb1EEENS5_IS8_EEE7destroyEPNS_11__tree_nodeIS8_PvEE, symObjAddr: 0xF930, symBinAddr: 0x100013148, symSize: 0x50 }
  - { offsetInCU: 0x2C559, offset: 0x6B7B2, size: 0x8, addend: 0x0, symName: __ZN7Context12PopStackParmEP5Stack, symObjAddr: 0x28, symBinAddr: 0x100003A18, symSize: 0xD8 }
  - { offsetInCU: 0x2CB77, offset: 0x6BDD0, size: 0x8, addend: 0x0, symName: __ZN7Context5tointENSt3__112basic_stringIcNS0_11char_traitsIcEENS0_9allocatorIcEEEE, symObjAddr: 0x100, symBinAddr: 0x100003AF0, symSize: 0x104 }
  - { offsetInCU: 0x2D2A6, offset: 0x6C4FF, size: 0x8, addend: 0x0, symName: __ZN7Context11PopStackValEP5Stack, symObjAddr: 0x204, symBinAddr: 0x100003BF4, symSize: 0x78 }
  - { offsetInCU: 0x2D628, offset: 0x6C881, size: 0x8, addend: 0x0, symName: __ZN7Context11PopStackIntEP5Stack, symObjAddr: 0x27C, symBinAddr: 0x100003C6C, symSize: 0xAC }
  - { offsetInCU: 0x2DC82, offset: 0x6CEDB, size: 0x8, addend: 0x0, symName: __ZN7Context10GetValTypeER4Parm, symObjAddr: 0x328, symBinAddr: 0x100003D18, symSize: 0x10C }
  - { offsetInCU: 0x2E49E, offset: 0x6D6F7, size: 0x8, addend: 0x0, symName: __ZNSt3__112basic_stringIcNS_11char_traitsIcEENS_9allocatorIcEEEC2B8ue170006ENS_24__uninitialized_size_tagEmRKS4_, symObjAddr: 0x1A68, symBinAddr: 0x100005280, symSize: 0x74 }
  - { offsetInCU: 0x2E4FC, offset: 0x6D755, size: 0x8, addend: 0x0, symName: __ZN7Context9EvalStrOpEiNSt3__112basic_stringIcNS0_11char_traitsIcEENS0_9allocatorIcEEEES6_P5Stack, symObjAddr: 0x434, symBinAddr: 0x100003E24, symSize: 0x228 }
  - { offsetInCU: 0x2EB41, offset: 0x6DD9A, size: 0x8, addend: 0x0, symName: __Z11eval_returnP5Stack9PARM_TYPENSt3__112basic_stringIcNS2_11char_traitsIcEENS2_9allocatorIcEEEE, symObjAddr: 0x65C, symBinAddr: 0x10000404C, symSize: 0xE0 }
  - { offsetInCU: 0x2F279, offset: 0x6E4D2, size: 0x8, addend: 0x0, symName: __Z11eval_returnP5Stack9PARM_TYPEi, symObjAddr: 0x83C, symBinAddr: 0x10000422C, symSize: 0x80 }
  - { offsetInCU: 0x2F6CB, offset: 0x6E924, size: 0x8, addend: 0x0, symName: __ZNSt3__16vectorI4ParmNS_9allocatorIS1_EEE9push_backB8ue170006ERKS1_, symObjAddr: 0x117C, symBinAddr: 0x100004B60, symSize: 0x118 }
  - { offsetInCU: 0x2FB3C, offset: 0x6ED95, size: 0x8, addend: 0x0, symName: __ZNSt3__112basic_stringIcNS_11char_traitsIcEENS_9allocatorIcEEEC2B8ue170006ENS_24__uninitialized_size_tagEmRKS4_, symObjAddr: 0x1A68, symBinAddr: 0x100005280, symSize: 0x74 }
  - { offsetInCU: 0x2FCEA, offset: 0x6EF43, size: 0x8, addend: 0x0, symName: __ZNSt3__1ssB8ue170006IcNS_11char_traitsIcEEEEDaNS_17basic_string_viewIT_T0_EES7_, symObjAddr: 0x1ADC, symBinAddr: 0x1000052F4, symSize: 0x5C }
  - { offsetInCU: 0x2FD11, offset: 0x6EF6A, size: 0x8, addend: 0x0, symName: __ZN4Parm5valueE9PARM_TYPEi, symObjAddr: 0x1294, symBinAddr: 0x100004C78, symSize: 0x58 }
  - { offsetInCU: 0x2FF60, offset: 0x6F1B9, size: 0x8, addend: 0x0, symName: __ZN7Context6EvalOpENSt3__112basic_stringIcNS0_11char_traitsIcEENS0_9allocatorIcEEEEP5Stack, symObjAddr: 0x8BC, symBinAddr: 0x1000042AC, symSize: 0x710 }
  - { offsetInCU: 0x33089, offset: 0x722E2, size: 0x8, addend: 0x0, symName: __ZNSt3__16__treeINS_12__value_typeINS_12basic_stringIcNS_11char_traitsIcEENS_9allocatorIcEEEEiEENS_19__map_value_compareIS7_S8_NS_4lessIS7_EELb1EEENS5_IS8_EEE25__emplace_unique_key_argsIS7_JRKNS_21piecewise_construct_tENS_5tupleIJRKS7_EEENSJ_IJEEEEEENS_4pairINS_15__tree_iteratorIS8_PNS_11__tree_nodeIS8_PvEElEEbEERKT_DpOT0_, symObjAddr: 0xF980, symBinAddr: 0x100013198, symSize: 0x94 }
  - { offsetInCU: 0x33235, offset: 0x7248E, size: 0x8, addend: 0x0, symName: __ZN7Context9GetIntValER4Parm, symObjAddr: 0xFCC, symBinAddr: 0x1000049BC, symSize: 0x6C }
  - { offsetInCU: 0x33523, offset: 0x7277C, size: 0x8, addend: 0x0, symName: __ZN4Parm6StatusEv, symObjAddr: 0x1044, symBinAddr: 0x100004A28, symSize: 0x138 }
  - { offsetInCU: 0x33EB5, offset: 0x7310E, size: 0x8, addend: 0x0, symName: __ZN4Parm9type_nameE9PARM_TYPE, symObjAddr: 0x1B38, symBinAddr: 0x100005350, symSize: 0x48 }
  - { offsetInCU: 0x3423F, offset: 0x73498, size: 0x8, addend: 0x0, symName: __ZNSt3__114__split_bufferI4ParmRNS_9allocatorIS1_EEED2Ev, symObjAddr: 0x1DD8, symBinAddr: 0x1000055F0, symSize: 0x34 }
  - { offsetInCU: 0x34359, offset: 0x735B2, size: 0x8, addend: 0x0, symName: __ZNKSt3__16vectorI4ParmNS_9allocatorIS1_EEE20__throw_length_errorB8ue170006Ev, symObjAddr: 0x1C50, symBinAddr: 0x100005468, symSize: 0x14 }
  - { offsetInCU: 0x34383, offset: 0x735DC, size: 0x8, addend: 0x0, symName: __ZNSt3__119__allocate_at_leastB8ue170006INS_9allocatorI4ParmEEEENS_19__allocation_resultINS_16allocator_traitsIT_E7pointerEEERS6_m, symObjAddr: 0x1C64, symBinAddr: 0x10000547C, symSize: 0x44 }
  - { offsetInCU: 0x34410, offset: 0x73669, size: 0x8, addend: 0x0, symName: __ZN7Context6GetValER4Parm, symObjAddr: 0x12EC, symBinAddr: 0x100004CD0, symSize: 0x4C }
  - { offsetInCU: 0x34446, offset: 0x7369F, size: 0x8, addend: 0x0, symName: __ZN7Context6GetValER4Parm, symObjAddr: 0x12EC, symBinAddr: 0x100004CD0, symSize: 0x4C }
  - { offsetInCU: 0x34481, offset: 0x736DA, size: 0x8, addend: 0x0, symName: __ZN7Context6GetValER4Parm, symObjAddr: 0x12EC, symBinAddr: 0x100004CD0, symSize: 0x4C }
  - { offsetInCU: 0x3455E, offset: 0x737B7, size: 0x8, addend: 0x0, symName: __ZN7Context6SetValER4ParmNSt3__112basic_stringIcNS2_11char_traitsIcEENS2_9allocatorIcEEEE, symObjAddr: 0x1338, symBinAddr: 0x100004D1C, symSize: 0xA0 }
  - { offsetInCU: 0x34CDF, offset: 0x73F38, size: 0x8, addend: 0x0, symName: __ZN7Context8IterableENSt3__112basic_stringIcNS0_11char_traitsIcEENS0_9allocatorIcEEEEP5Stacki, symObjAddr: 0x13D8, symBinAddr: 0x100004DBC, symSize: 0x4C4 }
  - { offsetInCU: 0x36484, offset: 0x756DD, size: 0x8, addend: 0x0, symName: __ZN8nlohmann16json_abi_v3_11_210basic_jsonINSt3__13mapENS2_6vectorENS2_12basic_stringIcNS2_11char_traitsIcEENS2_9allocatorIcEEEEbxydS8_NS0_14adl_serializerENS4_IhNS8_IhEEEEvE5parseIRSA_EESE_OT_NS2_8functionIFbiNS0_6detail13parse_event_tERSE_EEEbb, symObjAddr: 0x1E60, symBinAddr: 0x100005678, symSize: 0x1BC }
  - { offsetInCU: 0x36ABD, offset: 0x75D16, size: 0x8, addend: 0x0, symName: __ZNK8nlohmann16json_abi_v3_11_210basic_jsonINSt3__13mapENS2_6vectorENS2_12basic_stringIcNS2_11char_traitsIcEENS2_9allocatorIcEEEEbxydS8_NS0_14adl_serializerENS4_IhNS8_IhEEEEvE16assert_invariantEb, symObjAddr: 0x5998, symBinAddr: 0x1000091B0, symSize: 0xB0 }
  - { offsetInCU: 0x36AF4, offset: 0x75D4D, size: 0x8, addend: 0x0, symName: __ZN8nlohmann16json_abi_v3_11_210basic_jsonINSt3__13mapENS2_6vectorENS2_12basic_stringIcNS2_11char_traitsIcEENS2_9allocatorIcEEEEbxydS8_NS0_14adl_serializerENS4_IhNS8_IhEEEEvEixEm, symObjAddr: 0x201C, symBinAddr: 0x100005834, symSize: 0x13C }
  - { offsetInCU: 0x36E8E, offset: 0x760E7, size: 0x8, addend: 0x0, symName: __ZN8nlohmann16json_abi_v3_11_210basic_jsonINSt3__13mapENS2_6vectorENS2_12basic_stringIcNS2_11char_traitsIcEENS2_9allocatorIcEEEEbxydS8_NS0_14adl_serializerENS4_IhNS8_IhEEEEvEC2ERKSE_, symObjAddr: 0xC22C, symBinAddr: 0x10000FA44, symSize: 0xD0 }
  - { offsetInCU: 0x370A9, offset: 0x76302, size: 0x8, addend: 0x0, symName: __ZN8nlohmann16json_abi_v3_11_210basic_jsonINSt3__13mapENS2_6vectorENS2_12basic_stringIcNS2_11char_traitsIcEENS2_9allocatorIcEEEEbxydS8_NS0_14adl_serializerENS4_IhNS8_IhEEEEvEaSESE_, symObjAddr: 0x2158, symBinAddr: 0x100005970, symSize: 0x5C }
  - { offsetInCU: 0x37179, offset: 0x763D2, size: 0x8, addend: 0x0, symName: __ZN8nlohmann16json_abi_v3_11_210basic_jsonINSt3__13mapENS2_6vectorENS2_12basic_stringIcNS2_11char_traitsIcEENS2_9allocatorIcEEEEbxydS8_NS0_14adl_serializerENS4_IhNS8_IhEEEEvE4dataD2Ev, symObjAddr: 0x8E3C, symBinAddr: 0x10000C654, symSize: 0x2C }
  - { offsetInCU: 0x371B2, offset: 0x7640B, size: 0x8, addend: 0x0, symName: __ZNK8nlohmann16json_abi_v3_11_210basic_jsonINSt3__13mapENS2_6vectorENS2_12basic_stringIcNS2_11char_traitsIcEENS2_9allocatorIcEEEEbxydS8_NS0_14adl_serializerENS4_IhNS8_IhEEEEvE4dumpEicbNS0_6detail15error_handler_tE, symObjAddr: 0x21B4, symBinAddr: 0x1000059CC, symSize: 0x1A8 }
  - { offsetInCU: 0x37A5E, offset: 0x76CB7, size: 0x8, addend: 0x0, symName: __ZNK8nlohmann16json_abi_v3_11_26detail15iteration_proxyINS1_9iter_implINS0_10basic_jsonINSt3__13mapENS5_6vectorENS5_12basic_stringIcNS5_11char_traitsIcEENS5_9allocatorIcEEEEbxydSB_NS0_14adl_serializerENS7_IhNSB_IhEEEEvEEEEE5beginEv, symObjAddr: 0x235C, symBinAddr: 0x100005B74, symSize: 0x48 }
  - { offsetInCU: 0x37B4C, offset: 0x76DA5, size: 0x8, addend: 0x0, symName: __ZNK8nlohmann16json_abi_v3_11_26detail15iteration_proxyINS1_9iter_implINS0_10basic_jsonINSt3__13mapENS5_6vectorENS5_12basic_stringIcNS5_11char_traitsIcEENS5_9allocatorIcEEEEbxydSB_NS0_14adl_serializerENS7_IhNSB_IhEEEEvEEEEE3endEv, symObjAddr: 0x23A4, symBinAddr: 0x100005BBC, symSize: 0x48 }
  - { offsetInCU: 0x37C3A, offset: 0x76E93, size: 0x8, addend: 0x0, symName: __ZNK8nlohmann16json_abi_v3_11_26detail9iter_implINS0_10basic_jsonINSt3__13mapENS4_6vectorENS4_12basic_stringIcNS4_11char_traitsIcEENS4_9allocatorIcEEEEbxydSA_NS0_14adl_serializerENS6_IhNSA_IhEEEEvEEEeqISH_LDn0EEEbRKT_, symObjAddr: 0x7C28, symBinAddr: 0x10000B440, symSize: 0x10C }
  - { offsetInCU: 0x37EE8, offset: 0x77141, size: 0x8, addend: 0x0, symName: __ZN8nlohmann16json_abi_v3_11_26detail9iter_implINS0_10basic_jsonINSt3__13mapENS4_6vectorENS4_12basic_stringIcNS4_11char_traitsIcEENS4_9allocatorIcEEEEbxydSA_NS0_14adl_serializerENS6_IhNSA_IhEEEEvEEEppEv, symObjAddr: 0x7AD4, symBinAddr: 0x10000B2EC, symSize: 0x84 }
  - { offsetInCU: 0x380A7, offset: 0x77300, size: 0x8, addend: 0x0, symName: __ZN8nlohmann16json_abi_v3_11_26detail9iter_implINS0_10basic_jsonINSt3__13mapENS4_6vectorENS4_12basic_stringIcNS4_11char_traitsIcEENS4_9allocatorIcEEEEbxydSA_NS0_14adl_serializerENS6_IhNSA_IhEEEEvEEE9set_beginEv, symObjAddr: 0x7B58, symBinAddr: 0x10000B370, symSize: 0x88 }
  - { offsetInCU: 0x380B2, offset: 0x7730B, size: 0x8, addend: 0x0, symName: __ZN8nlohmann16json_abi_v3_11_26detail21iteration_proxy_valueINS1_9iter_implINS0_10basic_jsonINSt3__13mapENS5_6vectorENS5_12basic_stringIcNS5_11char_traitsIcEENS5_9allocatorIcEEEEbxydSB_NS0_14adl_serializerENS7_IhNSB_IhEEEEvEEEEED2Ev, symObjAddr: 0xF1FC, symBinAddr: 0x100012A14, symSize: 0x40 }
  - { offsetInCU: 0x38355, offset: 0x775AE, size: 0x8, addend: 0x0, symName: __ZNK8nlohmann16json_abi_v3_11_26detail9iter_implINS0_10basic_jsonINSt3__13mapENS4_6vectorENS4_12basic_stringIcNS4_11char_traitsIcEENS4_9allocatorIcEEEEbxydSA_NS0_14adl_serializerENS6_IhNSA_IhEEEEvEEEdeEv, symObjAddr: 0xF088, symBinAddr: 0x1000128A0, symSize: 0x174 }
  - { offsetInCU: 0x38922, offset: 0x77B7B, size: 0x8, addend: 0x0, symName: __ZNSt3__128__exception_guard_exceptionsINS_29_AllocatorDestroyRangeReverseINS_9allocatorI4ParmEENS_16reverse_iteratorIPS3_EEEEED2B8ue170006Ev, symObjAddr: 0x1D60, symBinAddr: 0x100005578, symSize: 0x34 }
  - { offsetInCU: 0x38961, offset: 0x77BBA, size: 0x8, addend: 0x0, symName: __ZNKSt3__129_AllocatorDestroyRangeReverseINS_9allocatorI4ParmEENS_16reverse_iteratorIPS2_EEEclB8ue170006Ev, symObjAddr: 0x1D94, symBinAddr: 0x1000055AC, symSize: 0x44 }
  - { offsetInCU: 0x38C3F, offset: 0x77E98, size: 0x8, addend: 0x0, symName: __ZNSt3__114__split_bufferI4ParmRNS_9allocatorIS1_EEE17__destruct_at_endB8ue170006EPS1_, symObjAddr: 0x1E0C, symBinAddr: 0x100005624, symSize: 0x54 }
  - { offsetInCU: 0x38F6C, offset: 0x781C5, size: 0x8, addend: 0x0, symName: __ZNSt3__110__function12__value_funcIFbiN8nlohmann16json_abi_v3_11_26detail13parse_event_tERNS3_10basic_jsonINS_3mapENS_6vectorENS_12basic_stringIcNS_11char_traitsIcEENS_9allocatorIcEEEEbxydSC_NS3_14adl_serializerENS8_IhNSC_IhEEEEvEEEEC2B8ue170006ERKSL_, symObjAddr: 0x3D38, symBinAddr: 0x100007550, symSize: 0x64 }
  - { offsetInCU: 0x38FC6, offset: 0x7821F, size: 0x8, addend: 0x0, symName: __ZN8nlohmann16json_abi_v3_11_210basic_jsonINSt3__13mapENS2_6vectorENS2_12basic_stringIcNS2_11char_traitsIcEENS2_9allocatorIcEEEEbxydS8_NS0_14adl_serializerENS4_IhNS8_IhEEEEvE6parserINS0_6detail22iterator_input_adapterINS2_11__wrap_iterIPKcEEEEEENSG_6parserISE_T_EESO_NS2_8functionIFbiNSG_13parse_event_tERSE_EEEbb, symObjAddr: 0x247C, symBinAddr: 0x100005C94, symSize: 0xF0 }
  - { offsetInCU: 0x39238, offset: 0x78491, size: 0x8, addend: 0x0, symName: __ZN8nlohmann16json_abi_v3_11_26detail6parserINS0_10basic_jsonINSt3__13mapENS4_6vectorENS4_12basic_stringIcNS4_11char_traitsIcEENS4_9allocatorIcEEEEbxydSA_NS0_14adl_serializerENS6_IhNSA_IhEEEEvEENS1_22iterator_input_adapterINS4_11__wrap_iterIPKcEEEEE5parseEbRSG_, symObjAddr: 0x256C, symBinAddr: 0x100005D84, symSize: 0x4FC }
  - { offsetInCU: 0x3B1E8, offset: 0x7A441, size: 0x8, addend: 0x0, symName: __ZN8nlohmann16json_abi_v3_11_26detail5lexerINS0_10basic_jsonINSt3__13mapENS4_6vectorENS4_12basic_stringIcNS4_11char_traitsIcEENS4_9allocatorIcEEEEbxydSA_NS0_14adl_serializerENS6_IhNSA_IhEEEEvEENS1_22iterator_input_adapterINS4_11__wrap_iterIPKcEEEEED2Ev, symObjAddr: 0x3CF8, symBinAddr: 0x100007510, symSize: 0x40 }
  - { offsetInCU: 0x3B4A6, offset: 0x7A6FF, size: 0x8, addend: 0x0, symName: __ZN8nlohmann16json_abi_v3_11_26detail6parserINS0_10basic_jsonINSt3__13mapENS4_6vectorENS4_12basic_stringIcNS4_11char_traitsIcEENS4_9allocatorIcEEEEbxydSA_NS0_14adl_serializerENS6_IhNSA_IhEEEEvEENS1_22iterator_input_adapterINS4_11__wrap_iterIPKcEEEEED1Ev, symObjAddr: 0x2A68, symBinAddr: 0x100006280, symSize: 0x54 }
  - { offsetInCU: 0x3B782, offset: 0x7A9DB, size: 0x8, addend: 0x0, symName: __ZNSt3__16vectorIN8nlohmann16json_abi_v3_11_210basic_jsonINS_3mapES0_NS_12basic_stringIcNS_11char_traitsIcEENS_9allocatorIcEEEEbxydS8_NS2_14adl_serializerENS0_IhNS8_IhEEEEvEENS8_ISE_EEE6resizeEm, symObjAddr: 0xBFA0, symBinAddr: 0x10000F7B8, symSize: 0x2C }
  - { offsetInCU: 0x3B7CC, offset: 0x7AA25, size: 0x8, addend: 0x0, symName: __ZNSt3__16vectorIN8nlohmann16json_abi_v3_11_210basic_jsonINS_3mapES0_NS_12basic_stringIcNS_11char_traitsIcEENS_9allocatorIcEEEEbxydS8_NS2_14adl_serializerENS0_IhNS8_IhEEEEvEENS8_ISE_EEE6resizeEm, symObjAddr: 0xBFA0, symBinAddr: 0x10000F7B8, symSize: 0x2C }
  - { offsetInCU: 0x3B832, offset: 0x7AA8B, size: 0x8, addend: 0x0, symName: __ZNK8nlohmann16json_abi_v3_11_210basic_jsonINSt3__13mapENS2_6vectorENS2_12basic_stringIcNS2_11char_traitsIcEENS2_9allocatorIcEEEEbxydS8_NS0_14adl_serializerENS4_IhNS8_IhEEEEvE9type_nameEv, symObjAddr: 0x813C, symBinAddr: 0x10000B954, symSize: 0x28 }
  - { offsetInCU: 0x3B886, offset: 0x7AADF, size: 0x8, addend: 0x0, symName: __ZN8nlohmann16json_abi_v3_11_26detail10type_error6createIPNS0_10basic_jsonINSt3__13mapENS5_6vectorENS5_12basic_stringIcNS5_11char_traitsIcEENS5_9allocatorIcEEEEbxydSB_NS0_14adl_serializerENS7_IhNSB_IhEEEEvEELi0EEES2_iRKSD_T_, symObjAddr: 0x7F58, symBinAddr: 0x10000B770, symSize: 0x144 }
  - { offsetInCU: 0x3C7C3, offset: 0x7BA1C, size: 0x8, addend: 0x0, symName: __ZN8nlohmann16json_abi_v3_11_26detail10serializerINS0_10basic_jsonINSt3__13mapENS4_6vectorENS4_12basic_stringIcNS4_11char_traitsIcEENS4_9allocatorIcEEEEbxydSA_NS0_14adl_serializerENS6_IhNSA_IhEEEEvEEEC2ENS4_10shared_ptrINS1_23output_adapter_protocolIcEEEEcNS1_15error_handler_tE, symObjAddr: 0xD584, symBinAddr: 0x100010D9C, symSize: 0x13C }
  - { offsetInCU: 0x3CA95, offset: 0x7BCEE, size: 0x8, addend: 0x0, symName: __ZN8nlohmann16json_abi_v3_11_26detail10serializerINS0_10basic_jsonINSt3__13mapENS4_6vectorENS4_12basic_stringIcNS4_11char_traitsIcEENS4_9allocatorIcEEEEbxydSA_NS0_14adl_serializerENS6_IhNSA_IhEEEEvEEE4dumpERKSG_bbjj, symObjAddr: 0xCA90, symBinAddr: 0x1000102A8, symSize: 0xA9C }
  - { offsetInCU: 0x3E5DB, offset: 0x7D834, size: 0x8, addend: 0x0, symName: __ZNSt3__120__shared_ptr_emplaceIN8nlohmann16json_abi_v3_11_26detail21output_string_adapterIcNS_12basic_stringIcNS_11char_traitsIcEENS_9allocatorIcEEEEEENS8_ISB_EEED1Ev, symObjAddr: 0xD52C, symBinAddr: 0x100010D44, symSize: 0x10 }
  - { offsetInCU: 0x3E5E6, offset: 0x7D83F, size: 0x8, addend: 0x0, symName: __ZN8nlohmann16json_abi_v3_11_26detail10serializerINS0_10basic_jsonINSt3__13mapENS4_6vectorENS4_12basic_stringIcNS4_11char_traitsIcEENS4_9allocatorIcEEEEbxydSA_NS0_14adl_serializerENS6_IhNSA_IhEEEEvEEED2Ev, symObjAddr: 0xF010, symBinAddr: 0x100012828, symSize: 0x30 }
  - { offsetInCU: 0x3E786, offset: 0x7D9DF, size: 0x8, addend: 0x0, symName: __ZNSt3__110shared_ptrIN8nlohmann16json_abi_v3_11_26detail23output_adapter_protocolIcEEED2B8ue170006Ev, symObjAddr: 0xD758, symBinAddr: 0x100010F70, symSize: 0x50 }
  - { offsetInCU: 0x3E896, offset: 0x7DAEF, size: 0x8, addend: 0x0, symName: __ZN8nlohmann16json_abi_v3_11_26detail9iter_implINS0_10basic_jsonINSt3__13mapENS4_6vectorENS4_12basic_stringIcNS4_11char_traitsIcEENS4_9allocatorIcEEEEbxydSA_NS0_14adl_serializerENS6_IhNSA_IhEEEEvEEEC2EPSG_, symObjAddr: 0x7BE0, symBinAddr: 0x10000B3F8, symSize: 0x48 }
  - { offsetInCU: 0x3E912, offset: 0x7DB6B, size: 0x8, addend: 0x0, symName: __ZN8nlohmann16json_abi_v3_11_26detail9iter_implINS0_10basic_jsonINSt3__13mapENS4_6vectorENS4_12basic_stringIcNS4_11char_traitsIcEENS4_9allocatorIcEEEEbxydSA_NS0_14adl_serializerENS6_IhNSA_IhEEEEvEEE9set_beginEv, symObjAddr: 0x7B58, symBinAddr: 0x10000B370, symSize: 0x88 }
  - { offsetInCU: 0x3E9D8, offset: 0x7DC31, size: 0x8, addend: 0x0, symName: __ZN8nlohmann16json_abi_v3_11_26detail21iteration_proxy_valueINS1_9iter_implINS0_10basic_jsonINSt3__13mapENS5_6vectorENS5_12basic_stringIcNS5_11char_traitsIcEENS5_9allocatorIcEEEEbxydSB_NS0_14adl_serializerENS7_IhNSB_IhEEEEvEEEEEC2ESI_m, symObjAddr: 0xF040, symBinAddr: 0x100012858, symSize: 0x48 }
  - { offsetInCU: 0x3EAE2, offset: 0x7DD3B, size: 0x8, addend: 0x0, symName: __ZN8nlohmann16json_abi_v3_11_26detail9iter_implINS0_10basic_jsonINSt3__13mapENS4_6vectorENS4_12basic_stringIcNS4_11char_traitsIcEENS4_9allocatorIcEEEEbxydSA_NS0_14adl_serializerENS6_IhNSA_IhEEEEvEEE7set_endEv, symObjAddr: 0x7EDC, symBinAddr: 0x10000B6F4, symSize: 0x7C }
  - { offsetInCU: 0x3ECED, offset: 0x7DF46, size: 0x8, addend: 0x0, symName: __ZNSt3__110__function12__value_funcIFbiN8nlohmann16json_abi_v3_11_26detail13parse_event_tERNS3_10basic_jsonINS_3mapENS_6vectorENS_12basic_stringIcNS_11char_traitsIcEENS_9allocatorIcEEEEbxydSC_NS3_14adl_serializerENS8_IhNSC_IhEEEEvEEEEC2B8ue170006EOSL_, symObjAddr: 0x2ABC, symBinAddr: 0x1000062D4, symSize: 0x64 }
  - { offsetInCU: 0x3ED3B, offset: 0x7DF94, size: 0x8, addend: 0x0, symName: __ZN8nlohmann16json_abi_v3_11_26detail6parserINS0_10basic_jsonINSt3__13mapENS4_6vectorENS4_12basic_stringIcNS4_11char_traitsIcEENS4_9allocatorIcEEEEbxydSA_NS0_14adl_serializerENS6_IhNSA_IhEEEEvEENS1_22iterator_input_adapterINS4_11__wrap_iterIPKcEEEEEC2EOSM_NS4_8functionIFbiNS1_13parse_event_tERSG_EEEbb, symObjAddr: 0x2B20, symBinAddr: 0x100006338, symSize: 0xE8 }
  - { offsetInCU: 0x3F302, offset: 0x7E55B, size: 0x8, addend: 0x0, symName: __ZN8nlohmann16json_abi_v3_11_26detail28json_sax_dom_callback_parserINS0_10basic_jsonINSt3__13mapENS4_6vectorENS4_12basic_stringIcNS4_11char_traitsIcEENS4_9allocatorIcEEEEbxydSA_NS0_14adl_serializerENS6_IhNSA_IhEEEEvEEEC2ERSG_NS4_8functionIFbiNS1_13parse_event_tESI_EEEb, symObjAddr: 0x5A48, symBinAddr: 0x100009260, symSize: 0x12C }
  - { offsetInCU: 0x3F988, offset: 0x7EBE1, size: 0x8, addend: 0x0, symName: __ZN8nlohmann16json_abi_v3_11_26detail6parserINS0_10basic_jsonINSt3__13mapENS4_6vectorENS4_12basic_stringIcNS4_11char_traitsIcEENS4_9allocatorIcEEEEbxydSA_NS0_14adl_serializerENS6_IhNSA_IhEEEEvEENS1_22iterator_input_adapterINS4_11__wrap_iterIPKcEEEEE18sax_parse_internalINS1_19json_sax_dom_parserISG_EEEEbPT_, symObjAddr: 0x4E88, symBinAddr: 0x1000086A0, symSize: 0xABC }
  - { offsetInCU: 0x4114A, offset: 0x803A3, size: 0x8, addend: 0x0, symName: __ZN8nlohmann16json_abi_v3_11_26detail5lexerINS0_10basic_jsonINSt3__13mapENS4_6vectorENS4_12basic_stringIcNS4_11char_traitsIcEENS4_9allocatorIcEEEEbxydSA_NS0_14adl_serializerENS6_IhNSA_IhEEEEvEENS1_22iterator_input_adapterINS4_11__wrap_iterIPKcEEEEE4scanEv, symObjAddr: 0x2C60, symBinAddr: 0x100006478, symSize: 0x230 }
  - { offsetInCU: 0x4128B, offset: 0x804E4, size: 0x8, addend: 0x0, symName: __ZNK8nlohmann16json_abi_v3_11_26detail5lexerINS0_10basic_jsonINSt3__13mapENS4_6vectorENS4_12basic_stringIcNS4_11char_traitsIcEENS4_9allocatorIcEEEEbxydSA_NS0_14adl_serializerENS6_IhNSA_IhEEEEvEENS1_22iterator_input_adapterINS4_11__wrap_iterIPKcEEEEE16get_token_stringEv, symObjAddr: 0x48C8, symBinAddr: 0x1000080E0, symSize: 0xEC }
  - { offsetInCU: 0x4157A, offset: 0x807D3, size: 0x8, addend: 0x0, symName: __ZN8nlohmann16json_abi_v3_11_26detail6parserINS0_10basic_jsonINSt3__13mapENS4_6vectorENS4_12basic_stringIcNS4_11char_traitsIcEENS4_9allocatorIcEEEEbxydSA_NS0_14adl_serializerENS6_IhNSA_IhEEEEvEENS1_22iterator_input_adapterINS4_11__wrap_iterIPKcEEEEE17exception_messageENS1_10lexer_baseISG_E10token_typeERKSC_, symObjAddr: 0x4B4C, symBinAddr: 0x100008364, symSize: 0x30C }
  - { offsetInCU: 0x426AC, offset: 0x81905, size: 0x8, addend: 0x0, symName: __ZN8nlohmann16json_abi_v3_11_26detail11parse_error6createIDnLi0EEES2_iRKNS1_10position_tERKNSt3__112basic_stringIcNS7_11char_traitsIcEENS7_9allocatorIcEEEET_, symObjAddr: 0x49B4, symBinAddr: 0x1000081CC, symSize: 0x198 }
  - { offsetInCU: 0x43438, offset: 0x82691, size: 0x8, addend: 0x0, symName: __ZN8nlohmann16json_abi_v3_11_26detail19json_sax_dom_parserINS0_10basic_jsonINSt3__13mapENS4_6vectorENS4_12basic_stringIcNS4_11char_traitsIcEENS4_9allocatorIcEEEEbxydSA_NS0_14adl_serializerENS6_IhNSA_IhEEEEvEEE11parse_errorINS1_11parse_errorEEEbmRKSC_RKT_, symObjAddr: 0x5944, symBinAddr: 0x10000915C, symSize: 0x54 }
  - { offsetInCU: 0x434A6, offset: 0x826FF, size: 0x8, addend: 0x0, symName: __ZN8nlohmann16json_abi_v3_11_26detail6parserINS0_10basic_jsonINSt3__13mapENS4_6vectorENS4_12basic_stringIcNS4_11char_traitsIcEENS4_9allocatorIcEEEEbxydSA_NS0_14adl_serializerENS6_IhNSA_IhEEEEvEENS1_22iterator_input_adapterINS4_11__wrap_iterIPKcEEEEE18sax_parse_internalINS1_28json_sax_dom_callback_parserISG_EEEEbPT_, symObjAddr: 0x3D9C, symBinAddr: 0x1000075B4, symSize: 0xAD8 }
  - { offsetInCU: 0x44C8B, offset: 0x83EE4, size: 0x8, addend: 0x0, symName: __ZN8nlohmann16json_abi_v3_11_26detail28json_sax_dom_callback_parserINS0_10basic_jsonINSt3__13mapENS4_6vectorENS4_12basic_stringIcNS4_11char_traitsIcEENS4_9allocatorIcEEEEbxydSA_NS0_14adl_serializerENS6_IhNSA_IhEEEEvEEE11parse_errorINS1_11parse_errorEEEbmRKSC_RKT_, symObjAddr: 0x4874, symBinAddr: 0x10000808C, symSize: 0x54 }
  - { offsetInCU: 0x44CF9, offset: 0x83F52, size: 0x8, addend: 0x0, symName: __ZN8nlohmann16json_abi_v3_11_26detail28json_sax_dom_callback_parserINS0_10basic_jsonINSt3__13mapENS4_6vectorENS4_12basic_stringIcNS4_11char_traitsIcEENS4_9allocatorIcEEEEbxydSA_NS0_14adl_serializerENS6_IhNSA_IhEEEEvEEED2Ev, symObjAddr: 0xAAE4, symBinAddr: 0x10000E2FC, symSize: 0x90 }
  - { offsetInCU: 0x45202, offset: 0x8445B, size: 0x8, addend: 0x0, symName: __ZN8nlohmann16json_abi_v3_11_26detail5lexerINS0_10basic_jsonINSt3__13mapENS4_6vectorENS4_12basic_stringIcNS4_11char_traitsIcEENS4_9allocatorIcEEEEbxydSA_NS0_14adl_serializerENS6_IhNSA_IhEEEEvEENS1_22iterator_input_adapterINS4_11__wrap_iterIPKcEEEEE17get_decimal_pointEv, symObjAddr: 0x2C08, symBinAddr: 0x100006420, symSize: 0x58 }
  - { offsetInCU: 0x45258, offset: 0x844B1, size: 0x8, addend: 0x0, symName: __ZN8nlohmann16json_abi_v3_11_26detail5lexerINS0_10basic_jsonINSt3__13mapENS4_6vectorENS4_12basic_stringIcNS4_11char_traitsIcEENS4_9allocatorIcEEEEbxydSA_NS0_14adl_serializerENS6_IhNSA_IhEEEEvEENS1_22iterator_input_adapterINS4_11__wrap_iterIPKcEEEEE8skip_bomEv, symObjAddr: 0x2E90, symBinAddr: 0x1000066A8, symSize: 0x60 }
  - { offsetInCU: 0x452D0, offset: 0x84529, size: 0x8, addend: 0x0, symName: __ZN8nlohmann16json_abi_v3_11_26detail5lexerINS0_10basic_jsonINSt3__13mapENS4_6vectorENS4_12basic_stringIcNS4_11char_traitsIcEENS4_9allocatorIcEEEEbxydSA_NS0_14adl_serializerENS6_IhNSA_IhEEEEvEENS1_22iterator_input_adapterINS4_11__wrap_iterIPKcEEEEE3getEv, symObjAddr: 0x38B8, symBinAddr: 0x1000070D0, symSize: 0x160 }
  - { offsetInCU: 0x45896, offset: 0x84AEF, size: 0x8, addend: 0x0, symName: __ZN8nlohmann16json_abi_v3_11_26detail5lexerINS0_10basic_jsonINSt3__13mapENS4_6vectorENS4_12basic_stringIcNS4_11char_traitsIcEENS4_9allocatorIcEEEEbxydSA_NS0_14adl_serializerENS6_IhNSA_IhEEEEvEENS1_22iterator_input_adapterINS4_11__wrap_iterIPKcEEEEE5ungetEv, symObjAddr: 0x3A18, symBinAddr: 0x100007230, symSize: 0x68 }
  - { offsetInCU: 0x458A7, offset: 0x84B00, size: 0x8, addend: 0x0, symName: __ZN8nlohmann16json_abi_v3_11_26detail5lexerINS0_10basic_jsonINSt3__13mapENS4_6vectorENS4_12basic_stringIcNS4_11char_traitsIcEENS4_9allocatorIcEEEEbxydSA_NS0_14adl_serializerENS6_IhNSA_IhEEEEvEENS1_22iterator_input_adapterINS4_11__wrap_iterIPKcEEEEE12scan_commentEv, symObjAddr: 0x2EF0, symBinAddr: 0x100006708, symSize: 0xB0 }
  - { offsetInCU: 0x45933, offset: 0x84B8C, size: 0x8, addend: 0x0, symName: __ZN8nlohmann16json_abi_v3_11_26detail5lexerINS0_10basic_jsonINSt3__13mapENS4_6vectorENS4_12basic_stringIcNS4_11char_traitsIcEENS4_9allocatorIcEEEEbxydSA_NS0_14adl_serializerENS6_IhNSA_IhEEEEvEENS1_22iterator_input_adapterINS4_11__wrap_iterIPKcEEEEE11scan_numberEv, symObjAddr: 0x350C, symBinAddr: 0x100006D24, symSize: 0x3AC }
  - { offsetInCU: 0x46012, offset: 0x8526B, size: 0x8, addend: 0x0, symName: __ZN8nlohmann16json_abi_v3_11_26detail5lexerINS0_10basic_jsonINSt3__13mapENS4_6vectorENS4_12basic_stringIcNS4_11char_traitsIcEENS4_9allocatorIcEEEEbxydSA_NS0_14adl_serializerENS6_IhNSA_IhEEEEvEENS1_22iterator_input_adapterINS4_11__wrap_iterIPKcEEEEE11scan_stringEv, symObjAddr: 0x3024, symBinAddr: 0x10000683C, symSize: 0x4E8 }
  - { offsetInCU: 0x461D3, offset: 0x8542C, size: 0x8, addend: 0x0, symName: __ZN8nlohmann16json_abi_v3_11_26detail5lexerINS0_10basic_jsonINSt3__13mapENS4_6vectorENS4_12basic_stringIcNS4_11char_traitsIcEENS4_9allocatorIcEEEEbxydSA_NS0_14adl_serializerENS6_IhNSA_IhEEEEvEENS1_22iterator_input_adapterINS4_11__wrap_iterIPKcEEEEE12scan_literalESK_mNS1_10lexer_baseISG_E10token_typeE, symObjAddr: 0x2FA0, symBinAddr: 0x1000067B8, symSize: 0x84 }
  - { offsetInCU: 0x46259, offset: 0x854B2, size: 0x8, addend: 0x0, symName: __ZN8nlohmann16json_abi_v3_11_26detail5lexerINS0_10basic_jsonINSt3__13mapENS4_6vectorENS4_12basic_stringIcNS4_11char_traitsIcEENS4_9allocatorIcEEEEbxydSA_NS0_14adl_serializerENS6_IhNSA_IhEEEEvEENS1_22iterator_input_adapterINS4_11__wrap_iterIPKcEEEEE11scan_stringEv, symObjAddr: 0x3024, symBinAddr: 0x10000683C, symSize: 0x4E8 }
  - { offsetInCU: 0x46264, offset: 0x854BD, size: 0x8, addend: 0x0, symName: __ZN8nlohmann16json_abi_v3_11_26detail5lexerINS0_10basic_jsonINSt3__13mapENS4_6vectorENS4_12basic_stringIcNS4_11char_traitsIcEENS4_9allocatorIcEEEEbxydSA_NS0_14adl_serializerENS6_IhNSA_IhEEEEvEENS1_22iterator_input_adapterINS4_11__wrap_iterIPKcEEEEE5ungetEv, symObjAddr: 0x3A18, symBinAddr: 0x100007230, symSize: 0x68 }
  - { offsetInCU: 0x4630A, offset: 0x85563, size: 0x8, addend: 0x0, symName: __ZNKSt3__16vectorIcNS_9allocatorIcEEE20__throw_length_errorB8ue170006Ev, symObjAddr: 0x3A80, symBinAddr: 0x100007298, symSize: 0x14 }
  - { offsetInCU: 0x46315, offset: 0x8556E, size: 0x8, addend: 0x0, symName: __ZN8nlohmann16json_abi_v3_11_26detail5lexerINS0_10basic_jsonINSt3__13mapENS4_6vectorENS4_12basic_stringIcNS4_11char_traitsIcEENS4_9allocatorIcEEEEbxydSA_NS0_14adl_serializerENS6_IhNSA_IhEEEEvEENS1_22iterator_input_adapterINS4_11__wrap_iterIPKcEEEEE12scan_literalESK_mNS1_10lexer_baseISG_E10token_typeE.cold.1, symObjAddr: 0xFAB8, symBinAddr: 0x10024E764, symSize: 0x28 }
  - { offsetInCU: 0x4634F, offset: 0x855A8, size: 0x8, addend: 0x0, symName: __ZN8nlohmann16json_abi_v3_11_26detail5lexerINS0_10basic_jsonINSt3__13mapENS4_6vectorENS4_12basic_stringIcNS4_11char_traitsIcEENS4_9allocatorIcEEEEbxydSA_NS0_14adl_serializerENS6_IhNSA_IhEEEEvEENS1_22iterator_input_adapterINS4_11__wrap_iterIPKcEEEEE5resetEv, symObjAddr: 0x3A94, symBinAddr: 0x1000072AC, symSize: 0xC0 }
  - { offsetInCU: 0x4686B, offset: 0x85AC4, size: 0x8, addend: 0x0, symName: __ZN8nlohmann16json_abi_v3_11_26detail5lexerINS0_10basic_jsonINSt3__13mapENS4_6vectorENS4_12basic_stringIcNS4_11char_traitsIcEENS4_9allocatorIcEEEEbxydSA_NS0_14adl_serializerENS6_IhNSA_IhEEEEvEENS1_22iterator_input_adapterINS4_11__wrap_iterIPKcEEEEE18next_byte_in_rangeESt16initializer_listIiE, symObjAddr: 0x3C44, symBinAddr: 0x10000745C, symSize: 0xB4 }
  - { offsetInCU: 0x46917, offset: 0x85B70, size: 0x8, addend: 0x0, symName: __ZN8nlohmann16json_abi_v3_11_26detail5lexerINS0_10basic_jsonINSt3__13mapENS4_6vectorENS4_12basic_stringIcNS4_11char_traitsIcEENS4_9allocatorIcEEEEbxydSA_NS0_14adl_serializerENS6_IhNSA_IhEEEEvEENS1_22iterator_input_adapterINS4_11__wrap_iterIPKcEEEEED2Ev, symObjAddr: 0x3CF8, symBinAddr: 0x100007510, symSize: 0x40 }
  - { offsetInCU: 0x46922, offset: 0x85B7B, size: 0x8, addend: 0x0, symName: __ZN8nlohmann16json_abi_v3_11_26detail5lexerINS0_10basic_jsonINSt3__13mapENS4_6vectorENS4_12basic_stringIcNS4_11char_traitsIcEENS4_9allocatorIcEEEEbxydSA_NS0_14adl_serializerENS6_IhNSA_IhEEEEvEENS1_22iterator_input_adapterINS4_11__wrap_iterIPKcEEEEE13get_codepointEv, symObjAddr: 0x3B54, symBinAddr: 0x10000736C, symSize: 0xF0 }
  - { offsetInCU: 0x469F0, offset: 0x85C49, size: 0x8, addend: 0x0, symName: __ZN8nlohmann16json_abi_v3_11_26detail5lexerINS0_10basic_jsonINSt3__13mapENS4_6vectorENS4_12basic_stringIcNS4_11char_traitsIcEENS4_9allocatorIcEEEEbxydSA_NS0_14adl_serializerENS6_IhNSA_IhEEEEvEENS1_22iterator_input_adapterINS4_11__wrap_iterIPKcEEEEE11scan_stringEv.cold.2, symObjAddr: 0xFB08, symBinAddr: 0x10024E7B4, symSize: 0x28 }
  - { offsetInCU: 0x46A08, offset: 0x85C61, size: 0x8, addend: 0x0, symName: __ZN8nlohmann16json_abi_v3_11_26detail5lexerINS0_10basic_jsonINSt3__13mapENS4_6vectorENS4_12basic_stringIcNS4_11char_traitsIcEENS4_9allocatorIcEEEEbxydSA_NS0_14adl_serializerENS6_IhNSA_IhEEEEvEENS1_22iterator_input_adapterINS4_11__wrap_iterIPKcEEEEE11scan_stringEv.cold.1, symObjAddr: 0xFAE0, symBinAddr: 0x10024E78C, symSize: 0x28 }
  - { offsetInCU: 0x46A62, offset: 0x85CBB, size: 0x8, addend: 0x0, symName: __ZN8nlohmann16json_abi_v3_11_26detail5lexerINS0_10basic_jsonINSt3__13mapENS4_6vectorENS4_12basic_stringIcNS4_11char_traitsIcEENS4_9allocatorIcEEEEbxydSA_NS0_14adl_serializerENS6_IhNSA_IhEEEEvEENS1_22iterator_input_adapterINS4_11__wrap_iterIPKcEEEEE11scan_numberEv.cold.2, symObjAddr: 0xFB58, symBinAddr: 0x10024E804, symSize: 0x28 }
  - { offsetInCU: 0x46A7A, offset: 0x85CD3, size: 0x8, addend: 0x0, symName: __ZN8nlohmann16json_abi_v3_11_26detail5lexerINS0_10basic_jsonINSt3__13mapENS4_6vectorENS4_12basic_stringIcNS4_11char_traitsIcEENS4_9allocatorIcEEEEbxydSA_NS0_14adl_serializerENS6_IhNSA_IhEEEEvEENS1_22iterator_input_adapterINS4_11__wrap_iterIPKcEEEEE11scan_numberEv.cold.3, symObjAddr: 0xFB80, symBinAddr: 0x10024E82C, symSize: 0x28 }
  - { offsetInCU: 0x46A92, offset: 0x85CEB, size: 0x8, addend: 0x0, symName: __ZN8nlohmann16json_abi_v3_11_26detail5lexerINS0_10basic_jsonINSt3__13mapENS4_6vectorENS4_12basic_stringIcNS4_11char_traitsIcEENS4_9allocatorIcEEEEbxydSA_NS0_14adl_serializerENS6_IhNSA_IhEEEEvEENS1_22iterator_input_adapterINS4_11__wrap_iterIPKcEEEEE11scan_numberEv.cold.4, symObjAddr: 0xFBA8, symBinAddr: 0x10024E854, symSize: 0x28 }
  - { offsetInCU: 0x46AAA, offset: 0x85D03, size: 0x8, addend: 0x0, symName: __ZN8nlohmann16json_abi_v3_11_26detail5lexerINS0_10basic_jsonINSt3__13mapENS4_6vectorENS4_12basic_stringIcNS4_11char_traitsIcEENS4_9allocatorIcEEEEbxydSA_NS0_14adl_serializerENS6_IhNSA_IhEEEEvEENS1_22iterator_input_adapterINS4_11__wrap_iterIPKcEEEEE11scan_numberEv.cold.1, symObjAddr: 0xFB30, symBinAddr: 0x10024E7DC, symSize: 0x28 }
  - { offsetInCU: 0x46E4A, offset: 0x860A3, size: 0x8, addend: 0x0, symName: __ZNKSt3__16vectorIcNS_9allocatorIcEEE20__throw_length_errorB8ue170006Ev, symObjAddr: 0x3A80, symBinAddr: 0x100007298, symSize: 0x14 }
  - { offsetInCU: 0x46E74, offset: 0x860CD, size: 0x8, addend: 0x0, symName: __ZN8nlohmann16json_abi_v3_11_26detail5lexerINS0_10basic_jsonINSt3__13mapENS4_6vectorENS4_12basic_stringIcNS4_11char_traitsIcEENS4_9allocatorIcEEEEbxydSA_NS0_14adl_serializerENS6_IhNSA_IhEEEEvEENS1_22iterator_input_adapterINS4_11__wrap_iterIPKcEEEEE5resetEv, symObjAddr: 0x3A94, symBinAddr: 0x1000072AC, symSize: 0xC0 }
  - { offsetInCU: 0x46F09, offset: 0x86162, size: 0x8, addend: 0x0, symName: __ZN8nlohmann16json_abi_v3_11_26detail5lexerINS0_10basic_jsonINSt3__13mapENS4_6vectorENS4_12basic_stringIcNS4_11char_traitsIcEENS4_9allocatorIcEEEEbxydSA_NS0_14adl_serializerENS6_IhNSA_IhEEEEvEENS1_22iterator_input_adapterINS4_11__wrap_iterIPKcEEEEE5ungetEv.cold.1, symObjAddr: 0xFBD0, symBinAddr: 0x10024E87C, symSize: 0x28 }
  - { offsetInCU: 0x46F93, offset: 0x861EC, size: 0x8, addend: 0x0, symName: __ZN8nlohmann16json_abi_v3_11_26detail5lexerINS0_10basic_jsonINSt3__13mapENS4_6vectorENS4_12basic_stringIcNS4_11char_traitsIcEENS4_9allocatorIcEEEEbxydSA_NS0_14adl_serializerENS6_IhNSA_IhEEEEvEENS1_22iterator_input_adapterINS4_11__wrap_iterIPKcEEEEE13get_codepointEv.cold.1, symObjAddr: 0xFBF8, symBinAddr: 0x10024E8A4, symSize: 0x28 }
  - { offsetInCU: 0x46FAB, offset: 0x86204, size: 0x8, addend: 0x0, symName: __ZN8nlohmann16json_abi_v3_11_26detail5lexerINS0_10basic_jsonINSt3__13mapENS4_6vectorENS4_12basic_stringIcNS4_11char_traitsIcEENS4_9allocatorIcEEEEbxydSA_NS0_14adl_serializerENS6_IhNSA_IhEEEEvEENS1_22iterator_input_adapterINS4_11__wrap_iterIPKcEEEEE13get_codepointEv.cold.2, symObjAddr: 0xFC20, symBinAddr: 0x10024E8CC, symSize: 0x28 }
  - { offsetInCU: 0x46FC3, offset: 0x8621C, size: 0x8, addend: 0x0, symName: __ZN8nlohmann16json_abi_v3_11_26detail5lexerINS0_10basic_jsonINSt3__13mapENS4_6vectorENS4_12basic_stringIcNS4_11char_traitsIcEENS4_9allocatorIcEEEEbxydSA_NS0_14adl_serializerENS6_IhNSA_IhEEEEvEENS1_22iterator_input_adapterINS4_11__wrap_iterIPKcEEEEE18next_byte_in_rangeESt16initializer_listIiE.cold.1, symObjAddr: 0xFC48, symBinAddr: 0x10024E8F4, symSize: 0x28 }
  - { offsetInCU: 0x4731B, offset: 0x86574, size: 0x8, addend: 0x0, symName: __ZN8nlohmann16json_abi_v3_11_26detail28json_sax_dom_callback_parserINS0_10basic_jsonINSt3__13mapENS4_6vectorENS4_12basic_stringIcNS4_11char_traitsIcEENS4_9allocatorIcEEEEbxydSA_NS0_14adl_serializerENS6_IhNSA_IhEEEEvEEE12handle_valueIRbEENS4_4pairIbPSG_EEOT_b, symObjAddr: 0x969C, symBinAddr: 0x10000CEB4, symSize: 0x2B0 }
  - { offsetInCU: 0x47BED, offset: 0x86E46, size: 0x8, addend: 0x0, symName: __ZN8nlohmann16json_abi_v3_11_26detail28json_sax_dom_callback_parserINS0_10basic_jsonINSt3__13mapENS4_6vectorENS4_12basic_stringIcNS4_11char_traitsIcEENS4_9allocatorIcEEEEbxydSA_NS0_14adl_serializerENS6_IhNSA_IhEEEEvEEE12handle_valueIRxEENS4_4pairIbPSG_EEOT_b, symObjAddr: 0x9C44, symBinAddr: 0x10000D45C, symSize: 0x2B0 }
  - { offsetInCU: 0x484C2, offset: 0x8771B, size: 0x8, addend: 0x0, symName: __ZN8nlohmann16json_abi_v3_11_26detail28json_sax_dom_callback_parserINS0_10basic_jsonINSt3__13mapENS4_6vectorENS4_12basic_stringIcNS4_11char_traitsIcEENS4_9allocatorIcEEEEbxydSA_NS0_14adl_serializerENS6_IhNSA_IhEEEEvEEE12handle_valueIRSC_EENS4_4pairIbPSG_EEOT_b, symObjAddr: 0x9F34, symBinAddr: 0x10000D74C, symSize: 0x29C }
  - { offsetInCU: 0x48C90, offset: 0x87EE9, size: 0x8, addend: 0x0, symName: __ZN8nlohmann16json_abi_v3_11_26detail28json_sax_dom_callback_parserINS0_10basic_jsonINSt3__13mapENS4_6vectorENS4_12basic_stringIcNS4_11char_traitsIcEENS4_9allocatorIcEEEEbxydSA_NS0_14adl_serializerENS6_IhNSA_IhEEEEvEEE12start_objectEm, symObjAddr: 0x5F68, symBinAddr: 0x100009780, symSize: 0x23C }
  - { offsetInCU: 0x49432, offset: 0x8868B, size: 0x8, addend: 0x0, symName: __ZN8nlohmann16json_abi_v3_11_26detail28json_sax_dom_callback_parserINS0_10basic_jsonINSt3__13mapENS4_6vectorENS4_12basic_stringIcNS4_11char_traitsIcEENS4_9allocatorIcEEEEbxydSA_NS0_14adl_serializerENS6_IhNSA_IhEEEEvEEE10end_objectEv, symObjAddr: 0x61A4, symBinAddr: 0x1000099BC, symSize: 0x17C }
  - { offsetInCU: 0x49968, offset: 0x88BC1, size: 0x8, addend: 0x0, symName: __ZN8nlohmann16json_abi_v3_11_26detail28json_sax_dom_callback_parserINS0_10basic_jsonINSt3__13mapENS4_6vectorENS4_12basic_stringIcNS4_11char_traitsIcEENS4_9allocatorIcEEEEbxydSA_NS0_14adl_serializerENS6_IhNSA_IhEEEEvEEE3keyERSC_, symObjAddr: 0x6320, symBinAddr: 0x100009B38, symSize: 0x11C }
  - { offsetInCU: 0x49973, offset: 0x88BCC, size: 0x8, addend: 0x0, symName: __ZN8nlohmann16json_abi_v3_11_26detail28json_sax_dom_callback_parserINS0_10basic_jsonINSt3__13mapENS4_6vectorENS4_12basic_stringIcNS4_11char_traitsIcEENS4_9allocatorIcEEEEbxydSA_NS0_14adl_serializerENS6_IhNSA_IhEEEEvEEE12handle_valueIDnEENS4_4pairIbPSG_EEOT_b, symObjAddr: 0x9990, symBinAddr: 0x10000D1A8, symSize: 0x2B4 }
  - { offsetInCU: 0x4A23F, offset: 0x89498, size: 0x8, addend: 0x0, symName: __ZN8nlohmann16json_abi_v3_11_26detail28json_sax_dom_callback_parserINS0_10basic_jsonINSt3__13mapENS4_6vectorENS4_12basic_stringIcNS4_11char_traitsIcEENS4_9allocatorIcEEEEbxydSA_NS0_14adl_serializerENS6_IhNSA_IhEEEEvEEE12handle_valueIRyEENS4_4pairIbPSG_EEOT_b, symObjAddr: 0xA1D0, symBinAddr: 0x10000D9E8, symSize: 0x2B0 }
  - { offsetInCU: 0x4AB14, offset: 0x89D6D, size: 0x8, addend: 0x0, symName: __ZN8nlohmann16json_abi_v3_11_26detail28json_sax_dom_callback_parserINS0_10basic_jsonINSt3__13mapENS4_6vectorENS4_12basic_stringIcNS4_11char_traitsIcEENS4_9allocatorIcEEEEbxydSA_NS0_14adl_serializerENS6_IhNSA_IhEEEEvEEE11start_arrayEm, symObjAddr: 0x643C, symBinAddr: 0x100009C54, symSize: 0x23C }
  - { offsetInCU: 0x4B2B6, offset: 0x8A50F, size: 0x8, addend: 0x0, symName: __ZN8nlohmann16json_abi_v3_11_26detail28json_sax_dom_callback_parserINS0_10basic_jsonINSt3__13mapENS4_6vectorENS4_12basic_stringIcNS4_11char_traitsIcEENS4_9allocatorIcEEEEbxydSA_NS0_14adl_serializerENS6_IhNSA_IhEEEEvEEE9end_arrayEv, symObjAddr: 0x6678, symBinAddr: 0x100009E90, symSize: 0xEC }
  - { offsetInCU: 0x4B5B1, offset: 0x8A80A, size: 0x8, addend: 0x0, symName: __ZN8nlohmann16json_abi_v3_11_26detail28json_sax_dom_callback_parserINS0_10basic_jsonINSt3__13mapENS4_6vectorENS4_12basic_stringIcNS4_11char_traitsIcEENS4_9allocatorIcEEEEbxydSA_NS0_14adl_serializerENS6_IhNSA_IhEEEEvEEE11parse_errorINS1_12out_of_rangeEEEbmRKSC_RKT_, symObjAddr: 0x6764, symBinAddr: 0x100009F7C, symSize: 0x54 }
  - { offsetInCU: 0x4B5BC, offset: 0x8A815, size: 0x8, addend: 0x0, symName: __ZN8nlohmann16json_abi_v3_11_26detail28json_sax_dom_callback_parserINS0_10basic_jsonINSt3__13mapENS4_6vectorENS4_12basic_stringIcNS4_11char_traitsIcEENS4_9allocatorIcEEEEbxydSA_NS0_14adl_serializerENS6_IhNSA_IhEEEEvEEE12handle_valueIRdEENS4_4pairIbPSG_EEOT_b, symObjAddr: 0x93A4, symBinAddr: 0x10000CBBC, symSize: 0x2B0 }
  - { offsetInCU: 0x4BE8E, offset: 0x8B0E7, size: 0x8, addend: 0x0, symName: __ZN8nlohmann16json_abi_v3_11_26detail28json_sax_dom_callback_parserINS0_10basic_jsonINSt3__13mapENS4_6vectorENS4_12basic_stringIcNS4_11char_traitsIcEENS4_9allocatorIcEEEEbxydSA_NS0_14adl_serializerENS6_IhNSA_IhEEEEvEEE3keyERSC_, symObjAddr: 0x6320, symBinAddr: 0x100009B38, symSize: 0x11C }
  - { offsetInCU: 0x4C292, offset: 0x8B4EB, size: 0x8, addend: 0x0, symName: __ZNSt3__16vectorIbNS_9allocatorIbEEE9push_backERKb, symObjAddr: 0x5B74, symBinAddr: 0x10000938C, symSize: 0xA4 }
  - { offsetInCU: 0x4C377, offset: 0x8B5D0, size: 0x8, addend: 0x0, symName: __ZNSt3__16vectorIbNS_9allocatorIbEEE7reserveEm, symObjAddr: 0x5C18, symBinAddr: 0x100009430, symSize: 0xC0 }
  - { offsetInCU: 0x4C388, offset: 0x8B5E1, size: 0x8, addend: 0x0, symName: __ZN8nlohmann16json_abi_v3_11_26detail12out_of_range6createIDnLi0EEES2_iRKNSt3__112basic_stringIcNS4_11char_traitsIcEENS4_9allocatorIcEEEET_, symObjAddr: 0x67B8, symBinAddr: 0x100009FD0, symSize: 0x144 }
  - { offsetInCU: 0x4CE30, offset: 0x8C089, size: 0x8, addend: 0x0, symName: __ZN8nlohmann16json_abi_v3_11_26detail28json_sax_dom_callback_parserINS0_10basic_jsonINSt3__13mapENS4_6vectorENS4_12basic_stringIcNS4_11char_traitsIcEENS4_9allocatorIcEEEEbxydSA_NS0_14adl_serializerENS6_IhNSA_IhEEEEvEEE11parse_errorINS1_12out_of_rangeEEEbmRKSC_RKT_, symObjAddr: 0x6764, symBinAddr: 0x100009F7C, symSize: 0x54 }
  - { offsetInCU: 0x4CE9E, offset: 0x8C0F7, size: 0x8, addend: 0x0, symName: __ZN8nlohmann16json_abi_v3_11_26detail11parse_errorC1ERKS2_, symObjAddr: 0xA4C0, symBinAddr: 0x10000DCD8, symSize: 0x58 }
  - { offsetInCU: 0x4D001, offset: 0x8C25A, size: 0x8, addend: 0x0, symName: __ZN8nlohmann16json_abi_v3_11_26detail9exception4nameERKNSt3__112basic_stringIcNS3_11char_traitsIcEENS3_9allocatorIcEEEEi, symObjAddr: 0x7474, symBinAddr: 0x10000AC8C, symSize: 0x8C }
  - { offsetInCU: 0x4D2D1, offset: 0x8C52A, size: 0x8, addend: 0x0, symName: __ZN8nlohmann16json_abi_v3_11_26detail11parse_error15position_stringERKNS1_10position_tE, symObjAddr: 0xA6F4, symBinAddr: 0x10000DF0C, symSize: 0xB8 }
  - { offsetInCU: 0x4D814, offset: 0x8CA6D, size: 0x8, addend: 0x0, symName: __ZN8nlohmann16json_abi_v3_11_26detail9exceptionC2EiPKc, symObjAddr: 0x7640, symBinAddr: 0x10000AE58, symSize: 0x50 }
  - { offsetInCU: 0x4D90A, offset: 0x8CB63, size: 0x8, addend: 0x0, symName: __ZN8nlohmann16json_abi_v3_11_26detail10lexer_baseINS0_10basic_jsonINSt3__13mapENS4_6vectorENS4_12basic_stringIcNS4_11char_traitsIcEENS4_9allocatorIcEEEEbxydSA_NS0_14adl_serializerENS6_IhNSA_IhEEEEvEEE15token_type_nameENSH_10token_typeE, symObjAddr: 0xA9CC, symBinAddr: 0x10000E1E4, symSize: 0x24 }
  - { offsetInCU: 0x4D92F, offset: 0x8CB88, size: 0x8, addend: 0x0, symName: __ZN8nlohmann16json_abi_v3_11_26detail11parse_errorD1Ev, symObjAddr: 0x4E58, symBinAddr: 0x100008670, symSize: 0x30 }
  - { offsetInCU: 0x4DA5D, offset: 0x8CCB6, size: 0x8, addend: 0x0, symName: __ZN8nlohmann16json_abi_v3_11_26detail19json_sax_dom_parserINS0_10basic_jsonINSt3__13mapENS4_6vectorENS4_12basic_stringIcNS4_11char_traitsIcEENS4_9allocatorIcEEEEbxydSA_NS0_14adl_serializerENS6_IhNSA_IhEEEEvEEE12handle_valueIRbEEPSG_OT_, symObjAddr: 0xB528, symBinAddr: 0x10000ED40, symSize: 0x13C }
  - { offsetInCU: 0x4E0E8, offset: 0x8D341, size: 0x8, addend: 0x0, symName: __ZNSt3__16vectorIN8nlohmann16json_abi_v3_11_210basic_jsonINS_3mapES0_NS_12basic_stringIcNS_11char_traitsIcEENS_9allocatorIcEEEEbxydS8_NS2_14adl_serializerENS0_IhNS8_IhEEEEvEENS8_ISE_EEE24__emplace_back_slow_pathIJRbEEEvDpOT_, symObjAddr: 0xB664, symBinAddr: 0x10000EE7C, symSize: 0xE8 }
  - { offsetInCU: 0x4E0FC, offset: 0x8D355, size: 0x8, addend: 0x0, symName: __ZN8nlohmann16json_abi_v3_11_26detail19json_sax_dom_parserINS0_10basic_jsonINSt3__13mapENS4_6vectorENS4_12basic_stringIcNS4_11char_traitsIcEENS4_9allocatorIcEEEEbxydSA_NS0_14adl_serializerENS6_IhNSA_IhEEEEvEEE12handle_valueIRxEEPSG_OT_, symObjAddr: 0xB978, symBinAddr: 0x10000F190, symSize: 0x13C }
  - { offsetInCU: 0x4E79F, offset: 0x8D9F8, size: 0x8, addend: 0x0, symName: __ZNSt3__16vectorIN8nlohmann16json_abi_v3_11_210basic_jsonINS_3mapES0_NS_12basic_stringIcNS_11char_traitsIcEENS_9allocatorIcEEEEbxydS8_NS2_14adl_serializerENS0_IhNS8_IhEEEEvEENS8_ISE_EEE24__emplace_back_slow_pathIJRxEEEvDpOT_, symObjAddr: 0xBAB4, symBinAddr: 0x10000F2CC, symSize: 0xE8 }
  - { offsetInCU: 0x4E7B3, offset: 0x8DA0C, size: 0x8, addend: 0x0, symName: __ZN8nlohmann16json_abi_v3_11_26detail19json_sax_dom_parserINS0_10basic_jsonINSt3__13mapENS4_6vectorENS4_12basic_stringIcNS4_11char_traitsIcEENS4_9allocatorIcEEEEbxydSA_NS0_14adl_serializerENS6_IhNSA_IhEEEEvEEE12handle_valueIRSC_EEPSG_OT_, symObjAddr: 0xBB9C, symBinAddr: 0x10000F3B4, symSize: 0xD4 }
  - { offsetInCU: 0x4EA3A, offset: 0x8DC93, size: 0x8, addend: 0x0, symName: __ZNSt3__16vectorIN8nlohmann16json_abi_v3_11_210basic_jsonINS_3mapES0_NS_12basic_stringIcNS_11char_traitsIcEENS_9allocatorIcEEEEbxydS8_NS2_14adl_serializerENS0_IhNS8_IhEEEEvEENS8_ISE_EEE12emplace_backIJRSA_EEERSE_DpOT_, symObjAddr: 0xBC70, symBinAddr: 0x10000F488, symSize: 0x10C }
  - { offsetInCU: 0x4EA4E, offset: 0x8DCA7, size: 0x8, addend: 0x0, symName: __ZN8nlohmann16json_abi_v3_11_26detail19json_sax_dom_parserINS0_10basic_jsonINSt3__13mapENS4_6vectorENS4_12basic_stringIcNS4_11char_traitsIcEENS4_9allocatorIcEEEEbxydSA_NS0_14adl_serializerENS6_IhNSA_IhEEEEvEEE12start_objectEm, symObjAddr: 0xAB74, symBinAddr: 0x10000E38C, symSize: 0x204 }
  - { offsetInCU: 0x4F194, offset: 0x8E3ED, size: 0x8, addend: 0x0, symName: __ZN8nlohmann16json_abi_v3_11_26detail19json_sax_dom_parserINS0_10basic_jsonINSt3__13mapENS4_6vectorENS4_12basic_stringIcNS4_11char_traitsIcEENS4_9allocatorIcEEEEbxydSA_NS0_14adl_serializerENS6_IhNSA_IhEEEEvEEE10end_objectEv, symObjAddr: 0xAD78, symBinAddr: 0x10000E590, symSize: 0x3C }
  - { offsetInCU: 0x4F267, offset: 0x8E4C0, size: 0x8, addend: 0x0, symName: __ZN8nlohmann16json_abi_v3_11_26detail19json_sax_dom_parserINS0_10basic_jsonINSt3__13mapENS4_6vectorENS4_12basic_stringIcNS4_11char_traitsIcEENS4_9allocatorIcEEEEbxydSA_NS0_14adl_serializerENS6_IhNSA_IhEEEEvEEE3keyERSC_, symObjAddr: 0xADB4, symBinAddr: 0x10000E5CC, symSize: 0x70 }
  - { offsetInCU: 0x4F272, offset: 0x8E4CB, size: 0x8, addend: 0x0, symName: __ZN8nlohmann16json_abi_v3_11_26detail19json_sax_dom_parserINS0_10basic_jsonINSt3__13mapENS4_6vectorENS4_12basic_stringIcNS4_11char_traitsIcEENS4_9allocatorIcEEEEbxydSA_NS0_14adl_serializerENS6_IhNSA_IhEEEEvEEE12handle_valueIDnEEPSG_OT_, symObjAddr: 0xB74C, symBinAddr: 0x10000EF64, symSize: 0x148 }
  - { offsetInCU: 0x4F8E9, offset: 0x8EB42, size: 0x8, addend: 0x0, symName: __ZNSt3__16vectorIN8nlohmann16json_abi_v3_11_210basic_jsonINS_3mapES0_NS_12basic_stringIcNS_11char_traitsIcEENS_9allocatorIcEEEEbxydS8_NS2_14adl_serializerENS0_IhNS8_IhEEEEvEENS8_ISE_EEE24__emplace_back_slow_pathIJDnEEEvDpOT_, symObjAddr: 0xB894, symBinAddr: 0x10000F0AC, symSize: 0xE4 }
  - { offsetInCU: 0x4F8FD, offset: 0x8EB56, size: 0x8, addend: 0x0, symName: __ZN8nlohmann16json_abi_v3_11_26detail19json_sax_dom_parserINS0_10basic_jsonINSt3__13mapENS4_6vectorENS4_12basic_stringIcNS4_11char_traitsIcEENS4_9allocatorIcEEEEbxydSA_NS0_14adl_serializerENS6_IhNSA_IhEEEEvEEE12handle_valueIRyEEPSG_OT_, symObjAddr: 0xBD7C, symBinAddr: 0x10000F594, symSize: 0x13C }
  - { offsetInCU: 0x4FFA0, offset: 0x8F1F9, size: 0x8, addend: 0x0, symName: __ZNSt3__16vectorIN8nlohmann16json_abi_v3_11_210basic_jsonINS_3mapES0_NS_12basic_stringIcNS_11char_traitsIcEENS_9allocatorIcEEEEbxydS8_NS2_14adl_serializerENS0_IhNS8_IhEEEEvEENS8_ISE_EEE24__emplace_back_slow_pathIJRyEEEvDpOT_, symObjAddr: 0xBEB8, symBinAddr: 0x10000F6D0, symSize: 0xE8 }
  - { offsetInCU: 0x4FFB4, offset: 0x8F20D, size: 0x8, addend: 0x0, symName: __ZN8nlohmann16json_abi_v3_11_26detail19json_sax_dom_parserINS0_10basic_jsonINSt3__13mapENS4_6vectorENS4_12basic_stringIcNS4_11char_traitsIcEENS4_9allocatorIcEEEEbxydSA_NS0_14adl_serializerENS6_IhNSA_IhEEEEvEEE11start_arrayEm, symObjAddr: 0xAE24, symBinAddr: 0x10000E63C, symSize: 0x204 }
  - { offsetInCU: 0x506FA, offset: 0x8F953, size: 0x8, addend: 0x0, symName: __ZN8nlohmann16json_abi_v3_11_26detail19json_sax_dom_parserINS0_10basic_jsonINSt3__13mapENS4_6vectorENS4_12basic_stringIcNS4_11char_traitsIcEENS4_9allocatorIcEEEEbxydSA_NS0_14adl_serializerENS6_IhNSA_IhEEEEvEEE9end_arrayEv, symObjAddr: 0xB028, symBinAddr: 0x10000E840, symSize: 0x3C }
  - { offsetInCU: 0x507CD, offset: 0x8FA26, size: 0x8, addend: 0x0, symName: __ZN8nlohmann16json_abi_v3_11_26detail19json_sax_dom_parserINS0_10basic_jsonINSt3__13mapENS4_6vectorENS4_12basic_stringIcNS4_11char_traitsIcEENS4_9allocatorIcEEEEbxydSA_NS0_14adl_serializerENS6_IhNSA_IhEEEEvEEE11parse_errorINS1_12out_of_rangeEEEbmRKSC_RKT_, symObjAddr: 0xB064, symBinAddr: 0x10000E87C, symSize: 0x54 }
  - { offsetInCU: 0x507D8, offset: 0x8FA31, size: 0x8, addend: 0x0, symName: __ZN8nlohmann16json_abi_v3_11_26detail19json_sax_dom_parserINS0_10basic_jsonINSt3__13mapENS4_6vectorENS4_12basic_stringIcNS4_11char_traitsIcEENS4_9allocatorIcEEEEbxydSA_NS0_14adl_serializerENS6_IhNSA_IhEEEEvEEE12handle_valueIRdEEPSG_OT_, symObjAddr: 0xB304, symBinAddr: 0x10000EB1C, symSize: 0x13C }
  - { offsetInCU: 0x50E72, offset: 0x900CB, size: 0x8, addend: 0x0, symName: __ZNSt3__16vectorIN8nlohmann16json_abi_v3_11_210basic_jsonINS_3mapES0_NS_12basic_stringIcNS_11char_traitsIcEENS_9allocatorIcEEEEbxydS8_NS2_14adl_serializerENS0_IhNS8_IhEEEEvEENS8_ISE_EEE24__emplace_back_slow_pathIJRdEEEvDpOT_, symObjAddr: 0xB440, symBinAddr: 0x10000EC58, symSize: 0xE8 }
  - { offsetInCU: 0x50E86, offset: 0x900DF, size: 0x8, addend: 0x0, symName: __ZN8nlohmann16json_abi_v3_11_26detail19json_sax_dom_parserINS0_10basic_jsonINSt3__13mapENS4_6vectorENS4_12basic_stringIcNS4_11char_traitsIcEENS4_9allocatorIcEEEEbxydSA_NS0_14adl_serializerENS6_IhNSA_IhEEEEvEEE3keyERSC_, symObjAddr: 0xADB4, symBinAddr: 0x10000E5CC, symSize: 0x70 }
  - { offsetInCU: 0x50F53, offset: 0x901AC, size: 0x8, addend: 0x0, symName: __ZN8nlohmann16json_abi_v3_11_26detail19json_sax_dom_parserINS0_10basic_jsonINSt3__13mapENS4_6vectorENS4_12basic_stringIcNS4_11char_traitsIcEENS4_9allocatorIcEEEEbxydSA_NS0_14adl_serializerENS6_IhNSA_IhEEEEvEEE11start_arrayEm, symObjAddr: 0xAE24, symBinAddr: 0x10000E63C, symSize: 0x204 }
  - { offsetInCU: 0x50F5E, offset: 0x901B7, size: 0x8, addend: 0x0, symName: __ZN8nlohmann16json_abi_v3_11_26detail19json_sax_dom_parserINS0_10basic_jsonINSt3__13mapENS4_6vectorENS4_12basic_stringIcNS4_11char_traitsIcEENS4_9allocatorIcEEEEbxydSA_NS0_14adl_serializerENS6_IhNSA_IhEEEEvEEE11parse_errorINS1_12out_of_rangeEEEbmRKSC_RKT_, symObjAddr: 0xB064, symBinAddr: 0x10000E87C, symSize: 0x54 }
  - { offsetInCU: 0x51042, offset: 0x9029B, size: 0x8, addend: 0x0, symName: __ZNSt3__16vectorIbNS_9allocatorIbEEE7reserveEm, symObjAddr: 0x5C18, symBinAddr: 0x100009430, symSize: 0xC0 }
  - { offsetInCU: 0x51529, offset: 0x90782, size: 0x8, addend: 0x0, symName: __ZNKSt3__16vectorIbNS_9allocatorIbEEE20__throw_length_errorB8ue170006Ev, symObjAddr: 0x5CD8, symBinAddr: 0x1000094F0, symSize: 0x14 }
  - { offsetInCU: 0x51553, offset: 0x907AC, size: 0x8, addend: 0x0, symName: __ZNSt3__16vectorIbNS_9allocatorIbEEE11__vallocateB8ue170006Em, symObjAddr: 0x5CEC, symBinAddr: 0x100009504, symSize: 0x44 }
  - { offsetInCU: 0x516A4, offset: 0x908FD, size: 0x8, addend: 0x0, symName: __ZNSt3__16vectorIbNS_9allocatorIbEEE11__vallocateB8ue170006Em, symObjAddr: 0x5CEC, symBinAddr: 0x100009504, symSize: 0x44 }
  - { offsetInCU: 0x51741, offset: 0x9099A, size: 0x8, addend: 0x0, symName: __ZNSt3__16vectorIbNS_9allocatorIbEEE18__construct_at_endINS_14__bit_iteratorIS3_Lb0ELm0EEES6_EEvT_T0_m, symObjAddr: 0x5D30, symBinAddr: 0x100009548, symSize: 0xA4 }
  - { offsetInCU: 0x51752, offset: 0x909AB, size: 0x8, addend: 0x0, symName: __ZNSt3__16vectorIbNS_9allocatorIbEEE18__construct_at_endINS_14__bit_iteratorIS3_Lb0ELm0EEES6_EEvT_T0_m, symObjAddr: 0x5D30, symBinAddr: 0x100009548, symSize: 0xA4 }
  - { offsetInCU: 0x51AEE, offset: 0x90D47, size: 0x8, addend: 0x0, symName: __ZNKSt3__111__copy_loopINS_17_ClassicAlgPolicyEEclB8ue170006INS_14__bit_iteratorINS_6vectorIbNS_9allocatorIbEEEELb0ELm0EEES9_S9_EENS_4pairIT_T1_EESB_T0_SC_, symObjAddr: 0x5E94, symBinAddr: 0x1000096AC, symSize: 0xD4 }
  - { offsetInCU: 0x5208E, offset: 0x912E7, size: 0x8, addend: 0x0, symName: __ZNKSt3__18functionIFbiN8nlohmann16json_abi_v3_11_26detail13parse_event_tERNS2_10basic_jsonINS_3mapENS_6vectorENS_12basic_stringIcNS_11char_traitsIcEENS_9allocatorIcEEEEbxydSB_NS2_14adl_serializerENS7_IhNSB_IhEEEEvEEEEclEiS4_SI_, symObjAddr: 0x69EC, symBinAddr: 0x10000A204, symSize: 0x40 }
  - { offsetInCU: 0x52130, offset: 0x91389, size: 0x8, addend: 0x0, symName: __ZN8nlohmann16json_abi_v3_11_26detail28json_sax_dom_callback_parserINS0_10basic_jsonINSt3__13mapENS4_6vectorENS4_12basic_stringIcNS4_11char_traitsIcEENS4_9allocatorIcEEEEbxydSA_NS0_14adl_serializerENS6_IhNSA_IhEEEEvEEE12handle_valueINS1_7value_tEEENS4_4pairIbPSG_EEOT_b, symObjAddr: 0x6A2C, symBinAddr: 0x10000A244, symSize: 0x2B4 }
  - { offsetInCU: 0x52140, offset: 0x91399, size: 0x8, addend: 0x0, symName: __ZN8nlohmann16json_abi_v3_11_26detail28json_sax_dom_callback_parserINS0_10basic_jsonINSt3__13mapENS4_6vectorENS4_12basic_stringIcNS4_11char_traitsIcEENS4_9allocatorIcEEEEbxydSA_NS0_14adl_serializerENS6_IhNSA_IhEEEEvEEE12handle_valueINS1_7value_tEEENS4_4pairIbPSG_EEOT_b, symObjAddr: 0x6A2C, symBinAddr: 0x10000A244, symSize: 0x2B4 }
  - { offsetInCU: 0x529A3, offset: 0x91BFC, size: 0x8, addend: 0x0, symName: __ZN8nlohmann16json_abi_v3_11_26detail12out_of_range6createIPNS0_10basic_jsonINSt3__13mapENS5_6vectorENS5_12basic_stringIcNS5_11char_traitsIcEENS5_9allocatorIcEEEEbxydSB_NS0_14adl_serializerENS7_IhNSB_IhEEEEvEELi0EEES2_iRKSD_T_, symObjAddr: 0x6CE0, symBinAddr: 0x10000A4F8, symSize: 0x144 }
  - { offsetInCU: 0x5343A, offset: 0x92693, size: 0x8, addend: 0x0, symName: __ZNKSt3__16vectorIPN8nlohmann16json_abi_v3_11_210basic_jsonINS_3mapES0_NS_12basic_stringIcNS_11char_traitsIcEENS_9allocatorIcEEEEbxydS8_NS2_14adl_serializerENS0_IhNS8_IhEEEEvEENS8_ISF_EEE20__throw_length_errorB8ue170006Ev, symObjAddr: 0x732C, symBinAddr: 0x10000AB44, symSize: 0x14 }
  - { offsetInCU: 0x53464, offset: 0x926BD, size: 0x8, addend: 0x0, symName: __ZNSt3__119__allocate_at_leastB8ue170006INS_9allocatorIPN8nlohmann16json_abi_v3_11_210basic_jsonINS_3mapENS_6vectorENS_12basic_stringIcNS_11char_traitsIcEENS1_IcEEEEbxydS1_NS3_14adl_serializerENS6_IhNS1_IhEEEEvEEEEEENS_19__allocation_resultINS_16allocator_traitsIT_E7pointerEEERSK_m, symObjAddr: 0x7340, symBinAddr: 0x10000AB58, symSize: 0x34 }
  - { offsetInCU: 0x53543, offset: 0x9279C, size: 0x8, addend: 0x0, symName: __ZNK8nlohmann16json_abi_v3_11_26detail9iter_implINS0_10basic_jsonINSt3__13mapENS4_6vectorENS4_12basic_stringIcNS4_11char_traitsIcEENS4_9allocatorIcEEEEbxydSA_NS0_14adl_serializerENS6_IhNSA_IhEEEEvEEEptEv, symObjAddr: 0x7730, symBinAddr: 0x10000AF48, symSize: 0x11C }
  - { offsetInCU: 0x5388E, offset: 0x92AE7, size: 0x8, addend: 0x0, symName: __ZN8nlohmann16json_abi_v3_11_210basic_jsonINSt3__13mapENS2_6vectorENS2_12basic_stringIcNS2_11char_traitsIcEENS2_9allocatorIcEEEEbxydS8_NS0_14adl_serializerENS4_IhNS8_IhEEEEvE5eraseINS0_6detail9iter_implISE_EELi0EEET_SJ_, symObjAddr: 0x784C, symBinAddr: 0x10000B064, symSize: 0x288 }
  - { offsetInCU: 0x540E4, offset: 0x9333D, size: 0x8, addend: 0x0, symName: __ZN8nlohmann16json_abi_v3_11_26detail28json_sax_dom_callback_parserINS0_10basic_jsonINSt3__13mapENS4_6vectorENS4_12basic_stringIcNS4_11char_traitsIcEENS4_9allocatorIcEEEEbxydSA_NS0_14adl_serializerENS6_IhNSA_IhEEEEvEEE10end_objectEv.cold.1, symObjAddr: 0xFC70, symBinAddr: 0x10024E91C, symSize: 0x28 }
  - { offsetInCU: 0x540FC, offset: 0x93355, size: 0x8, addend: 0x0, symName: __ZN8nlohmann16json_abi_v3_11_26detail28json_sax_dom_callback_parserINS0_10basic_jsonINSt3__13mapENS4_6vectorENS4_12basic_stringIcNS4_11char_traitsIcEENS4_9allocatorIcEEEEbxydSA_NS0_14adl_serializerENS6_IhNSA_IhEEEEvEEE10end_objectEv.cold.2, symObjAddr: 0xFC98, symBinAddr: 0x10024E944, symSize: 0x28 }
  - { offsetInCU: 0x54176, offset: 0x933CF, size: 0x8, addend: 0x0, symName: __ZN8nlohmann16json_abi_v3_11_210basic_jsonINSt3__13mapENS2_6vectorENS2_12basic_stringIcNS2_11char_traitsIcEENS2_9allocatorIcEEEEbxydS8_NS0_14adl_serializerENS4_IhNS8_IhEEEEvEC2IRSA_SA_Li0EEEOT_, symObjAddr: 0x8700, symBinAddr: 0x10000BF18, symSize: 0x48 }
  - { offsetInCU: 0x542E4, offset: 0x9353D, size: 0x8, addend: 0x0, symName: __ZNSt3__16__treeINS_12__value_typeINS_12basic_stringIcNS_11char_traitsIcEENS_9allocatorIcEEEEN8nlohmann16json_abi_v3_11_210basic_jsonINS_3mapENS_6vectorES7_bxydS5_NS9_14adl_serializerENSC_IhNS5_IhEEEEvEEEENS_19__map_value_compareIS7_SH_NS_4lessIvEELb1EEENS5_ISH_EEE25__emplace_unique_key_argsIS7_JRKNS_21piecewise_construct_tENS_5tupleIJRKS7_EEENSS_IJEEEEEENS_4pairINS_15__tree_iteratorISH_PNS_11__tree_nodeISH_PvEElEEbEERKT_DpOT0_, symObjAddr: 0x8E68, symBinAddr: 0x10000C680, symSize: 0x94 }
  - { offsetInCU: 0x544C4, offset: 0x9371D, size: 0x8, addend: 0x0, symName: __ZNSt3__16vectorIN8nlohmann16json_abi_v3_11_210basic_jsonINS_3mapES0_NS_12basic_stringIcNS_11char_traitsIcEENS_9allocatorIcEEEEbxydS8_NS2_14adl_serializerENS0_IhNS8_IhEEEEvEENS8_ISE_EEE22__base_destruct_at_endB8ue170006EPSE_, symObjAddr: 0x85D4, symBinAddr: 0x10000BDEC, symSize: 0x58 }
  - { offsetInCU: 0x545EA, offset: 0x93843, size: 0x8, addend: 0x0, symName: __ZN8nlohmann16json_abi_v3_11_26detail28json_sax_dom_callback_parserINS0_10basic_jsonINSt3__13mapENS4_6vectorENS4_12basic_stringIcNS4_11char_traitsIcEENS4_9allocatorIcEEEEbxydSA_NS0_14adl_serializerENS6_IhNSA_IhEEEEvEEE9end_arrayEv.cold.1, symObjAddr: 0xFCC0, symBinAddr: 0x10024E96C, symSize: 0x28 }
  - { offsetInCU: 0x54602, offset: 0x9385B, size: 0x8, addend: 0x0, symName: __ZN8nlohmann16json_abi_v3_11_26detail28json_sax_dom_callback_parserINS0_10basic_jsonINSt3__13mapENS4_6vectorENS4_12basic_stringIcNS4_11char_traitsIcEENS4_9allocatorIcEEEEbxydSA_NS0_14adl_serializerENS6_IhNSA_IhEEEEvEEE9end_arrayEv.cold.2, symObjAddr: 0xFCE8, symBinAddr: 0x10024E994, symSize: 0x28 }
  - { offsetInCU: 0x5461A, offset: 0x93873, size: 0x8, addend: 0x0, symName: __ZN8nlohmann16json_abi_v3_11_26detail12out_of_rangeC1ERKS2_, symObjAddr: 0x9358, symBinAddr: 0x10000CB70, symSize: 0x4C }
  - { offsetInCU: 0x5471E, offset: 0x93977, size: 0x8, addend: 0x0, symName: __ZN8nlohmann16json_abi_v3_11_26detail12out_of_rangeD1Ev, symObjAddr: 0x69BC, symBinAddr: 0x10000A1D4, symSize: 0x30 }
  - { offsetInCU: 0x549B4, offset: 0x93C0D, size: 0x8, addend: 0x0, symName: __ZN8nlohmann16json_abi_v3_11_210basic_jsonINSt3__13mapENS2_6vectorENS2_12basic_stringIcNS2_11char_traitsIcEENS2_9allocatorIcEEEEbxydS8_NS0_14adl_serializerENS4_IhNS8_IhEEEEvE10json_valueC2ENS0_6detail7value_tE, symObjAddr: 0xA9F0, symBinAddr: 0x10000E208, symSize: 0xAC }
  - { offsetInCU: 0x54DDC, offset: 0x94035, size: 0x8, addend: 0x0, symName: __ZNSt3__16vectorIN8nlohmann16json_abi_v3_11_210basic_jsonINS_3mapES0_NS_12basic_stringIcNS_11char_traitsIcEENS_9allocatorIcEEEEbxydS8_NS2_14adl_serializerENS0_IhNS8_IhEEEEvEENS8_ISE_EEE24__emplace_back_slow_pathIJSE_EEEvDpOT_, symObjAddr: 0x6F1C, symBinAddr: 0x10000A734, symSize: 0xF4 }
  - { offsetInCU: 0x55131, offset: 0x9438A, size: 0x8, addend: 0x0, symName: __ZN8nlohmann16json_abi_v3_11_26detail28json_sax_dom_callback_parserINS0_10basic_jsonINSt3__13mapENS4_6vectorENS4_12basic_stringIcNS4_11char_traitsIcEENS4_9allocatorIcEEEEbxydSA_NS0_14adl_serializerENS6_IhNSA_IhEEEEvEEE12handle_valueINS1_7value_tEEENS4_4pairIbPSG_EEOT_b.cold.1, symObjAddr: 0xFD10, symBinAddr: 0x10024E9BC, symSize: 0x24 }
  - { offsetInCU: 0x551D8, offset: 0x94431, size: 0x8, addend: 0x0, symName: __ZNSt3__117bad_function_callD1Ev, symObjAddr: 0x6F04, symBinAddr: 0x10000A71C, symSize: 0x4 }
  - { offsetInCU: 0x551FB, offset: 0x94454, size: 0x8, addend: 0x0, symName: __ZNSt3__117bad_function_callD1Ev, symObjAddr: 0x6F04, symBinAddr: 0x10000A71C, symSize: 0x4 }
  - { offsetInCU: 0x55231, offset: 0x9448A, size: 0x8, addend: 0x0, symName: __ZNSt3__117bad_function_callD0Ev, symObjAddr: 0x6F08, symBinAddr: 0x10000A720, symSize: 0x14 }
  - { offsetInCU: 0x5544A, offset: 0x946A3, size: 0x8, addend: 0x0, symName: __ZNSt3__114__split_bufferIN8nlohmann16json_abi_v3_11_210basic_jsonINS_3mapENS_6vectorENS_12basic_stringIcNS_11char_traitsIcEENS_9allocatorIcEEEEbxydS9_NS2_14adl_serializerENS5_IhNS9_IhEEEEvEERNS9_ISF_EEED2Ev, symObjAddr: 0x729C, symBinAddr: 0x10000AAB4, symSize: 0x34 }
  - { offsetInCU: 0x55564, offset: 0x947BD, size: 0x8, addend: 0x0, symName: __ZNKSt3__16vectorIN8nlohmann16json_abi_v3_11_210basic_jsonINS_3mapES0_NS_12basic_stringIcNS_11char_traitsIcEENS_9allocatorIcEEEEbxydS8_NS2_14adl_serializerENS0_IhNS8_IhEEEEvEENS8_ISE_EEE20__throw_length_errorB8ue170006Ev, symObjAddr: 0x7084, symBinAddr: 0x10000A89C, symSize: 0x14 }
  - { offsetInCU: 0x5558E, offset: 0x947E7, size: 0x8, addend: 0x0, symName: __ZNSt3__119__allocate_at_leastB8ue170006INS_9allocatorIN8nlohmann16json_abi_v3_11_210basic_jsonINS_3mapENS_6vectorENS_12basic_stringIcNS_11char_traitsIcEENS1_IcEEEEbxydS1_NS3_14adl_serializerENS6_IhNS1_IhEEEEvEEEEEENS_19__allocation_resultINS_16allocator_traitsIT_E7pointerEEERSJ_m, symObjAddr: 0x7098, symBinAddr: 0x10000A8B0, symSize: 0x34 }
  - { offsetInCU: 0x55658, offset: 0x948B1, size: 0x8, addend: 0x0, symName: __ZNSt3__128__exception_guard_exceptionsINS_29_AllocatorDestroyRangeReverseINS_9allocatorIN8nlohmann16json_abi_v3_11_210basic_jsonINS_3mapENS_6vectorENS_12basic_stringIcNS_11char_traitsIcEENS2_IcEEEEbxydS2_NS4_14adl_serializerENS7_IhNS2_IhEEEEvEEEENS_16reverse_iteratorIPSG_EEEEED2B8ue170006Ev, symObjAddr: 0x7190, symBinAddr: 0x10000A9A8, symSize: 0x34 }
  - { offsetInCU: 0x55697, offset: 0x948F0, size: 0x8, addend: 0x0, symName: __ZNKSt3__129_AllocatorDestroyRangeReverseINS_9allocatorIN8nlohmann16json_abi_v3_11_210basic_jsonINS_3mapENS_6vectorENS_12basic_stringIcNS_11char_traitsIcEENS1_IcEEEEbxydS1_NS3_14adl_serializerENS6_IhNS1_IhEEEEvEEEENS_16reverse_iteratorIPSF_EEEclB8ue170006Ev, symObjAddr: 0x71C4, symBinAddr: 0x10000A9DC, symSize: 0x74 }
  - { offsetInCU: 0x558A1, offset: 0x94AFA, size: 0x8, addend: 0x0, symName: __ZNSt3__114__split_bufferIN8nlohmann16json_abi_v3_11_210basic_jsonINS_3mapENS_6vectorENS_12basic_stringIcNS_11char_traitsIcEENS_9allocatorIcEEEEbxydS9_NS2_14adl_serializerENS5_IhNS9_IhEEEEvEERNS9_ISF_EEE17__destruct_at_endB8ue170006EPSF_, symObjAddr: 0x72D0, symBinAddr: 0x10000AAE8, symSize: 0x5C }
  - { offsetInCU: 0x55A5F, offset: 0x94CB8, size: 0x8, addend: 0x0, symName: __ZN8nlohmann16json_abi_v3_11_26detail12out_of_rangeD0Ev, symObjAddr: 0x7690, symBinAddr: 0x10000AEA8, symSize: 0x34 }
  - { offsetInCU: 0x55AEA, offset: 0x94D43, size: 0x8, addend: 0x0, symName: __ZNK8nlohmann16json_abi_v3_11_26detail9exception4whatEv, symObjAddr: 0x76C4, symBinAddr: 0x10000AEDC, symSize: 0x8 }
  - { offsetInCU: 0x55B11, offset: 0x94D6A, size: 0x8, addend: 0x0, symName: __ZN8nlohmann16json_abi_v3_11_26detail9exceptionD1Ev, symObjAddr: 0x76CC, symBinAddr: 0x10000AEE4, symSize: 0x30 }
  - { offsetInCU: 0x55B72, offset: 0x94DCB, size: 0x8, addend: 0x0, symName: __ZN8nlohmann16json_abi_v3_11_26detail9exceptionD0Ev, symObjAddr: 0x76FC, symBinAddr: 0x10000AF14, symSize: 0x34 }
  - { offsetInCU: 0x55C82, offset: 0x94EDB, size: 0x8, addend: 0x0, symName: __ZNK8nlohmann16json_abi_v3_11_26detail9iter_implINS0_10basic_jsonINSt3__13mapENS4_6vectorENS4_12basic_stringIcNS4_11char_traitsIcEENS4_9allocatorIcEEEEbxydSA_NS0_14adl_serializerENS6_IhNSA_IhEEEEvEEEptEv.cold.3, symObjAddr: 0xFD84, symBinAddr: 0x10024EA30, symSize: 0x28 }
  - { offsetInCU: 0x55C9A, offset: 0x94EF3, size: 0x8, addend: 0x0, symName: __ZNK8nlohmann16json_abi_v3_11_26detail9iter_implINS0_10basic_jsonINSt3__13mapENS4_6vectorENS4_12basic_stringIcNS4_11char_traitsIcEENS4_9allocatorIcEEEEbxydSA_NS0_14adl_serializerENS6_IhNSA_IhEEEEvEEEptEv.cold.1, symObjAddr: 0xFD34, symBinAddr: 0x10024E9E0, symSize: 0x28 }
  - { offsetInCU: 0x55CB2, offset: 0x94F0B, size: 0x8, addend: 0x0, symName: __ZNK8nlohmann16json_abi_v3_11_26detail9iter_implINS0_10basic_jsonINSt3__13mapENS4_6vectorENS4_12basic_stringIcNS4_11char_traitsIcEENS4_9allocatorIcEEEEbxydSA_NS0_14adl_serializerENS6_IhNSA_IhEEEEvEEEptEv.cold.2, symObjAddr: 0xFD5C, symBinAddr: 0x10024EA08, symSize: 0x28 }
  - { offsetInCU: 0x55CCF, offset: 0x94F28, size: 0x8, addend: 0x0, symName: __ZN8nlohmann16json_abi_v3_11_26detail16invalid_iterator6createIPNS0_10basic_jsonINSt3__13mapENS5_6vectorENS5_12basic_stringIcNS5_11char_traitsIcEENS5_9allocatorIcEEEEbxydSB_NS0_14adl_serializerENS7_IhNSB_IhEEEEvEELi0EEES2_iRKSD_T_, symObjAddr: 0x7D34, symBinAddr: 0x10000B54C, symSize: 0x144 }
  - { offsetInCU: 0x56AB5, offset: 0x95D0E, size: 0x8, addend: 0x0, symName: __ZNKSt3__111__move_loopINS_17_ClassicAlgPolicyEEclB8ue170006IPN8nlohmann16json_abi_v3_11_210basic_jsonINS_3mapENS_6vectorENS_12basic_stringIcNS_11char_traitsIcEENS_9allocatorIcEEEEbxydSC_NS5_14adl_serializerENS8_IhNSC_IhEEEEvEESJ_SJ_EENS_4pairIT_T1_EESL_T0_SM_, symObjAddr: 0x862C, symBinAddr: 0x10000BE44, symSize: 0xA0 }
  - { offsetInCU: 0x56C49, offset: 0x95EA2, size: 0x8, addend: 0x0, symName: __ZNSt3__16__treeINS_12__value_typeINS_12basic_stringIcNS_11char_traitsIcEENS_9allocatorIcEEEEN8nlohmann16json_abi_v3_11_210basic_jsonINS_3mapENS_6vectorES7_bxydS5_NS9_14adl_serializerENSC_IhNS5_IhEEEEvEEEENS_19__map_value_compareIS7_SH_NS_4lessIvEELb1EEENS5_ISH_EEE21__remove_node_pointerEPNS_11__tree_nodeISH_PvEE, symObjAddr: 0x8194, symBinAddr: 0x10000B9AC, symSize: 0x70 }
  - { offsetInCU: 0x56D8C, offset: 0x95FE5, size: 0x8, addend: 0x0, symName: __ZN8nlohmann16json_abi_v3_11_26detail9iter_implINS0_10basic_jsonINSt3__13mapENS4_6vectorENS4_12basic_stringIcNS4_11char_traitsIcEENS4_9allocatorIcEEEEbxydSA_NS0_14adl_serializerENS6_IhNSA_IhEEEEvEEEppEv.cold.1, symObjAddr: 0xFDAC, symBinAddr: 0x10024EA58, symSize: 0x28 }
  - { offsetInCU: 0x56E48, offset: 0x960A1, size: 0x8, addend: 0x0, symName: __ZNK8nlohmann16json_abi_v3_11_26detail9iter_implINS0_10basic_jsonINSt3__13mapENS4_6vectorENS4_12basic_stringIcNS4_11char_traitsIcEENS4_9allocatorIcEEEEbxydSA_NS0_14adl_serializerENS6_IhNSA_IhEEEEvEEEeqISH_LDn0EEEbRKT_.cold.1, symObjAddr: 0xFDD4, symBinAddr: 0x10024EA80, symSize: 0x28 }
  - { offsetInCU: 0x56EE6, offset: 0x9613F, size: 0x8, addend: 0x0, symName: __ZN8nlohmann16json_abi_v3_11_26detail16invalid_iteratorD1Ev, symObjAddr: 0x7E78, symBinAddr: 0x10000B690, symSize: 0x30 }
  - { offsetInCU: 0x56F68, offset: 0x961C1, size: 0x8, addend: 0x0, symName: __ZN8nlohmann16json_abi_v3_11_26detail16invalid_iteratorD0Ev, symObjAddr: 0x7EA8, symBinAddr: 0x10000B6C0, symSize: 0x34 }
  - { offsetInCU: 0x5708F, offset: 0x962E8, size: 0x8, addend: 0x0, symName: __ZN8nlohmann16json_abi_v3_11_26detail10type_errorD1Ev, symObjAddr: 0x8164, symBinAddr: 0x10000B97C, symSize: 0x30 }
  - { offsetInCU: 0x57186, offset: 0x963DF, size: 0x8, addend: 0x0, symName: __ZN8nlohmann16json_abi_v3_11_26detail10type_errorD0Ev, symObjAddr: 0x86CC, symBinAddr: 0x10000BEE4, symSize: 0x34 }
  - { offsetInCU: 0x572C1, offset: 0x9651A, size: 0x8, addend: 0x0, symName: __ZN8nlohmann16json_abi_v3_11_26detail20external_constructorILNS1_7value_tE3EE9constructINS0_10basic_jsonINSt3__13mapENS7_6vectorENS7_12basic_stringIcNS7_11char_traitsIcEENS7_9allocatorIcEEEEbxydSD_NS0_14adl_serializerENS9_IhNSD_IhEEEEvEEEEvRT_RKNSK_8string_tE, symObjAddr: 0x8748, symBinAddr: 0x10000BF60, symSize: 0x48 }
  - { offsetInCU: 0x573C5, offset: 0x9661E, size: 0x8, addend: 0x0, symName: __ZN8nlohmann16json_abi_v3_11_210basic_jsonINSt3__13mapENS2_6vectorENS2_12basic_stringIcNS2_11char_traitsIcEENS2_9allocatorIcEEEEbxydS8_NS0_14adl_serializerENS4_IhNS8_IhEEEEvE10json_value7destroyENS0_6detail7value_tE, symObjAddr: 0x8790, symBinAddr: 0x10000BFA8, symSize: 0x380 }
  - { offsetInCU: 0x586FF, offset: 0x97958, size: 0x8, addend: 0x0, symName: __ZN8nlohmann16json_abi_v3_11_210basic_jsonINSt3__13mapENS2_6vectorENS2_12basic_stringIcNS2_11char_traitsIcEENS2_9allocatorIcEEEEbxydS8_NS0_14adl_serializerENS4_IhNS8_IhEEEEvE6createISA_JRKSA_EEEPT_DpOT0_, symObjAddr: 0x8DD4, symBinAddr: 0x10000C5EC, symSize: 0x68 }
  - { offsetInCU: 0x58C9C, offset: 0x97EF5, size: 0x8, addend: 0x0, symName: __ZNSt3__16vectorIN8nlohmann16json_abi_v3_11_210basic_jsonINS_3mapES0_NS_12basic_stringIcNS_11char_traitsIcEENS_9allocatorIcEEEEbxydS8_NS2_14adl_serializerENS0_IhNS8_IhEEEEvEENS8_ISE_EEE7reserveEm, symObjAddr: 0x8B10, symBinAddr: 0x10000C328, symSize: 0x90 }
  - { offsetInCU: 0x58E64, offset: 0x980BD, size: 0x8, addend: 0x0, symName: __ZNSt3__16vectorIN8nlohmann16json_abi_v3_11_210basic_jsonINS_3mapES0_NS_12basic_stringIcNS_11char_traitsIcEENS_9allocatorIcEEEEbxydS8_NS2_14adl_serializerENS0_IhNS8_IhEEEEvEENS8_ISE_EEE21__push_back_slow_pathISE_EEvOT_, symObjAddr: 0x8C38, symBinAddr: 0x10000C450, symSize: 0xF4 }
  - { offsetInCU: 0x591B7, offset: 0x98410, size: 0x8, addend: 0x0, symName: __ZNKSt3__111__move_loopINS_17_ClassicAlgPolicyEEclB8ue170006IPN8nlohmann16json_abi_v3_11_210basic_jsonINS_3mapENS_6vectorENS_12basic_stringIcNS_11char_traitsIcEENS_9allocatorIcEEEEbxydSC_NS5_14adl_serializerENS8_IhNSC_IhEEEEvEESJ_NS_20back_insert_iteratorINS8_ISI_NSC_ISI_EEEEEEEENS_4pairIT_T1_EESP_T0_SQ_, symObjAddr: 0x8BA0, symBinAddr: 0x10000C3B8, symSize: 0x98 }
  - { offsetInCU: 0x593BC, offset: 0x98615, size: 0x8, addend: 0x0, symName: __ZNSt3__16__treeINS_12__value_typeINS_12basic_stringIcNS_11char_traitsIcEENS_9allocatorIcEEEEN8nlohmann16json_abi_v3_11_210basic_jsonINS_3mapENS_6vectorES7_bxydS5_NS9_14adl_serializerENSC_IhNS5_IhEEEEvEEEENS_19__map_value_compareIS7_SH_NS_4lessIvEELb1EEENS5_ISH_EEE7destroyEPNS_11__tree_nodeISH_PvEE, symObjAddr: 0x8D2C, symBinAddr: 0x10000C544, symSize: 0x68 }
  - { offsetInCU: 0x59766, offset: 0x989BF, size: 0x8, addend: 0x0, symName: __ZNSt3__16vectorIN8nlohmann16json_abi_v3_11_210basic_jsonINS_3mapES0_NS_12basic_stringIcNS_11char_traitsIcEENS_9allocatorIcEEEEbxydS8_NS2_14adl_serializerENS0_IhNS8_IhEEEEvEENS8_ISE_EEE16__destroy_vectorclB8ue170006Ev, symObjAddr: 0x8D94, symBinAddr: 0x10000C5AC, symSize: 0x40 }
  - { offsetInCU: 0x59AB5, offset: 0x98D0E, size: 0x8, addend: 0x0, symName: __ZNSt3__16__treeINS_12__value_typeINS_12basic_stringIcNS_11char_traitsIcEENS_9allocatorIcEEEEN8nlohmann16json_abi_v3_11_210basic_jsonINS_3mapENS_6vectorES7_bxydS5_NS9_14adl_serializerENSC_IhNS5_IhEEEEvEEEENS_19__map_value_compareIS7_SH_NS_4lessIvEELb1EEENS5_ISH_EEE12__find_equalIS7_EERPNS_16__tree_node_baseIPvEERPNS_15__tree_end_nodeISS_EERKT_, symObjAddr: 0x8EFC, symBinAddr: 0x10000C714, symSize: 0x90 }
  - { offsetInCU: 0x59C40, offset: 0x98E99, size: 0x8, addend: 0x0, symName: __ZNSt3__16__treeINS_12__value_typeINS_12basic_stringIcNS_11char_traitsIcEENS_9allocatorIcEEEEN8nlohmann16json_abi_v3_11_210basic_jsonINS_3mapENS_6vectorES7_bxydS5_NS9_14adl_serializerENSC_IhNS5_IhEEEEvEEEENS_19__map_value_compareIS7_SH_NS_4lessIvEELb1EEENS5_ISH_EEE16__construct_nodeIJRKNS_21piecewise_construct_tENS_5tupleIJRKS7_EEENSS_IJEEEEEENS_10unique_ptrINS_11__tree_nodeISH_PvEENS_22__tree_node_destructorINS5_IS10_EEEEEEDpOT_, symObjAddr: 0x8F8C, symBinAddr: 0x10000C7A4, symSize: 0x80 }
  - { offsetInCU: 0x59F26, offset: 0x9917F, size: 0x8, addend: 0x0, symName: __ZNSt3__16__treeINS_12__value_typeINS_12basic_stringIcNS_11char_traitsIcEENS_9allocatorIcEEEEN8nlohmann16json_abi_v3_11_210basic_jsonINS_3mapENS_6vectorES7_bxydS5_NS9_14adl_serializerENSC_IhNS5_IhEEEEvEEEENS_19__map_value_compareIS7_SH_NS_4lessIvEELb1EEENS5_ISH_EEE16__insert_node_atEPNS_15__tree_end_nodeIPNS_16__tree_node_baseIPvEEEERSS_SS_, symObjAddr: 0x900C, symBinAddr: 0x10000C824, symSize: 0x54 }
  - { offsetInCU: 0x5A2B5, offset: 0x9950E, size: 0x8, addend: 0x0, symName: __ZNSt3__14pairIKNS_12basic_stringIcNS_11char_traitsIcEENS_9allocatorIcEEEEN8nlohmann16json_abi_v3_11_210basic_jsonINS_3mapENS_6vectorES6_bxydS4_NS9_14adl_serializerENSC_IhNS4_IhEEEEvEEEC1B8ue170006IJRS7_EJEEENS_21piecewise_construct_tENS_5tupleIJDpT_EEENSL_IJDpT0_EEE, symObjAddr: 0x9060, symBinAddr: 0x10000C878, symSize: 0x70 }
  - { offsetInCU: 0x5A51B, offset: 0x99774, size: 0x8, addend: 0x0, symName: __ZNSt3__122__tree_node_destructorINS_9allocatorINS_11__tree_nodeINS_12__value_typeINS_12basic_stringIcNS_11char_traitsIcEENS1_IcEEEEN8nlohmann16json_abi_v3_11_210basic_jsonINS_3mapENS_6vectorES8_bxydS1_NSA_14adl_serializerENSD_IhNS1_IhEEEEvEEEEPvEEEEEclB8ue170006EPSK_, symObjAddr: 0x9268, symBinAddr: 0x10000CA80, symSize: 0x44 }
  - { offsetInCU: 0x5A885, offset: 0x99ADE, size: 0x8, addend: 0x0, symName: __ZN8nlohmann16json_abi_v3_11_26detail20external_constructorILNS1_7value_tE7EE9constructINS0_10basic_jsonINSt3__13mapENS7_6vectorENS7_12basic_stringIcNS7_11char_traitsIcEENS7_9allocatorIcEEEEbxydSD_NS0_14adl_serializerENS9_IhNSD_IhEEEEvEEEEvRT_NSK_14number_float_tE, symObjAddr: 0x9654, symBinAddr: 0x10000CE6C, symSize: 0x48 }
  - { offsetInCU: 0x5A8EB, offset: 0x99B44, size: 0x8, addend: 0x0, symName: __ZN8nlohmann16json_abi_v3_11_26detail28json_sax_dom_callback_parserINS0_10basic_jsonINSt3__13mapENS4_6vectorENS4_12basic_stringIcNS4_11char_traitsIcEENS4_9allocatorIcEEEEbxydSA_NS0_14adl_serializerENS6_IhNSA_IhEEEEvEEE12handle_valueIRdEENS4_4pairIbPSG_EEOT_b.cold.1, symObjAddr: 0xFDFC, symBinAddr: 0x10024EAA8, symSize: 0x24 }
  - { offsetInCU: 0x5A9F1, offset: 0x99C4A, size: 0x8, addend: 0x0, symName: __ZN8nlohmann16json_abi_v3_11_26detail20external_constructorILNS1_7value_tE4EE9constructINS0_10basic_jsonINSt3__13mapENS7_6vectorENS7_12basic_stringIcNS7_11char_traitsIcEENS7_9allocatorIcEEEEbxydSD_NS0_14adl_serializerENS9_IhNSD_IhEEEEvEEEEvRT_NSK_9boolean_tE, symObjAddr: 0x994C, symBinAddr: 0x10000D164, symSize: 0x44 }
  - { offsetInCU: 0x5AA57, offset: 0x99CB0, size: 0x8, addend: 0x0, symName: __ZN8nlohmann16json_abi_v3_11_26detail28json_sax_dom_callback_parserINS0_10basic_jsonINSt3__13mapENS4_6vectorENS4_12basic_stringIcNS4_11char_traitsIcEENS4_9allocatorIcEEEEbxydSA_NS0_14adl_serializerENS6_IhNSA_IhEEEEvEEE12handle_valueIRbEENS4_4pairIbPSG_EEOT_b.cold.1, symObjAddr: 0xFE20, symBinAddr: 0x10024EACC, symSize: 0x24 }
  - { offsetInCU: 0x5AA6F, offset: 0x99CC8, size: 0x8, addend: 0x0, symName: __ZN8nlohmann16json_abi_v3_11_26detail28json_sax_dom_callback_parserINS0_10basic_jsonINSt3__13mapENS4_6vectorENS4_12basic_stringIcNS4_11char_traitsIcEENS4_9allocatorIcEEEEbxydSA_NS0_14adl_serializerENS6_IhNSA_IhEEEEvEEE12handle_valueIDnEENS4_4pairIbPSG_EEOT_b.cold.1, symObjAddr: 0xFE44, symBinAddr: 0x10024EAF0, symSize: 0x24 }
  - { offsetInCU: 0x5AB75, offset: 0x99DCE, size: 0x8, addend: 0x0, symName: __ZN8nlohmann16json_abi_v3_11_26detail20external_constructorILNS1_7value_tE5EE9constructINS0_10basic_jsonINSt3__13mapENS7_6vectorENS7_12basic_stringIcNS7_11char_traitsIcEENS7_9allocatorIcEEEEbxydSD_NS0_14adl_serializerENS9_IhNSD_IhEEEEvEEEEvRT_NSK_16number_integer_tE, symObjAddr: 0x9EF4, symBinAddr: 0x10000D70C, symSize: 0x40 }
  - { offsetInCU: 0x5ABDB, offset: 0x99E34, size: 0x8, addend: 0x0, symName: __ZN8nlohmann16json_abi_v3_11_26detail28json_sax_dom_callback_parserINS0_10basic_jsonINSt3__13mapENS4_6vectorENS4_12basic_stringIcNS4_11char_traitsIcEENS4_9allocatorIcEEEEbxydSA_NS0_14adl_serializerENS6_IhNSA_IhEEEEvEEE12handle_valueIRxEENS4_4pairIbPSG_EEOT_b.cold.1, symObjAddr: 0xFE68, symBinAddr: 0x10024EB14, symSize: 0x24 }
  - { offsetInCU: 0x5ABF3, offset: 0x99E4C, size: 0x8, addend: 0x0, symName: __ZN8nlohmann16json_abi_v3_11_26detail28json_sax_dom_callback_parserINS0_10basic_jsonINSt3__13mapENS4_6vectorENS4_12basic_stringIcNS4_11char_traitsIcEENS4_9allocatorIcEEEEbxydSA_NS0_14adl_serializerENS6_IhNSA_IhEEEEvEEE12handle_valueIRSC_EENS4_4pairIbPSG_EEOT_b.cold.1, symObjAddr: 0xFE8C, symBinAddr: 0x10024EB38, symSize: 0x24 }
  - { offsetInCU: 0x5ACF9, offset: 0x99F52, size: 0x8, addend: 0x0, symName: __ZN8nlohmann16json_abi_v3_11_26detail20external_constructorILNS1_7value_tE6EE9constructINS0_10basic_jsonINSt3__13mapENS7_6vectorENS7_12basic_stringIcNS7_11char_traitsIcEENS7_9allocatorIcEEEEbxydSD_NS0_14adl_serializerENS9_IhNSD_IhEEEEvEEEEvRT_NSK_17number_unsigned_tE, symObjAddr: 0xA480, symBinAddr: 0x10000DC98, symSize: 0x40 }
  - { offsetInCU: 0x5AD5F, offset: 0x99FB8, size: 0x8, addend: 0x0, symName: __ZN8nlohmann16json_abi_v3_11_26detail28json_sax_dom_callback_parserINS0_10basic_jsonINSt3__13mapENS4_6vectorENS4_12basic_stringIcNS4_11char_traitsIcEENS4_9allocatorIcEEEEbxydSA_NS0_14adl_serializerENS6_IhNSA_IhEEEEvEEE12handle_valueIRyEENS4_4pairIbPSG_EEOT_b.cold.1, symObjAddr: 0xFEB0, symBinAddr: 0x10024EB5C, symSize: 0x24 }
  - { offsetInCU: 0x5AD99, offset: 0x99FF2, size: 0x8, addend: 0x0, symName: __ZN8nlohmann16json_abi_v3_11_26detail11parse_errorD0Ev, symObjAddr: 0xA518, symBinAddr: 0x10000DD30, symSize: 0x34 }
  - { offsetInCU: 0x5B265, offset: 0x9A4BE, size: 0x8, addend: 0x0, symName: __ZN8nlohmann16json_abi_v3_11_210basic_jsonINSt3__13mapENS2_6vectorENS2_12basic_stringIcNS2_11char_traitsIcEENS2_9allocatorIcEEEEbxydS8_NS0_14adl_serializerENS4_IhNS8_IhEEEEvE6createISA_JRA1_KcEEEPT_DpOT0_, symObjAddr: 0xAA9C, symBinAddr: 0x10000E2B4, symSize: 0x48 }
  - { offsetInCU: 0x5B768, offset: 0x9A9C1, size: 0x8, addend: 0x0, symName: __ZN8nlohmann16json_abi_v3_11_26detail19json_sax_dom_parserINS0_10basic_jsonINSt3__13mapENS4_6vectorENS4_12basic_stringIcNS4_11char_traitsIcEENS4_9allocatorIcEEEEbxydSA_NS0_14adl_serializerENS6_IhNSA_IhEEEEvEEE12handle_valueINS1_7value_tEEEPSG_OT_, symObjAddr: 0xB0B8, symBinAddr: 0x10000E8D0, symSize: 0x118 }
  - { offsetInCU: 0x5BB42, offset: 0x9AD9B, size: 0x8, addend: 0x0, symName: __ZNSt3__16vectorIN8nlohmann16json_abi_v3_11_210basic_jsonINS_3mapES0_NS_12basic_stringIcNS_11char_traitsIcEENS_9allocatorIcEEEEbxydS8_NS2_14adl_serializerENS0_IhNS8_IhEEEEvEENS8_ISE_EEE22__construct_one_at_endB8ue170006IJNS2_6detail7value_tEEEEvDpOT_, symObjAddr: 0xB1D0, symBinAddr: 0x10000E9E8, symSize: 0x4C }
  - { offsetInCU: 0x5BB6C, offset: 0x9ADC5, size: 0x8, addend: 0x0, symName: __ZN8nlohmann16json_abi_v3_11_26detail19json_sax_dom_parserINS0_10basic_jsonINSt3__13mapENS4_6vectorENS4_12basic_stringIcNS4_11char_traitsIcEENS4_9allocatorIcEEEEbxydSA_NS0_14adl_serializerENS6_IhNSA_IhEEEEvEEE10end_objectEv.cold.1, symObjAddr: 0xFED4, symBinAddr: 0x10024EB80, symSize: 0x28 }
  - { offsetInCU: 0x5BB84, offset: 0x9ADDD, size: 0x8, addend: 0x0, symName: __ZN8nlohmann16json_abi_v3_11_26detail19json_sax_dom_parserINS0_10basic_jsonINSt3__13mapENS4_6vectorENS4_12basic_stringIcNS4_11char_traitsIcEENS4_9allocatorIcEEEEbxydSA_NS0_14adl_serializerENS6_IhNSA_IhEEEEvEEE10end_objectEv.cold.2, symObjAddr: 0xFEFC, symBinAddr: 0x10024EBA8, symSize: 0x28 }
  - { offsetInCU: 0x5BB9C, offset: 0x9ADF5, size: 0x8, addend: 0x0, symName: __ZN8nlohmann16json_abi_v3_11_26detail19json_sax_dom_parserINS0_10basic_jsonINSt3__13mapENS4_6vectorENS4_12basic_stringIcNS4_11char_traitsIcEENS4_9allocatorIcEEEEbxydSA_NS0_14adl_serializerENS6_IhNSA_IhEEEEvEEE3keyERSC_.cold.1, symObjAddr: 0xFF24, symBinAddr: 0x10024EBD0, symSize: 0x28 }
  - { offsetInCU: 0x5BBB4, offset: 0x9AE0D, size: 0x8, addend: 0x0, symName: __ZN8nlohmann16json_abi_v3_11_26detail19json_sax_dom_parserINS0_10basic_jsonINSt3__13mapENS4_6vectorENS4_12basic_stringIcNS4_11char_traitsIcEENS4_9allocatorIcEEEEbxydSA_NS0_14adl_serializerENS6_IhNSA_IhEEEEvEEE3keyERSC_.cold.2, symObjAddr: 0xFF4C, symBinAddr: 0x10024EBF8, symSize: 0x28 }
  - { offsetInCU: 0x5BBCC, offset: 0x9AE25, size: 0x8, addend: 0x0, symName: __ZN8nlohmann16json_abi_v3_11_26detail19json_sax_dom_parserINS0_10basic_jsonINSt3__13mapENS4_6vectorENS4_12basic_stringIcNS4_11char_traitsIcEENS4_9allocatorIcEEEEbxydSA_NS0_14adl_serializerENS6_IhNSA_IhEEEEvEEE9end_arrayEv.cold.1, symObjAddr: 0xFF74, symBinAddr: 0x10024EC20, symSize: 0x28 }
  - { offsetInCU: 0x5BBE4, offset: 0x9AE3D, size: 0x8, addend: 0x0, symName: __ZN8nlohmann16json_abi_v3_11_26detail19json_sax_dom_parserINS0_10basic_jsonINSt3__13mapENS4_6vectorENS4_12basic_stringIcNS4_11char_traitsIcEENS4_9allocatorIcEEEEbxydSA_NS0_14adl_serializerENS6_IhNSA_IhEEEEvEEE9end_arrayEv.cold.2, symObjAddr: 0xFF9C, symBinAddr: 0x10024EC48, symSize: 0x28 }
  - { offsetInCU: 0x5BC2B, offset: 0x9AE84, size: 0x8, addend: 0x0, symName: __ZNSt3__16vectorIN8nlohmann16json_abi_v3_11_210basic_jsonINS_3mapES0_NS_12basic_stringIcNS_11char_traitsIcEENS_9allocatorIcEEEEbxydS8_NS2_14adl_serializerENS0_IhNS8_IhEEEEvEENS8_ISE_EEE22__construct_one_at_endB8ue170006IJNS2_6detail7value_tEEEEvDpOT_, symObjAddr: 0xB1D0, symBinAddr: 0x10000E9E8, symSize: 0x4C }
  - { offsetInCU: 0x5BE41, offset: 0x9B09A, size: 0x8, addend: 0x0, symName: __ZNSt3__16vectorIN8nlohmann16json_abi_v3_11_210basic_jsonINS_3mapES0_NS_12basic_stringIcNS_11char_traitsIcEENS_9allocatorIcEEEEbxydS8_NS2_14adl_serializerENS0_IhNS8_IhEEEEvEENS8_ISE_EEE24__emplace_back_slow_pathIJNS2_6detail7value_tEEEEvDpOT_, symObjAddr: 0xB21C, symBinAddr: 0x10000EA34, symSize: 0xE8 }
  - { offsetInCU: 0x5C1D8, offset: 0x9B431, size: 0x8, addend: 0x0, symName: __ZN8nlohmann16json_abi_v3_11_26detail19json_sax_dom_parserINS0_10basic_jsonINSt3__13mapENS4_6vectorENS4_12basic_stringIcNS4_11char_traitsIcEENS4_9allocatorIcEEEEbxydSA_NS0_14adl_serializerENS6_IhNSA_IhEEEEvEEE12handle_valueINS1_7value_tEEEPSG_OT_.cold.1, symObjAddr: 0xFFC4, symBinAddr: 0x10024EC70, symSize: 0x24 }
  - { offsetInCU: 0x5C1F0, offset: 0x9B449, size: 0x8, addend: 0x0, symName: __ZN8nlohmann16json_abi_v3_11_26detail19json_sax_dom_parserINS0_10basic_jsonINSt3__13mapENS4_6vectorENS4_12basic_stringIcNS4_11char_traitsIcEENS4_9allocatorIcEEEEbxydSA_NS0_14adl_serializerENS6_IhNSA_IhEEEEvEEE12handle_valueINS1_7value_tEEEPSG_OT_.cold.2, symObjAddr: 0xFFE8, symBinAddr: 0x10024EC94, symSize: 0x24 }
  - { offsetInCU: 0x5C356, offset: 0x9B5AF, size: 0x8, addend: 0x0, symName: __ZNSt3__16vectorIN8nlohmann16json_abi_v3_11_210basic_jsonINS_3mapES0_NS_12basic_stringIcNS_11char_traitsIcEENS_9allocatorIcEEEEbxydS8_NS2_14adl_serializerENS0_IhNS8_IhEEEEvEENS8_ISE_EEE24__emplace_back_slow_pathIJRdEEEvDpOT_, symObjAddr: 0xB440, symBinAddr: 0x10000EC58, symSize: 0xE8 }
  - { offsetInCU: 0x5C75A, offset: 0x9B9B3, size: 0x8, addend: 0x0, symName: __ZN8nlohmann16json_abi_v3_11_26detail19json_sax_dom_parserINS0_10basic_jsonINSt3__13mapENS4_6vectorENS4_12basic_stringIcNS4_11char_traitsIcEENS4_9allocatorIcEEEEbxydSA_NS0_14adl_serializerENS6_IhNSA_IhEEEEvEEE12handle_valueIRdEEPSG_OT_.cold.1, symObjAddr: 0x1000C, symBinAddr: 0x10024ECB8, symSize: 0x24 }
  - { offsetInCU: 0x5C772, offset: 0x9B9CB, size: 0x8, addend: 0x0, symName: __ZN8nlohmann16json_abi_v3_11_26detail19json_sax_dom_parserINS0_10basic_jsonINSt3__13mapENS4_6vectorENS4_12basic_stringIcNS4_11char_traitsIcEENS4_9allocatorIcEEEEbxydSA_NS0_14adl_serializerENS6_IhNSA_IhEEEEvEEE12handle_valueIRdEEPSG_OT_.cold.2, symObjAddr: 0x10030, symBinAddr: 0x10024ECDC, symSize: 0x24 }
  - { offsetInCU: 0x5C833, offset: 0x9BA8C, size: 0x8, addend: 0x0, symName: __ZNSt3__16vectorIN8nlohmann16json_abi_v3_11_210basic_jsonINS_3mapES0_NS_12basic_stringIcNS_11char_traitsIcEENS_9allocatorIcEEEEbxydS8_NS2_14adl_serializerENS0_IhNS8_IhEEEEvEENS8_ISE_EEE24__emplace_back_slow_pathIJRbEEEvDpOT_, symObjAddr: 0xB664, symBinAddr: 0x10000EE7C, symSize: 0xE8 }
  - { offsetInCU: 0x5CC2E, offset: 0x9BE87, size: 0x8, addend: 0x0, symName: __ZN8nlohmann16json_abi_v3_11_26detail19json_sax_dom_parserINS0_10basic_jsonINSt3__13mapENS4_6vectorENS4_12basic_stringIcNS4_11char_traitsIcEENS4_9allocatorIcEEEEbxydSA_NS0_14adl_serializerENS6_IhNSA_IhEEEEvEEE12handle_valueIRbEEPSG_OT_.cold.1, symObjAddr: 0x10054, symBinAddr: 0x10024ED00, symSize: 0x24 }
  - { offsetInCU: 0x5CC46, offset: 0x9BE9F, size: 0x8, addend: 0x0, symName: __ZN8nlohmann16json_abi_v3_11_26detail19json_sax_dom_parserINS0_10basic_jsonINSt3__13mapENS4_6vectorENS4_12basic_stringIcNS4_11char_traitsIcEENS4_9allocatorIcEEEEbxydSA_NS0_14adl_serializerENS6_IhNSA_IhEEEEvEEE12handle_valueIRbEEPSG_OT_.cold.2, symObjAddr: 0x10078, symBinAddr: 0x10024ED24, symSize: 0x24 }
  - { offsetInCU: 0x5CD07, offset: 0x9BF60, size: 0x8, addend: 0x0, symName: __ZNSt3__16vectorIN8nlohmann16json_abi_v3_11_210basic_jsonINS_3mapES0_NS_12basic_stringIcNS_11char_traitsIcEENS_9allocatorIcEEEEbxydS8_NS2_14adl_serializerENS0_IhNS8_IhEEEEvEENS8_ISE_EEE24__emplace_back_slow_pathIJDnEEEvDpOT_, symObjAddr: 0xB894, symBinAddr: 0x10000F0AC, symSize: 0xE4 }
  - { offsetInCU: 0x5D10C, offset: 0x9C365, size: 0x8, addend: 0x0, symName: __ZN8nlohmann16json_abi_v3_11_26detail19json_sax_dom_parserINS0_10basic_jsonINSt3__13mapENS4_6vectorENS4_12basic_stringIcNS4_11char_traitsIcEENS4_9allocatorIcEEEEbxydSA_NS0_14adl_serializerENS6_IhNSA_IhEEEEvEEE12handle_valueIDnEEPSG_OT_.cold.1, symObjAddr: 0x1009C, symBinAddr: 0x10024ED48, symSize: 0x24 }
  - { offsetInCU: 0x5D124, offset: 0x9C37D, size: 0x8, addend: 0x0, symName: __ZN8nlohmann16json_abi_v3_11_26detail19json_sax_dom_parserINS0_10basic_jsonINSt3__13mapENS4_6vectorENS4_12basic_stringIcNS4_11char_traitsIcEENS4_9allocatorIcEEEEbxydSA_NS0_14adl_serializerENS6_IhNSA_IhEEEEvEEE12handle_valueIDnEEPSG_OT_.cold.2, symObjAddr: 0x100C0, symBinAddr: 0x10024ED6C, symSize: 0x24 }
  - { offsetInCU: 0x5D1E5, offset: 0x9C43E, size: 0x8, addend: 0x0, symName: __ZNSt3__16vectorIN8nlohmann16json_abi_v3_11_210basic_jsonINS_3mapES0_NS_12basic_stringIcNS_11char_traitsIcEENS_9allocatorIcEEEEbxydS8_NS2_14adl_serializerENS0_IhNS8_IhEEEEvEENS8_ISE_EEE24__emplace_back_slow_pathIJRxEEEvDpOT_, symObjAddr: 0xBAB4, symBinAddr: 0x10000F2CC, symSize: 0xE8 }
  - { offsetInCU: 0x5D5E8, offset: 0x9C841, size: 0x8, addend: 0x0, symName: __ZN8nlohmann16json_abi_v3_11_26detail19json_sax_dom_parserINS0_10basic_jsonINSt3__13mapENS4_6vectorENS4_12basic_stringIcNS4_11char_traitsIcEENS4_9allocatorIcEEEEbxydSA_NS0_14adl_serializerENS6_IhNSA_IhEEEEvEEE12handle_valueIRxEEPSG_OT_.cold.1, symObjAddr: 0x100E4, symBinAddr: 0x10024ED90, symSize: 0x24 }
  - { offsetInCU: 0x5D600, offset: 0x9C859, size: 0x8, addend: 0x0, symName: __ZN8nlohmann16json_abi_v3_11_26detail19json_sax_dom_parserINS0_10basic_jsonINSt3__13mapENS4_6vectorENS4_12basic_stringIcNS4_11char_traitsIcEENS4_9allocatorIcEEEEbxydSA_NS0_14adl_serializerENS6_IhNSA_IhEEEEvEEE12handle_valueIRxEEPSG_OT_.cold.2, symObjAddr: 0x10108, symBinAddr: 0x10024EDB4, symSize: 0x24 }
  - { offsetInCU: 0x5D618, offset: 0x9C871, size: 0x8, addend: 0x0, symName: __ZNSt3__16vectorIN8nlohmann16json_abi_v3_11_210basic_jsonINS_3mapES0_NS_12basic_stringIcNS_11char_traitsIcEENS_9allocatorIcEEEEbxydS8_NS2_14adl_serializerENS0_IhNS8_IhEEEEvEENS8_ISE_EEE12emplace_backIJRSA_EEERSE_DpOT_, symObjAddr: 0xBC70, symBinAddr: 0x10000F488, symSize: 0x10C }
  - { offsetInCU: 0x5DA70, offset: 0x9CCC9, size: 0x8, addend: 0x0, symName: __ZN8nlohmann16json_abi_v3_11_26detail19json_sax_dom_parserINS0_10basic_jsonINSt3__13mapENS4_6vectorENS4_12basic_stringIcNS4_11char_traitsIcEENS4_9allocatorIcEEEEbxydSA_NS0_14adl_serializerENS6_IhNSA_IhEEEEvEEE12handle_valueIRSC_EEPSG_OT_.cold.1, symObjAddr: 0x1012C, symBinAddr: 0x10024EDD8, symSize: 0x24 }
  - { offsetInCU: 0x5DA88, offset: 0x9CCE1, size: 0x8, addend: 0x0, symName: __ZN8nlohmann16json_abi_v3_11_26detail19json_sax_dom_parserINS0_10basic_jsonINSt3__13mapENS4_6vectorENS4_12basic_stringIcNS4_11char_traitsIcEENS4_9allocatorIcEEEEbxydSA_NS0_14adl_serializerENS6_IhNSA_IhEEEEvEEE12handle_valueIRSC_EEPSG_OT_.cold.2, symObjAddr: 0x10150, symBinAddr: 0x10024EDFC, symSize: 0x24 }
  - { offsetInCU: 0x5DC0A, offset: 0x9CE63, size: 0x8, addend: 0x0, symName: __ZNSt3__16vectorIN8nlohmann16json_abi_v3_11_210basic_jsonINS_3mapES0_NS_12basic_stringIcNS_11char_traitsIcEENS_9allocatorIcEEEEbxydS8_NS2_14adl_serializerENS0_IhNS8_IhEEEEvEENS8_ISE_EEE24__emplace_back_slow_pathIJRyEEEvDpOT_, symObjAddr: 0xBEB8, symBinAddr: 0x10000F6D0, symSize: 0xE8 }
  - { offsetInCU: 0x5E00D, offset: 0x9D266, size: 0x8, addend: 0x0, symName: __ZN8nlohmann16json_abi_v3_11_26detail19json_sax_dom_parserINS0_10basic_jsonINSt3__13mapENS4_6vectorENS4_12basic_stringIcNS4_11char_traitsIcEENS4_9allocatorIcEEEEbxydSA_NS0_14adl_serializerENS6_IhNSA_IhEEEEvEEE12handle_valueIRyEEPSG_OT_.cold.1, symObjAddr: 0x10174, symBinAddr: 0x10024EE20, symSize: 0x24 }
  - { offsetInCU: 0x5E025, offset: 0x9D27E, size: 0x8, addend: 0x0, symName: __ZN8nlohmann16json_abi_v3_11_26detail19json_sax_dom_parserINS0_10basic_jsonINSt3__13mapENS4_6vectorENS4_12basic_stringIcNS4_11char_traitsIcEENS4_9allocatorIcEEEEbxydSA_NS0_14adl_serializerENS6_IhNSA_IhEEEEvEEE12handle_valueIRyEEPSG_OT_.cold.2, symObjAddr: 0x10198, symBinAddr: 0x10024EE44, symSize: 0x24 }
  - { offsetInCU: 0x5E03D, offset: 0x9D296, size: 0x8, addend: 0x0, symName: __ZNSt3__16vectorIN8nlohmann16json_abi_v3_11_210basic_jsonINS_3mapES0_NS_12basic_stringIcNS_11char_traitsIcEENS_9allocatorIcEEEEbxydS8_NS2_14adl_serializerENS0_IhNS8_IhEEEEvEENS8_ISE_EEE8__appendEm, symObjAddr: 0xC06C, symBinAddr: 0x10000F884, symSize: 0xF8 }
  - { offsetInCU: 0x5E2FE, offset: 0x9D557, size: 0x8, addend: 0x0, symName: __ZNSt3__16vectorIN8nlohmann16json_abi_v3_11_210basic_jsonINS_3mapES0_NS_12basic_stringIcNS_11char_traitsIcEENS_9allocatorIcEEEEbxydS8_NS2_14adl_serializerENS0_IhNS8_IhEEEEvEENS8_ISE_EEE18__construct_at_endEm, symObjAddr: 0xC164, symBinAddr: 0x10000F97C, symSize: 0x64 }
  - { offsetInCU: 0x5E57B, offset: 0x9D7D4, size: 0x8, addend: 0x0, symName: __ZNSt3__114__split_bufferIN8nlohmann16json_abi_v3_11_210basic_jsonINS_3mapENS_6vectorENS_12basic_stringIcNS_11char_traitsIcEENS_9allocatorIcEEEEbxydS9_NS2_14adl_serializerENS5_IhNS9_IhEEEEvEERNS9_ISF_EEE18__construct_at_endEm, symObjAddr: 0xC1C8, symBinAddr: 0x10000F9E0, symSize: 0x64 }
  - { offsetInCU: 0x5E975, offset: 0x9DBCE, size: 0x8, addend: 0x0, symName: __ZN8nlohmann16json_abi_v3_11_210basic_jsonINSt3__13mapENS2_6vectorENS2_12basic_stringIcNS2_11char_traitsIcEENS2_9allocatorIcEEEEbxydS8_NS0_14adl_serializerENS4_IhNS8_IhEEEEvE6createINS0_27byte_container_with_subtypeISD_EEJRKSH_EEEPT_DpOT0_, symObjAddr: 0xC960, symBinAddr: 0x100010178, symSize: 0x64 }
  - { offsetInCU: 0x5ECA7, offset: 0x9DF00, size: 0x8, addend: 0x0, symName: __ZN8nlohmann16json_abi_v3_11_210basic_jsonINSt3__13mapENS2_6vectorENS2_12basic_stringIcNS2_11char_traitsIcEENS2_9allocatorIcEEEEbxydS8_NS0_14adl_serializerENS4_IhNS8_IhEEEEvE6createINS3_ISA_SE_NS2_4lessIvEENS8_INS2_4pairIKSA_SE_EEEEEEJRKSM_EEEPT_DpOT0_, symObjAddr: 0xC2FC, symBinAddr: 0x10000FB14, symSize: 0x48 }
  - { offsetInCU: 0x5EF70, offset: 0x9E1C9, size: 0x8, addend: 0x0, symName: __ZN8nlohmann16json_abi_v3_11_210basic_jsonINSt3__13mapENS2_6vectorENS2_12basic_stringIcNS2_11char_traitsIcEENS2_9allocatorIcEEEEbxydS8_NS0_14adl_serializerENS4_IhNS8_IhEEEEvE6createINS4_ISE_NS8_ISE_EEEEJRKSH_EEEPT_DpOT0_, symObjAddr: 0xC714, symBinAddr: 0x10000FF2C, symSize: 0x58 }
  - { offsetInCU: 0x5F42A, offset: 0x9E683, size: 0x8, addend: 0x0, symName: __ZNSt3__13mapINS_12basic_stringIcNS_11char_traitsIcEENS_9allocatorIcEEEEN8nlohmann16json_abi_v3_11_210basic_jsonIS0_NS_6vectorES6_bxydS4_NS8_14adl_serializerENSA_IhNS4_IhEEEEvEENS_4lessIvEENS4_INS_4pairIKS6_SE_EEEEEC2B8ue170006ERKSL_, symObjAddr: 0xC344, symBinAddr: 0x10000FB5C, symSize: 0x54 }
  - { offsetInCU: 0x5F746, offset: 0x9E99F, size: 0x8, addend: 0x0, symName: __ZNSt3__13mapINS_12basic_stringIcNS_11char_traitsIcEENS_9allocatorIcEEEEN8nlohmann16json_abi_v3_11_210basic_jsonIS0_NS_6vectorES6_bxydS4_NS8_14adl_serializerENSA_IhNS4_IhEEEEvEENS_4lessIvEENS4_INS_4pairIKS6_SE_EEEEE6insertB8ue170006INS_20__map_const_iteratorINS_21__tree_const_iteratorINS_12__value_typeIS6_SE_EEPNS_11__tree_nodeISQ_PvEElEEEEEEvT_SX_, symObjAddr: 0xC398, symBinAddr: 0x10000FBB0, symSize: 0x84 }
  - { offsetInCU: 0x5FA68, offset: 0x9ECC1, size: 0x8, addend: 0x0, symName: __ZNSt3__16__treeINS_12__value_typeINS_12basic_stringIcNS_11char_traitsIcEENS_9allocatorIcEEEEN8nlohmann16json_abi_v3_11_210basic_jsonINS_3mapENS_6vectorES7_bxydS5_NS9_14adl_serializerENSC_IhNS5_IhEEEEvEEEENS_19__map_value_compareIS7_SH_NS_4lessIvEELb1EEENS5_ISH_EEE30__emplace_hint_unique_key_argsIS7_JRKNS_4pairIKS7_SG_EEEEENSP_INS_15__tree_iteratorISH_PNS_11__tree_nodeISH_PvEElEEbEENS_21__tree_const_iteratorISH_SY_lEERKT_DpOT0_, symObjAddr: 0xC41C, symBinAddr: 0x10000FC34, symSize: 0x80 }
  - { offsetInCU: 0x5FBFE, offset: 0x9EE57, size: 0x8, addend: 0x0, symName: __ZNSt3__16__treeINS_12__value_typeINS_12basic_stringIcNS_11char_traitsIcEENS_9allocatorIcEEEEN8nlohmann16json_abi_v3_11_210basic_jsonINS_3mapENS_6vectorES7_bxydS5_NS9_14adl_serializerENSC_IhNS5_IhEEEEvEEEENS_19__map_value_compareIS7_SH_NS_4lessIvEELb1EEENS5_ISH_EEE12__find_equalIS7_EERPNS_16__tree_node_baseIPvEENS_21__tree_const_iteratorISH_PNS_11__tree_nodeISH_SQ_EElEERPNS_15__tree_end_nodeISS_EEST_RKT_, symObjAddr: 0xC49C, symBinAddr: 0x10000FCB4, symSize: 0x184 }
  - { offsetInCU: 0x60056, offset: 0x9F2AF, size: 0x8, addend: 0x0, symName: __ZNSt3__16__treeINS_12__value_typeINS_12basic_stringIcNS_11char_traitsIcEENS_9allocatorIcEEEEN8nlohmann16json_abi_v3_11_210basic_jsonINS_3mapENS_6vectorES7_bxydS5_NS9_14adl_serializerENSC_IhNS5_IhEEEEvEEEENS_19__map_value_compareIS7_SH_NS_4lessIvEELb1EEENS5_ISH_EEE16__construct_nodeIJRKNS_4pairIKS7_SG_EEEEENS_10unique_ptrINS_11__tree_nodeISH_PvEENS_22__tree_node_destructorINS5_ISX_EEEEEEDpOT_, symObjAddr: 0xC620, symBinAddr: 0x10000FE38, symSize: 0x80 }
  - { offsetInCU: 0x603B7, offset: 0x9F610, size: 0x8, addend: 0x0, symName: __ZNSt3__14pairIKNS_12basic_stringIcNS_11char_traitsIcEENS_9allocatorIcEEEEN8nlohmann16json_abi_v3_11_210basic_jsonINS_3mapENS_6vectorES6_bxydS4_NS9_14adl_serializerENSC_IhNS4_IhEEEEvEEEC2B8ue170006ERKSH_, symObjAddr: 0xC6A0, symBinAddr: 0x10000FEB8, symSize: 0x74 }
  - { offsetInCU: 0x607CD, offset: 0x9FA26, size: 0x8, addend: 0x0, symName: __ZNSt3__16vectorIN8nlohmann16json_abi_v3_11_210basic_jsonINS_3mapES0_NS_12basic_stringIcNS_11char_traitsIcEENS_9allocatorIcEEEEbxydS8_NS2_14adl_serializerENS0_IhNS8_IhEEEEvEENS8_ISE_EEE16__init_with_sizeB8ue170006IPSE_SI_EEvT_T0_m, symObjAddr: 0xC76C, symBinAddr: 0x10000FF84, symSize: 0x84 }
  - { offsetInCU: 0x60B42, offset: 0x9FD9B, size: 0x8, addend: 0x0, symName: __ZNSt3__16vectorIN8nlohmann16json_abi_v3_11_210basic_jsonINS_3mapES0_NS_12basic_stringIcNS_11char_traitsIcEENS_9allocatorIcEEEEbxydS8_NS2_14adl_serializerENS0_IhNS8_IhEEEEvEENS8_ISE_EEE11__vallocateB8ue170006Em, symObjAddr: 0xC7F0, symBinAddr: 0x100010008, symSize: 0x40 }
  - { offsetInCU: 0x60BC0, offset: 0x9FE19, size: 0x8, addend: 0x0, symName: __ZNSt3__135__uninitialized_allocator_copy_implB8ue170006INS_9allocatorIN8nlohmann16json_abi_v3_11_210basic_jsonINS_3mapENS_6vectorENS_12basic_stringIcNS_11char_traitsIcEENS1_IcEEEEbxydS1_NS3_14adl_serializerENS6_IhNS1_IhEEEEvEEEEPSF_SH_SH_EET2_RT_T0_T1_SI_, symObjAddr: 0xC830, symBinAddr: 0x100010048, symSize: 0xA0 }
  - { offsetInCU: 0x60C91, offset: 0x9FEEA, size: 0x8, addend: 0x0, symName: __ZNSt3__128__exception_guard_exceptionsINS_29_AllocatorDestroyRangeReverseINS_9allocatorIN8nlohmann16json_abi_v3_11_210basic_jsonINS_3mapENS_6vectorENS_12basic_stringIcNS_11char_traitsIcEENS2_IcEEEEbxydS2_NS4_14adl_serializerENS7_IhNS2_IhEEEEvEEEEPSG_EEED2B8ue170006Ev, symObjAddr: 0xC8D0, symBinAddr: 0x1000100E8, symSize: 0x48 }
  - { offsetInCU: 0x60F1E, offset: 0xA0177, size: 0x8, addend: 0x0, symName: __ZNSt3__16vectorIhNS_9allocatorIhEEE16__init_with_sizeB8ue170006IPhS5_EEvT_T0_m, symObjAddr: 0xC9C4, symBinAddr: 0x1000101DC, symSize: 0x78 }
  - { offsetInCU: 0x6152A, offset: 0xA0783, size: 0x8, addend: 0x0, symName: __ZNSt3__16vectorIhNS_9allocatorIhEEE11__vallocateB8ue170006Em, symObjAddr: 0xCA3C, symBinAddr: 0x100010254, symSize: 0x40 }
  - { offsetInCU: 0x6160A, offset: 0xA0863, size: 0x8, addend: 0x0, symName: __ZNKSt3__16vectorIhNS_9allocatorIhEEE20__throw_length_errorB8ue170006Ev, symObjAddr: 0xCA7C, symBinAddr: 0x100010294, symSize: 0x14 }
  - { offsetInCU: 0x6163C, offset: 0xA0895, size: 0x8, addend: 0x0, symName: __ZNKSt3__16vectorIhNS_9allocatorIhEEE20__throw_length_errorB8ue170006Ev, symObjAddr: 0xCA7C, symBinAddr: 0x100010294, symSize: 0x14 }
  - { offsetInCU: 0x61666, offset: 0xA08BF, size: 0x8, addend: 0x0, symName: __ZN8nlohmann16json_abi_v3_11_26detail10serializerINS0_10basic_jsonINSt3__13mapENS4_6vectorENS4_12basic_stringIcNS4_11char_traitsIcEENS4_9allocatorIcEEEEbxydSA_NS0_14adl_serializerENS6_IhNSA_IhEEEEvEEE4dumpERKSG_bbjj, symObjAddr: 0xCA90, symBinAddr: 0x1000102A8, symSize: 0xA9C }
  - { offsetInCU: 0x618B6, offset: 0xA0B0F, size: 0x8, addend: 0x0, symName: __ZN8nlohmann16json_abi_v3_11_26detail10serializerINS0_10basic_jsonINSt3__13mapENS4_6vectorENS4_12basic_stringIcNS4_11char_traitsIcEENS4_9allocatorIcEEEEbxydSA_NS0_14adl_serializerENS6_IhNSA_IhEEEEvEEE12dump_escapedERKSC_b, symObjAddr: 0xD7A8, symBinAddr: 0x100010FC0, symSize: 0x50C }
  - { offsetInCU: 0x6204C, offset: 0xA12A5, size: 0x8, addend: 0x0, symName: __ZN8nlohmann16json_abi_v3_11_26detail10serializerINS0_10basic_jsonINSt3__13mapENS4_6vectorENS4_12basic_stringIcNS4_11char_traitsIcEENS4_9allocatorIcEEEEbxydSA_NS0_14adl_serializerENS6_IhNSA_IhEEEEvEEE4dumpERKSG_bbjj.cold.6, symObjAddr: 0x10284, symBinAddr: 0x10024EF30, symSize: 0x28 }
  - { offsetInCU: 0x62064, offset: 0xA12BD, size: 0x8, addend: 0x0, symName: __ZN8nlohmann16json_abi_v3_11_26detail10serializerINS0_10basic_jsonINSt3__13mapENS4_6vectorENS4_12basic_stringIcNS4_11char_traitsIcEENS4_9allocatorIcEEEEbxydSA_NS0_14adl_serializerENS6_IhNSA_IhEEEEvEEE4dumpERKSG_bbjj.cold.4, symObjAddr: 0x10234, symBinAddr: 0x10024EEE0, symSize: 0x28 }
  - { offsetInCU: 0x6207C, offset: 0xA12D5, size: 0x8, addend: 0x0, symName: __ZN8nlohmann16json_abi_v3_11_26detail10serializerINS0_10basic_jsonINSt3__13mapENS4_6vectorENS4_12basic_stringIcNS4_11char_traitsIcEENS4_9allocatorIcEEEEbxydSA_NS0_14adl_serializerENS6_IhNSA_IhEEEEvEEE4dumpERKSG_bbjj.cold.2, symObjAddr: 0x101E4, symBinAddr: 0x10024EE90, symSize: 0x28 }
  - { offsetInCU: 0x62094, offset: 0xA12ED, size: 0x8, addend: 0x0, symName: __ZN8nlohmann16json_abi_v3_11_26detail10serializerINS0_10basic_jsonINSt3__13mapENS4_6vectorENS4_12basic_stringIcNS4_11char_traitsIcEENS4_9allocatorIcEEEEbxydSA_NS0_14adl_serializerENS6_IhNSA_IhEEEEvEEE4dumpERKSG_bbjj.cold.7, symObjAddr: 0x102AC, symBinAddr: 0x10024EF58, symSize: 0x28 }
  - { offsetInCU: 0x620AC, offset: 0xA1305, size: 0x8, addend: 0x0, symName: __ZN8nlohmann16json_abi_v3_11_26detail10serializerINS0_10basic_jsonINSt3__13mapENS4_6vectorENS4_12basic_stringIcNS4_11char_traitsIcEENS4_9allocatorIcEEEEbxydSA_NS0_14adl_serializerENS6_IhNSA_IhEEEEvEEE4dumpERKSG_bbjj.cold.5, symObjAddr: 0x1025C, symBinAddr: 0x10024EF08, symSize: 0x28 }
  - { offsetInCU: 0x620C4, offset: 0xA131D, size: 0x8, addend: 0x0, symName: __ZN8nlohmann16json_abi_v3_11_26detail10serializerINS0_10basic_jsonINSt3__13mapENS4_6vectorENS4_12basic_stringIcNS4_11char_traitsIcEENS4_9allocatorIcEEEEbxydSA_NS0_14adl_serializerENS6_IhNSA_IhEEEEvEEE4dumpERKSG_bbjj.cold.3, symObjAddr: 0x1020C, symBinAddr: 0x10024EEB8, symSize: 0x28 }
  - { offsetInCU: 0x620DC, offset: 0xA1335, size: 0x8, addend: 0x0, symName: __ZN8nlohmann16json_abi_v3_11_26detail10serializerINS0_10basic_jsonINSt3__13mapENS4_6vectorENS4_12basic_stringIcNS4_11char_traitsIcEENS4_9allocatorIcEEEEbxydSA_NS0_14adl_serializerENS6_IhNSA_IhEEEEvEEE4dumpERKSG_bbjj.cold.1, symObjAddr: 0x101BC, symBinAddr: 0x10024EE68, symSize: 0x28 }
  - { offsetInCU: 0x62111, offset: 0xA136A, size: 0x8, addend: 0x0, symName: __ZNSt3__120__shared_ptr_emplaceIN8nlohmann16json_abi_v3_11_26detail21output_string_adapterIcNS_12basic_stringIcNS_11char_traitsIcEENS_9allocatorIcEEEEEENS8_ISB_EEED1Ev, symObjAddr: 0xD52C, symBinAddr: 0x100010D44, symSize: 0x10 }
  - { offsetInCU: 0x62134, offset: 0xA138D, size: 0x8, addend: 0x0, symName: __ZNSt3__120__shared_ptr_emplaceIN8nlohmann16json_abi_v3_11_26detail21output_string_adapterIcNS_12basic_stringIcNS_11char_traitsIcEENS_9allocatorIcEEEEEENS8_ISB_EEED1Ev, symObjAddr: 0xD52C, symBinAddr: 0x100010D44, symSize: 0x10 }
  - { offsetInCU: 0x6216E, offset: 0xA13C7, size: 0x8, addend: 0x0, symName: __ZNSt3__120__shared_ptr_emplaceIN8nlohmann16json_abi_v3_11_26detail21output_string_adapterIcNS_12basic_stringIcNS_11char_traitsIcEENS_9allocatorIcEEEEEENS8_ISB_EEED0Ev, symObjAddr: 0xD53C, symBinAddr: 0x100010D54, symSize: 0x20 }
  - { offsetInCU: 0x62202, offset: 0xA145B, size: 0x8, addend: 0x0, symName: __ZNSt3__120__shared_ptr_emplaceIN8nlohmann16json_abi_v3_11_26detail21output_string_adapterIcNS_12basic_stringIcNS_11char_traitsIcEENS_9allocatorIcEEEEEENS8_ISB_EEE16__on_zero_sharedEv, symObjAddr: 0xD55C, symBinAddr: 0x100010D74, symSize: 0xC }
  - { offsetInCU: 0x62228, offset: 0xA1481, size: 0x8, addend: 0x0, symName: __ZNSt3__120__shared_ptr_emplaceIN8nlohmann16json_abi_v3_11_26detail21output_string_adapterIcNS_12basic_stringIcNS_11char_traitsIcEENS_9allocatorIcEEEEEENS8_ISB_EEE16__on_zero_sharedEv, symObjAddr: 0xD55C, symBinAddr: 0x100010D74, symSize: 0xC }
  - { offsetInCU: 0x62245, offset: 0xA149E, size: 0x8, addend: 0x0, symName: __ZNSt3__120__shared_ptr_emplaceIN8nlohmann16json_abi_v3_11_26detail21output_string_adapterIcNS_12basic_stringIcNS_11char_traitsIcEENS_9allocatorIcEEEEEENS8_ISB_EEE16__on_zero_sharedEv, symObjAddr: 0xD55C, symBinAddr: 0x100010D74, symSize: 0xC }
  - { offsetInCU: 0x62265, offset: 0xA14BE, size: 0x8, addend: 0x0, symName: __ZNSt3__120__shared_ptr_emplaceIN8nlohmann16json_abi_v3_11_26detail21output_string_adapterIcNS_12basic_stringIcNS_11char_traitsIcEENS_9allocatorIcEEEEEENS8_ISB_EEE16__on_zero_sharedEv, symObjAddr: 0xD55C, symBinAddr: 0x100010D74, symSize: 0xC }
  - { offsetInCU: 0x62285, offset: 0xA14DE, size: 0x8, addend: 0x0, symName: __ZNSt3__120__shared_ptr_emplaceIN8nlohmann16json_abi_v3_11_26detail21output_string_adapterIcNS_12basic_stringIcNS_11char_traitsIcEENS_9allocatorIcEEEEEENS8_ISB_EEE16__on_zero_sharedEv, symObjAddr: 0xD55C, symBinAddr: 0x100010D74, symSize: 0xC }
  - { offsetInCU: 0x62316, offset: 0xA156F, size: 0x8, addend: 0x0, symName: __ZNSt3__120__shared_ptr_emplaceIN8nlohmann16json_abi_v3_11_26detail21output_string_adapterIcNS_12basic_stringIcNS_11char_traitsIcEENS_9allocatorIcEEEEEENS8_ISB_EEE21__on_zero_shared_weakEv, symObjAddr: 0xD568, symBinAddr: 0x100010D80, symSize: 0x4 }
  - { offsetInCU: 0x62349, offset: 0xA15A2, size: 0x8, addend: 0x0, symName: __ZNSt3__120__shared_ptr_emplaceIN8nlohmann16json_abi_v3_11_26detail21output_string_adapterIcNS_12basic_stringIcNS_11char_traitsIcEENS_9allocatorIcEEEEEENS8_ISB_EEE21__on_zero_shared_weakEv, symObjAddr: 0xD568, symBinAddr: 0x100010D80, symSize: 0x4 }
  - { offsetInCU: 0x6236E, offset: 0xA15C7, size: 0x8, addend: 0x0, symName: __ZNSt3__120__shared_ptr_emplaceIN8nlohmann16json_abi_v3_11_26detail21output_string_adapterIcNS_12basic_stringIcNS_11char_traitsIcEENS_9allocatorIcEEEEEENS8_ISB_EEE21__on_zero_shared_weakEv, symObjAddr: 0xD568, symBinAddr: 0x100010D80, symSize: 0x4 }
  - { offsetInCU: 0x62393, offset: 0xA15EC, size: 0x8, addend: 0x0, symName: __ZNSt3__120__shared_ptr_emplaceIN8nlohmann16json_abi_v3_11_26detail21output_string_adapterIcNS_12basic_stringIcNS_11char_traitsIcEENS_9allocatorIcEEEEEENS8_ISB_EEE21__on_zero_shared_weakEv, symObjAddr: 0xD568, symBinAddr: 0x100010D80, symSize: 0x4 }
  - { offsetInCU: 0x623C3, offset: 0xA161C, size: 0x8, addend: 0x0, symName: __ZNSt3__120__shared_ptr_emplaceIN8nlohmann16json_abi_v3_11_26detail21output_string_adapterIcNS_12basic_stringIcNS_11char_traitsIcEENS_9allocatorIcEEEEEENS8_ISB_EEE21__on_zero_shared_weakEv, symObjAddr: 0xD568, symBinAddr: 0x100010D80, symSize: 0x4 }
  - { offsetInCU: 0x623ED, offset: 0xA1646, size: 0x8, addend: 0x0, symName: __ZNSt3__120__shared_ptr_emplaceIN8nlohmann16json_abi_v3_11_26detail21output_string_adapterIcNS_12basic_stringIcNS_11char_traitsIcEENS_9allocatorIcEEEEEENS8_ISB_EEE21__on_zero_shared_weakEv, symObjAddr: 0xD568, symBinAddr: 0x100010D80, symSize: 0x4 }
  - { offsetInCU: 0x6241A, offset: 0xA1673, size: 0x8, addend: 0x0, symName: __ZN8nlohmann16json_abi_v3_11_26detail21output_string_adapterIcNSt3__112basic_stringIcNS3_11char_traitsIcEENS3_9allocatorIcEEEEE15write_characterEc, symObjAddr: 0xD56C, symBinAddr: 0x100010D84, symSize: 0x8 }
  - { offsetInCU: 0x62450, offset: 0xA16A9, size: 0x8, addend: 0x0, symName: __ZN8nlohmann16json_abi_v3_11_26detail21output_string_adapterIcNSt3__112basic_stringIcNS3_11char_traitsIcEENS3_9allocatorIcEEEEE16write_charactersEPKcm, symObjAddr: 0xD574, symBinAddr: 0x100010D8C, symSize: 0x8 }
  - { offsetInCU: 0x62495, offset: 0xA16EE, size: 0x8, addend: 0x0, symName: __ZN8nlohmann16json_abi_v3_11_26detail21output_string_adapterIcNSt3__112basic_stringIcNS3_11char_traitsIcEENS3_9allocatorIcEEEEED1Ev, symObjAddr: 0xD57C, symBinAddr: 0x100010D94, symSize: 0x4 }
  - { offsetInCU: 0x624C1, offset: 0xA171A, size: 0x8, addend: 0x0, symName: __ZN8nlohmann16json_abi_v3_11_26detail21output_string_adapterIcNSt3__112basic_stringIcNS3_11char_traitsIcEENS3_9allocatorIcEEEEED0Ev, symObjAddr: 0xD580, symBinAddr: 0x100010D98, symSize: 0x4 }
  - { offsetInCU: 0x625E7, offset: 0xA1840, size: 0x8, addend: 0x0, symName: __ZNSt3__112basic_stringIcNS_11char_traitsIcEENS_9allocatorIcEEEC2B8ue170006Emc, symObjAddr: 0xD6C0, symBinAddr: 0x100010ED8, symSize: 0x98 }
  - { offsetInCU: 0x6280C, offset: 0xA1A65, size: 0x8, addend: 0x0, symName: __ZNSt3__110shared_ptrIN8nlohmann16json_abi_v3_11_26detail23output_adapter_protocolIcEEED2B8ue170006Ev, symObjAddr: 0xD758, symBinAddr: 0x100010F70, symSize: 0x50 }
  - { offsetInCU: 0x6286B, offset: 0xA1AC4, size: 0x8, addend: 0x0, symName: __ZN8nlohmann16json_abi_v3_11_26detail10serializerINS0_10basic_jsonINSt3__13mapENS4_6vectorENS4_12basic_stringIcNS4_11char_traitsIcEENS4_9allocatorIcEEEEbxydSA_NS0_14adl_serializerENS6_IhNSA_IhEEEEvEEE9hex_bytesEh, symObjAddr: 0xE3DC, symBinAddr: 0x100011BF4, symSize: 0x70 }
  - { offsetInCU: 0x629B8, offset: 0xA1C11, size: 0x8, addend: 0x0, symName: __ZN8nlohmann16json_abi_v3_11_26detail10type_error6createIDnLi0EEES2_iRKNSt3__112basic_stringIcNS4_11char_traitsIcEENS4_9allocatorIcEEEET_, symObjAddr: 0xE174, symBinAddr: 0x10001198C, symSize: 0x144 }
  - { offsetInCU: 0x63456, offset: 0xA26AF, size: 0x8, addend: 0x0, symName: __ZN8nlohmann16json_abi_v3_11_26detail10serializerINS0_10basic_jsonINSt3__13mapENS4_6vectorENS4_12basic_stringIcNS4_11char_traitsIcEENS4_9allocatorIcEEEEbxydSA_NS0_14adl_serializerENS6_IhNSA_IhEEEEvEEE12dump_escapedERKSC_b.cold.1, symObjAddr: 0x102D4, symBinAddr: 0x10024EF80, symSize: 0x28 }
  - { offsetInCU: 0x6346E, offset: 0xA26C7, size: 0x8, addend: 0x0, symName: __ZN8nlohmann16json_abi_v3_11_26detail10serializerINS0_10basic_jsonINSt3__13mapENS4_6vectorENS4_12basic_stringIcNS4_11char_traitsIcEENS4_9allocatorIcEEEEbxydSA_NS0_14adl_serializerENS6_IhNSA_IhEEEEvEEE12dump_escapedERKSC_b.cold.2, symObjAddr: 0x102FC, symBinAddr: 0x10024EFA8, symSize: 0x28 }
  - { offsetInCU: 0x634DA, offset: 0xA2733, size: 0x8, addend: 0x0, symName: __ZN8nlohmann16json_abi_v3_11_26detail10serializerINS0_10basic_jsonINSt3__13mapENS4_6vectorENS4_12basic_stringIcNS4_11char_traitsIcEENS4_9allocatorIcEEEEbxydSA_NS0_14adl_serializerENS6_IhNSA_IhEEEEvEEE12dump_integerIyLi0EEEvT_.cold.1, symObjAddr: 0x10324, symBinAddr: 0x10024EFD0, symSize: 0x28 }
  - { offsetInCU: 0x63514, offset: 0xA276D, size: 0x8, addend: 0x0, symName: __ZN8nlohmann16json_abi_v3_11_26detail10serializerINS0_10basic_jsonINSt3__13mapENS4_6vectorENS4_12basic_stringIcNS4_11char_traitsIcEENS4_9allocatorIcEEEEbxydSA_NS0_14adl_serializerENS6_IhNSA_IhEEEEvEEE12dump_integerIxLi0EEEvT_.cold.1, symObjAddr: 0x1034C, symBinAddr: 0x10024EFF8, symSize: 0x28 }
  - { offsetInCU: 0x63604, offset: 0xA285D, size: 0x8, addend: 0x0, symName: __ZN8nlohmann16json_abi_v3_11_26detail8to_charsIdEEPcS3_PKcT_.cold.1, symObjAddr: 0x10374, symBinAddr: 0x10024F020, symSize: 0x28 }
  - { offsetInCU: 0x6361C, offset: 0xA2875, size: 0x8, addend: 0x0, symName: __ZN8nlohmann16json_abi_v3_11_26detail8to_charsIdEEPcS3_PKcT_.cold.2, symObjAddr: 0x1039C, symBinAddr: 0x10024F048, symSize: 0x28 }
  - { offsetInCU: 0x63634, offset: 0xA288D, size: 0x8, addend: 0x0, symName: __ZN8nlohmann16json_abi_v3_11_26detail8to_charsIdEEPcS3_PKcT_.cold.3, symObjAddr: 0x103C4, symBinAddr: 0x10024F070, symSize: 0x28 }
  - { offsetInCU: 0x6364C, offset: 0xA28A5, size: 0x8, addend: 0x0, symName: __ZN8nlohmann16json_abi_v3_11_26detail8to_charsIdEEPcS3_PKcT_.cold.4, symObjAddr: 0x103EC, symBinAddr: 0x10024F098, symSize: 0x28 }
  - { offsetInCU: 0x63664, offset: 0xA28BD, size: 0x8, addend: 0x0, symName: __ZN8nlohmann16json_abi_v3_11_26detail8to_charsIdEEPcS3_PKcT_.cold.5, symObjAddr: 0x10414, symBinAddr: 0x10024F0C0, symSize: 0x28 }
  - { offsetInCU: 0x6367C, offset: 0xA28D5, size: 0x8, addend: 0x0, symName: __ZN8nlohmann16json_abi_v3_11_26detail9dtoa_impl6grisu2IdEEvPcRiS5_T_.cold.1, symObjAddr: 0x1043C, symBinAddr: 0x10024F0E8, symSize: 0x28 }
  - { offsetInCU: 0x63694, offset: 0xA28ED, size: 0x8, addend: 0x0, symName: __ZN8nlohmann16json_abi_v3_11_26detail9dtoa_impl6grisu2IdEEvPcRiS5_T_.cold.2, symObjAddr: 0x10464, symBinAddr: 0x10024F110, symSize: 0x28 }
  - { offsetInCU: 0x636AC, offset: 0xA2905, size: 0x8, addend: 0x0, symName: __ZN8nlohmann16json_abi_v3_11_26detail9dtoa_impl13format_bufferEPciiii.cold.1, symObjAddr: 0x1048C, symBinAddr: 0x10024F138, symSize: 0x28 }
  - { offsetInCU: 0x636C4, offset: 0xA291D, size: 0x8, addend: 0x0, symName: __ZN8nlohmann16json_abi_v3_11_26detail9dtoa_impl13format_bufferEPciiii.cold.2, symObjAddr: 0x104B4, symBinAddr: 0x10024F160, symSize: 0x28 }
  - { offsetInCU: 0x636DC, offset: 0xA2935, size: 0x8, addend: 0x0, symName: __ZN8nlohmann16json_abi_v3_11_26detail9dtoa_impl13format_bufferEPciiii.cold.5, symObjAddr: 0x1052C, symBinAddr: 0x10024F1D8, symSize: 0x28 }
  - { offsetInCU: 0x636F4, offset: 0xA294D, size: 0x8, addend: 0x0, symName: __ZN8nlohmann16json_abi_v3_11_26detail9dtoa_impl13format_bufferEPciiii.cold.3, symObjAddr: 0x104DC, symBinAddr: 0x10024F188, symSize: 0x28 }
  - { offsetInCU: 0x63723, offset: 0xA297C, size: 0x8, addend: 0x0, symName: __ZN8nlohmann16json_abi_v3_11_26detail9dtoa_impl13format_bufferEPciiii.cold.4, symObjAddr: 0x10504, symBinAddr: 0x10024F1B0, symSize: 0x28 }
  - { offsetInCU: 0x637CF, offset: 0xA2A28, size: 0x8, addend: 0x0, symName: __ZN8nlohmann16json_abi_v3_11_26detail9dtoa_impl18compute_boundariesIdEENS2_10boundariesET_.cold.1, symObjAddr: 0x10554, symBinAddr: 0x10024F200, symSize: 0x28 }
  - { offsetInCU: 0x637E7, offset: 0xA2A40, size: 0x8, addend: 0x0, symName: __ZN8nlohmann16json_abi_v3_11_26detail9dtoa_impl5diyfp9normalizeES3_, symObjAddr: 0xEA8C, symBinAddr: 0x1000122A4, symSize: 0x54 }
  - { offsetInCU: 0x6380C, offset: 0xA2A65, size: 0x8, addend: 0x0, symName: __ZN8nlohmann16json_abi_v3_11_26detail9dtoa_impl5diyfp12normalize_toERKS3_i, symObjAddr: 0xEAE0, symBinAddr: 0x1000122F8, symSize: 0x6C }
  - { offsetInCU: 0x63852, offset: 0xA2AAB, size: 0x8, addend: 0x0, symName: __ZN8nlohmann16json_abi_v3_11_26detail9dtoa_impl18compute_boundariesIdEENS2_10boundariesET_.cold.2, symObjAddr: 0x1057C, symBinAddr: 0x10024F228, symSize: 0x28 }
  - { offsetInCU: 0x6386A, offset: 0xA2AC3, size: 0x8, addend: 0x0, symName: __ZN8nlohmann16json_abi_v3_11_26detail9dtoa_impl5diyfp3mulERKS3_S5_, symObjAddr: 0xEC00, symBinAddr: 0x100012418, symSize: 0x60 }
  - { offsetInCU: 0x6398A, offset: 0xA2BE3, size: 0x8, addend: 0x0, symName: __ZN8nlohmann16json_abi_v3_11_26detail9dtoa_impl6grisu2EPcRiS4_NS2_5diyfpES5_S5_.cold.2, symObjAddr: 0x105CC, symBinAddr: 0x10024F278, symSize: 0x28 }
  - { offsetInCU: 0x639A2, offset: 0xA2BFB, size: 0x8, addend: 0x0, symName: __ZN8nlohmann16json_abi_v3_11_26detail9dtoa_impl6grisu2EPcRiS4_NS2_5diyfpES5_S5_.cold.1, symObjAddr: 0x105A4, symBinAddr: 0x10024F250, symSize: 0x28 }
  - { offsetInCU: 0x639E0, offset: 0xA2C39, size: 0x8, addend: 0x0, symName: __ZN8nlohmann16json_abi_v3_11_26detail9dtoa_impl36get_cached_power_for_binary_exponentEi.cold.1, symObjAddr: 0x105F4, symBinAddr: 0x10024F2A0, symSize: 0x28 }
  - { offsetInCU: 0x639F8, offset: 0xA2C51, size: 0x8, addend: 0x0, symName: __ZN8nlohmann16json_abi_v3_11_26detail9dtoa_impl36get_cached_power_for_binary_exponentEi.cold.2, symObjAddr: 0x1061C, symBinAddr: 0x10024F2C8, symSize: 0x28 }
  - { offsetInCU: 0x63A10, offset: 0xA2C69, size: 0x8, addend: 0x0, symName: __ZN8nlohmann16json_abi_v3_11_26detail9dtoa_impl36get_cached_power_for_binary_exponentEi.cold.3, symObjAddr: 0x10644, symBinAddr: 0x10024F2F0, symSize: 0x28 }
  - { offsetInCU: 0x63A28, offset: 0xA2C81, size: 0x8, addend: 0x0, symName: __ZN8nlohmann16json_abi_v3_11_26detail9dtoa_impl36get_cached_power_for_binary_exponentEi.cold.6, symObjAddr: 0x106BC, symBinAddr: 0x10024F368, symSize: 0x28 }
  - { offsetInCU: 0x63A40, offset: 0xA2C99, size: 0x8, addend: 0x0, symName: __ZN8nlohmann16json_abi_v3_11_26detail9dtoa_impl36get_cached_power_for_binary_exponentEi.cold.4, symObjAddr: 0x1066C, symBinAddr: 0x10024F318, symSize: 0x28 }
  - { offsetInCU: 0x63A58, offset: 0xA2CB1, size: 0x8, addend: 0x0, symName: __ZN8nlohmann16json_abi_v3_11_26detail9dtoa_impl36get_cached_power_for_binary_exponentEi.cold.5, symObjAddr: 0x10694, symBinAddr: 0x10024F340, symSize: 0x28 }
  - { offsetInCU: 0x63A75, offset: 0xA2CCE, size: 0x8, addend: 0x0, symName: __ZN8nlohmann16json_abi_v3_11_26detail9dtoa_impl5diyfp3subERKS3_S5_, symObjAddr: 0xEEF8, symBinAddr: 0x100012710, symSize: 0x6C }
  - { offsetInCU: 0x63AAA, offset: 0xA2D03, size: 0x8, addend: 0x0, symName: __ZN8nlohmann16json_abi_v3_11_26detail9dtoa_impl16grisu2_digit_genEPcRiS4_NS2_5diyfpES5_S5_.cold.4, symObjAddr: 0x1075C, symBinAddr: 0x10024F408, symSize: 0x28 }
  - { offsetInCU: 0x63AC2, offset: 0xA2D1B, size: 0x8, addend: 0x0, symName: __ZN8nlohmann16json_abi_v3_11_26detail9dtoa_impl16grisu2_digit_genEPcRiS4_NS2_5diyfpES5_S5_.cold.5, symObjAddr: 0x10784, symBinAddr: 0x10024F430, symSize: 0x28 }
  - { offsetInCU: 0x63ADA, offset: 0xA2D33, size: 0x8, addend: 0x0, symName: __ZN8nlohmann16json_abi_v3_11_26detail9dtoa_impl16grisu2_digit_genEPcRiS4_NS2_5diyfpES5_S5_.cold.6, symObjAddr: 0x107AC, symBinAddr: 0x10024F458, symSize: 0x28 }
  - { offsetInCU: 0x63AF2, offset: 0xA2D4B, size: 0x8, addend: 0x0, symName: __ZN8nlohmann16json_abi_v3_11_26detail9dtoa_impl16grisu2_digit_genEPcRiS4_NS2_5diyfpES5_S5_.cold.1, symObjAddr: 0x106E4, symBinAddr: 0x10024F390, symSize: 0x28 }
  - { offsetInCU: 0x63B0A, offset: 0xA2D63, size: 0x8, addend: 0x0, symName: __ZN8nlohmann16json_abi_v3_11_26detail9dtoa_impl16grisu2_digit_genEPcRiS4_NS2_5diyfpES5_S5_.cold.2, symObjAddr: 0x1070C, symBinAddr: 0x10024F3B8, symSize: 0x28 }
  - { offsetInCU: 0x63B22, offset: 0xA2D7B, size: 0x8, addend: 0x0, symName: __ZN8nlohmann16json_abi_v3_11_26detail9dtoa_impl16grisu2_digit_genEPcRiS4_NS2_5diyfpES5_S5_.cold.3, symObjAddr: 0x10734, symBinAddr: 0x10024F3E0, symSize: 0x28 }
  - { offsetInCU: 0x63B3A, offset: 0xA2D93, size: 0x8, addend: 0x0, symName: __ZN8nlohmann16json_abi_v3_11_26detail9dtoa_impl16grisu2_digit_genEPcRiS4_NS2_5diyfpES5_S5_.cold.7, symObjAddr: 0x107D4, symBinAddr: 0x10024F480, symSize: 0x28 }
  - { offsetInCU: 0x63B52, offset: 0xA2DAB, size: 0x8, addend: 0x0, symName: __ZN8nlohmann16json_abi_v3_11_26detail9dtoa_impl12grisu2_roundEPciyyyy.cold.5, symObjAddr: 0x1089C, symBinAddr: 0x10024F548, symSize: 0x28 }
  - { offsetInCU: 0x63B6A, offset: 0xA2DC3, size: 0x8, addend: 0x0, symName: __ZN8nlohmann16json_abi_v3_11_26detail9dtoa_impl12grisu2_roundEPciyyyy.cold.1, symObjAddr: 0x107FC, symBinAddr: 0x10024F4A8, symSize: 0x28 }
  - { offsetInCU: 0x63B82, offset: 0xA2DDB, size: 0x8, addend: 0x0, symName: __ZN8nlohmann16json_abi_v3_11_26detail9dtoa_impl12grisu2_roundEPciyyyy.cold.2, symObjAddr: 0x10824, symBinAddr: 0x10024F4D0, symSize: 0x28 }
  - { offsetInCU: 0x63B9A, offset: 0xA2DF3, size: 0x8, addend: 0x0, symName: __ZN8nlohmann16json_abi_v3_11_26detail9dtoa_impl12grisu2_roundEPciyyyy.cold.3, symObjAddr: 0x1084C, symBinAddr: 0x10024F4F8, symSize: 0x28 }
  - { offsetInCU: 0x63BB2, offset: 0xA2E0B, size: 0x8, addend: 0x0, symName: __ZN8nlohmann16json_abi_v3_11_26detail9dtoa_impl12grisu2_roundEPciyyyy.cold.4, symObjAddr: 0x10874, symBinAddr: 0x10024F520, symSize: 0x28 }
  - { offsetInCU: 0x63BCA, offset: 0xA2E23, size: 0x8, addend: 0x0, symName: __ZNK8nlohmann16json_abi_v3_11_26detail9iter_implINS0_10basic_jsonINSt3__13mapENS4_6vectorENS4_12basic_stringIcNS4_11char_traitsIcEENS4_9allocatorIcEEEEbxydSA_NS0_14adl_serializerENS6_IhNSA_IhEEEEvEEEdeEv.cold.3, symObjAddr: 0x10914, symBinAddr: 0x10024F5C0, symSize: 0x28 }
  - { offsetInCU: 0x63BE2, offset: 0xA2E3B, size: 0x8, addend: 0x0, symName: __ZNK8nlohmann16json_abi_v3_11_26detail9iter_implINS0_10basic_jsonINSt3__13mapENS4_6vectorENS4_12basic_stringIcNS4_11char_traitsIcEENS4_9allocatorIcEEEEbxydSA_NS0_14adl_serializerENS6_IhNSA_IhEEEEvEEEdeEv.cold.1, symObjAddr: 0x108C4, symBinAddr: 0x10024F570, symSize: 0x28 }
  - { offsetInCU: 0x63BFA, offset: 0xA2E53, size: 0x8, addend: 0x0, symName: __ZNK8nlohmann16json_abi_v3_11_26detail9iter_implINS0_10basic_jsonINSt3__13mapENS4_6vectorENS4_12basic_stringIcNS4_11char_traitsIcEENS4_9allocatorIcEEEEbxydSA_NS0_14adl_serializerENS6_IhNSA_IhEEEEvEEEdeEv.cold.2, symObjAddr: 0x108EC, symBinAddr: 0x10024F598, symSize: 0x28 }
  - { offsetInCU: 0x63F31, offset: 0xA318A, size: 0x8, addend: 0x0, symName: __ZNSt3__13mapINS_12basic_stringIcNS_11char_traitsIcEENS_9allocatorIcEEEEiNS_4lessIS6_EENS4_INS_4pairIKS6_iEEEEEC2B8ue170006ESt16initializer_listISB_ERKS8_, symObjAddr: 0xF4DC, symBinAddr: 0x100012CF4, symSize: 0x7C }
  - { offsetInCU: 0x64160, offset: 0xA33B9, size: 0x8, addend: 0x0, symName: __ZNSt3__16__treeINS_12__value_typeINS_12basic_stringIcNS_11char_traitsIcEENS_9allocatorIcEEEEiEENS_19__map_value_compareIS7_S8_NS_4lessIS7_EELb1EEENS5_IS8_EEE30__emplace_hint_unique_key_argsIS7_JRKNS_4pairIKS7_iEEEEENSG_INS_15__tree_iteratorIS8_PNS_11__tree_nodeIS8_PvEElEEbEENS_21__tree_const_iteratorIS8_SP_lEERKT_DpOT0_, symObjAddr: 0xF558, symBinAddr: 0x100012D70, symSize: 0x80 }
  - { offsetInCU: 0x64338, offset: 0xA3591, size: 0x8, addend: 0x0, symName: __ZNSt3__16__treeINS_12__value_typeINS_12basic_stringIcNS_11char_traitsIcEENS_9allocatorIcEEEEiEENS_19__map_value_compareIS7_S8_NS_4lessIS7_EELb1EEENS5_IS8_EEE12__find_equalIS7_EERPNS_16__tree_node_baseIPvEENS_21__tree_const_iteratorIS8_PNS_11__tree_nodeIS8_SH_EElEERPNS_15__tree_end_nodeISJ_EESK_RKT_, symObjAddr: 0xF5D8, symBinAddr: 0x100012DF0, symSize: 0x184 }
  - { offsetInCU: 0x64790, offset: 0xA39E9, size: 0x8, addend: 0x0, symName: __ZNSt3__16__treeINS_12__value_typeINS_12basic_stringIcNS_11char_traitsIcEENS_9allocatorIcEEEEiEENS_19__map_value_compareIS7_S8_NS_4lessIS7_EELb1EEENS5_IS8_EEE16__construct_nodeIJRKNS_4pairIKS7_iEEEEENS_10unique_ptrINS_11__tree_nodeIS8_PvEENS_22__tree_node_destructorINS5_ISO_EEEEEEDpOT_, symObjAddr: 0xF75C, symBinAddr: 0x100012F74, symSize: 0xA4 }
  - { offsetInCU: 0x64B2B, offset: 0xA3D84, size: 0x8, addend: 0x0, symName: __ZNSt3__16__treeINS_12__value_typeINS_12basic_stringIcNS_11char_traitsIcEENS_9allocatorIcEEEEiEENS_19__map_value_compareIS7_S8_NS_4lessIS7_EELb1EEENS5_IS8_EEE16__insert_node_atEPNS_15__tree_end_nodeIPNS_16__tree_node_baseIPvEEEERSJ_SJ_, symObjAddr: 0xF800, symBinAddr: 0x100013018, symSize: 0x54 }
  - { offsetInCU: 0x64CB4, offset: 0xA3F0D, size: 0x8, addend: 0x0, symName: __ZNSt3__16__treeINS_12__value_typeINS_12basic_stringIcNS_11char_traitsIcEENS_9allocatorIcEEEEiEENS_19__map_value_compareIS7_S8_NS_4lessIS7_EELb1EEENS5_IS8_EEE12__find_equalIS7_EERPNS_16__tree_node_baseIPvEERPNS_15__tree_end_nodeISJ_EERKT_, symObjAddr: 0xF854, symBinAddr: 0x10001306C, symSize: 0x90 }
  - { offsetInCU: 0x650E3, offset: 0xA433C, size: 0x8, addend: 0x0, symName: __ZNSt3__122__tree_node_destructorINS_9allocatorINS_11__tree_nodeINS_12__value_typeINS_12basic_stringIcNS_11char_traitsIcEENS1_IcEEEEiEEPvEEEEEclB8ue170006EPSB_, symObjAddr: 0xF8E4, symBinAddr: 0x1000130FC, symSize: 0x4C }
  - { offsetInCU: 0x65487, offset: 0xA46E0, size: 0x8, addend: 0x0, symName: __ZNSt3__16__treeINS_12__value_typeINS_12basic_stringIcNS_11char_traitsIcEENS_9allocatorIcEEEEiEENS_19__map_value_compareIS7_S8_NS_4lessIS7_EELb1EEENS5_IS8_EEE16__construct_nodeIJRKNS_21piecewise_construct_tENS_5tupleIJRKS7_EEENSJ_IJEEEEEENS_10unique_ptrINS_11__tree_nodeIS8_PvEENS_22__tree_node_destructorINS5_ISR_EEEEEEDpOT_, symObjAddr: 0xFA14, symBinAddr: 0x10001322C, symSize: 0xA4 }
  - { offsetInCU: 0x65A0F, offset: 0xA4C68, size: 0x8, addend: 0x0, symName: _OUTLINED_FUNCTION_0, symObjAddr: 0x1093C, symBinAddr: 0x1000132D0, symSize: 0x8 }
  - { offsetInCU: 0x65A27, offset: 0xA4C80, size: 0x8, addend: 0x0, symName: _OUTLINED_FUNCTION_1, symObjAddr: 0x10944, symBinAddr: 0x1000132D8, symSize: 0x8 }
  - { offsetInCU: 0x65A3F, offset: 0xA4C98, size: 0x8, addend: 0x0, symName: _OUTLINED_FUNCTION_2, symObjAddr: 0x1094C, symBinAddr: 0x1000132E0, symSize: 0x8 }
  - { offsetInCU: 0x26, offset: 0xA4DE7, size: 0x8, addend: 0x0, symName: __ZN9sslSocket7connectENSt3__112basic_stringIcNS0_11char_traitsIcEENS0_9allocatorIcEEEEi, symObjAddr: 0x0, symBinAddr: 0x1000135C0, symSize: 0x1B8 }
  - { offsetInCU: 0x5249, offset: 0xAA00A, size: 0x8, addend: 0x0, symName: __ZN9sslSocket7connectENSt3__112basic_stringIcNS0_11char_traitsIcEENS0_9allocatorIcEEEEi, symObjAddr: 0x0, symBinAddr: 0x1000135C0, symSize: 0x1B8 }
  - { offsetInCU: 0x5A67, offset: 0xAA828, size: 0x8, addend: 0x0, symName: __ZN9sslSocket7log_sslEv, symObjAddr: 0x1B8, symBinAddr: 0x100013778, symSize: 0x60 }
  - { offsetInCU: 0x5B30, offset: 0xAA8F1, size: 0x8, addend: 0x0, symName: __ZN9sslSocket5closeEv, symObjAddr: 0x218, symBinAddr: 0x1000137D8, symSize: 0xC }
  - { offsetInCU: 0x5B54, offset: 0xAA915, size: 0x8, addend: 0x0, symName: __ZN9sslSocket4sendEPKcmi, symObjAddr: 0x224, symBinAddr: 0x1000137E4, symSize: 0x48 }
  - { offsetInCU: 0x5C2F, offset: 0xAA9F0, size: 0x8, addend: 0x0, symName: __ZN9sslSocket4recvEPcmi, symObjAddr: 0x26C, symBinAddr: 0x10001382C, symSize: 0x98 }
  - { offsetInCU: 0x5D29, offset: 0xAAAEA, size: 0x8, addend: 0x0, symName: __ZN9sslSocketD1Ev, symObjAddr: 0x304, symBinAddr: 0x1000138C4, symSize: 0x4 }
  - { offsetInCU: 0x5D4C, offset: 0xAAB0D, size: 0x8, addend: 0x0, symName: __ZN9sslSocketD1Ev, symObjAddr: 0x304, symBinAddr: 0x1000138C4, symSize: 0x4 }
  - { offsetInCU: 0x5D84, offset: 0xAAB45, size: 0x8, addend: 0x0, symName: __ZN9sslSocketD0Ev, symObjAddr: 0x308, symBinAddr: 0x1000138C8, symSize: 0x14 }
  - { offsetInCU: 0x5DEB, offset: 0xAABAC, size: 0x8, addend: 0x0, symName: __ZN9tcpSocket9getSockfdEv, symObjAddr: 0x31C, symBinAddr: 0x1000138DC, symSize: 0x8 }
  - { offsetInCU: 0x133E7, offset: 0xBE16E, size: 0x8, addend: 0x0, symName: __ZN7CFGGAMEC2Ei, symObjAddr: 0x0, symBinAddr: 0x1000138E4, symSize: 0xA38 }
  - { offsetInCU: 0x17E78, offset: 0xC2BFF, size: 0x8, addend: 0x0, symName: __ZN7CFGGAME6CfgDirEiPcS0_, symObjAddr: 0xA38, symBinAddr: 0x10001431C, symSize: 0x170 }
  - { offsetInCU: 0x188ED, offset: 0xC3674, size: 0x8, addend: 0x0, symName: __ZNSt3__16__treeINS_12__value_typeINS_12basic_stringIcNS_11char_traitsIcEENS_9allocatorIcEEEEP7CONTROLEENS_19__map_value_compareIS7_SA_NS_4lessIS7_EELb1EEENS5_ISA_EEE25__emplace_unique_key_argsIS7_JRKNS_21piecewise_construct_tENS_5tupleIJOS7_EEENSL_IJEEEEEENS_4pairINS_15__tree_iteratorISA_PNS_11__tree_nodeISA_PvEElEEbEERKT_DpOT0_, symObjAddr: 0x1A30, symBinAddr: 0x1000150A8, symSize: 0x98 }
  - { offsetInCU: 0x18E12, offset: 0xC3B99, size: 0x8, addend: 0x0, symName: __ZN8CTRLVIEWD2Ev, symObjAddr: 0x17EC, symBinAddr: 0x100014F20, symSize: 0xEC }
  - { offsetInCU: 0x18E23, offset: 0xC3BAA, size: 0x8, addend: 0x0, symName: __ZN8CTRLVIEWD2Ev, symObjAddr: 0x17EC, symBinAddr: 0x100014F20, symSize: 0xEC }
  - { offsetInCU: 0x1957D, offset: 0xC4304, size: 0x8, addend: 0x0, symName: __ZN7CFGGAMEC1Ei, symObjAddr: 0xBA8, symBinAddr: 0x10001448C, symSize: 0x4 }
  - { offsetInCU: 0x195B9, offset: 0xC4340, size: 0x8, addend: 0x0, symName: __ZN7CFGGAMEC1Ei, symObjAddr: 0xBA8, symBinAddr: 0x10001448C, symSize: 0x4 }
  - { offsetInCU: 0x196F8, offset: 0xC447F, size: 0x8, addend: 0x0, symName: __ZN7CFGGAME7OnEventENSt3__112basic_stringIcNS0_11char_traitsIcEENS0_9allocatorIcEEEEi, symObjAddr: 0xBAC, symBinAddr: 0x100014490, symSize: 0x5E0 }
  - { offsetInCU: 0x1B5B4, offset: 0xC633B, size: 0x8, addend: 0x0, symName: __ZN7CFGGAMED1Ev, symObjAddr: 0x118C, symBinAddr: 0x100014A70, symSize: 0x4 }
  - { offsetInCU: 0x1B5D8, offset: 0xC635F, size: 0x8, addend: 0x0, symName: __ZN7CFGGAMED1Ev, symObjAddr: 0x118C, symBinAddr: 0x100014A70, symSize: 0x4 }
  - { offsetInCU: 0x1B5F5, offset: 0xC637C, size: 0x8, addend: 0x0, symName: __ZN7CFGGAMED1Ev, symObjAddr: 0x118C, symBinAddr: 0x100014A70, symSize: 0x4 }
  - { offsetInCU: 0x1B614, offset: 0xC639B, size: 0x8, addend: 0x0, symName: __ZN7CFGGAMED1Ev, symObjAddr: 0x118C, symBinAddr: 0x100014A70, symSize: 0x4 }
  - { offsetInCU: 0x1B643, offset: 0xC63CA, size: 0x8, addend: 0x0, symName: __ZN7CFGGAMED0Ev, symObjAddr: 0x1190, symBinAddr: 0x100014A74, symSize: 0x14 }
  - { offsetInCU: 0x1B802, offset: 0xC6589, size: 0x8, addend: 0x0, symName: __ZN8CTRLVIEW6KeycmdEii, symObjAddr: 0x11A4, symBinAddr: 0x100014A88, symSize: 0x138 }
  - { offsetInCU: 0x1BD8D, offset: 0xC6B14, size: 0x8, addend: 0x0, symName: __ZN8CTRLVIEW4GrabE5POINTbPS0_, symObjAddr: 0x12DC, symBinAddr: 0x100014BC0, symSize: 0x190 }
  - { offsetInCU: 0x1C50A, offset: 0xC7291, size: 0x8, addend: 0x0, symName: __ZN8CTRLVIEW11QueryCursorE4RECT, symObjAddr: 0x146C, symBinAddr: 0x100014D50, symSize: 0x1C0 }
  - { offsetInCU: 0x1CAFC, offset: 0xC7883, size: 0x8, addend: 0x0, symName: __ZN4VIEW14GetCanvasWidthEv, symObjAddr: 0x162C, symBinAddr: 0x100014F10, symSize: 0x8 }
  - { offsetInCU: 0x1CB26, offset: 0xC78AD, size: 0x8, addend: 0x0, symName: __ZN4VIEW14GetCanvasWidthEv, symObjAddr: 0x162C, symBinAddr: 0x100014F10, symSize: 0x8 }
  - { offsetInCU: 0x1CB5A, offset: 0xC78E1, size: 0x8, addend: 0x0, symName: __ZN4VIEW15GetCanvasHeightEv, symObjAddr: 0x1634, symBinAddr: 0x100014F18, symSize: 0x8 }
  - { offsetInCU: 0x1CB84, offset: 0xC790B, size: 0x8, addend: 0x0, symName: __ZN4VIEW15GetCanvasHeightEv, symObjAddr: 0x1634, symBinAddr: 0x100014F18, symSize: 0x8 }
  - { offsetInCU: 0x1CE54, offset: 0xC7BDB, size: 0x8, addend: 0x0, symName: __ZNSt3__16__treeINS_12__value_typeINS_12basic_stringIcNS_11char_traitsIcEENS_9allocatorIcEEEEP7CONTROLEENS_19__map_value_compareIS7_SA_NS_4lessIS7_EELb1EEENS5_ISA_EEE7destroyEPNS_11__tree_nodeISA_PvEE, symObjAddr: 0x1924, symBinAddr: 0x100015058, symSize: 0x50 }
  - { offsetInCU: 0x1D173, offset: 0xC7EFA, size: 0x8, addend: 0x0, symName: __ZN8CTRLVIEWD1Ev, symObjAddr: 0x18D8, symBinAddr: 0x10001500C, symSize: 0x4 }
  - { offsetInCU: 0x1D197, offset: 0xC7F1E, size: 0x8, addend: 0x0, symName: __ZN8CTRLVIEWD1Ev, symObjAddr: 0x18D8, symBinAddr: 0x10001500C, symSize: 0x4 }
  - { offsetInCU: 0x1D1C4, offset: 0xC7F4B, size: 0x8, addend: 0x0, symName: __ZN8CTRLVIEWD0Ev, symObjAddr: 0x18DC, symBinAddr: 0x100015010, symSize: 0x14 }
  - { offsetInCU: 0x1D220, offset: 0xC7FA7, size: 0x8, addend: 0x0, symName: __ZN8CTRLVIEW7OnEventENSt3__112basic_stringIcNS0_11char_traitsIcEENS0_9allocatorIcEEEEi, symObjAddr: 0x18F0, symBinAddr: 0x100015024, symSize: 0x34 }
  - { offsetInCU: 0x1D6DC, offset: 0xC8463, size: 0x8, addend: 0x0, symName: __ZNSt3__16__treeINS_12__value_typeINS_12basic_stringIcNS_11char_traitsIcEENS_9allocatorIcEEEEP7CONTROLEENS_19__map_value_compareIS7_SA_NS_4lessIS7_EELb1EEENS5_ISA_EEE12__find_equalIS7_EERPNS_16__tree_node_baseIPvEERPNS_15__tree_end_nodeISL_EERKT_, symObjAddr: 0x1AC8, symBinAddr: 0x100015140, symSize: 0x90 }
  - { offsetInCU: 0x1D867, offset: 0xC85EE, size: 0x8, addend: 0x0, symName: __ZNSt3__16__treeINS_12__value_typeINS_12basic_stringIcNS_11char_traitsIcEENS_9allocatorIcEEEEP7CONTROLEENS_19__map_value_compareIS7_SA_NS_4lessIS7_EELb1EEENS5_ISA_EEE16__insert_node_atEPNS_15__tree_end_nodeIPNS_16__tree_node_baseIPvEEEERSL_SL_, symObjAddr: 0x1B58, symBinAddr: 0x1000151D0, symSize: 0x54 }
  - { offsetInCU: 0x3A, offset: 0xC875F, size: 0x8, addend: 0x0, symName: __ZN7ViewMan7c_focusE, symObjAddr: 0xB3B30, symBinAddr: 0x1003223E8, symSize: 0x0 }
  - { offsetInCU: 0xF10F, offset: 0xD7834, size: 0x8, addend: 0x0, symName: __ZN7ViewMan7c_whereE, symObjAddr: 0x3BE0, symBinAddr: 0x10031C938, symSize: 0x0 }
  - { offsetInCU: 0xF123, offset: 0xD7848, size: 0x8, addend: 0x0, symName: __ZN7ViewMan9c_view_idE, symObjAddr: 0xB3B38, symBinAddr: 0x1003223F0, symSize: 0x0 }
  - { offsetInCU: 0xF137, offset: 0xD785C, size: 0x8, addend: 0x0, symName: __ZN7ViewMan11c_tbl_viewsE, symObjAddr: 0xB3B40, symBinAddr: 0x1003223F8, symSize: 0x0 }
  - { offsetInCU: 0xF152, offset: 0xD7877, size: 0x8, addend: 0x0, symName: _viewman, symObjAddr: 0xB3B48, symBinAddr: 0x100322400, symSize: 0x0 }
  - { offsetInCU: 0xF15B, offset: 0xD7880, size: 0x8, addend: 0x0, symName: __Z11getViewNamei, symObjAddr: 0x12F8, symBinAddr: 0x100016244, symSize: 0xA0 }
  - { offsetInCU: 0xF187, offset: 0xD78AC, size: 0x8, addend: 0x0, symName: __ZZ11getViewNameiE9view_name, symObjAddr: 0xB3B58, symBinAddr: 0x10032A060, symSize: 0x0 }
  - { offsetInCU: 0xF205, offset: 0xD792A, size: 0x8, addend: 0x0, symName: __ZL11s_tbl_views, symObjAddr: 0xB3B50, symBinAddr: 0x10032A058, symSize: 0x0 }
  - { offsetInCU: 0xF22B, offset: 0xD7950, size: 0x8, addend: 0x0, symName: __ZL14tbl_view_count, symObjAddr: 0xB3B54, symBinAddr: 0x10032A05C, symSize: 0x0 }
  - { offsetInCU: 0x12BDD, offset: 0xDB302, size: 0x8, addend: 0x0, symName: __ZN7ViewMan4LoadEv, symObjAddr: 0x8, symBinAddr: 0x100015224, symSize: 0x34 }
  - { offsetInCU: 0x12C14, offset: 0xDB339, size: 0x8, addend: 0x0, symName: __ZN7ViewMan9LoadTableEv, symObjAddr: 0x3C, symBinAddr: 0x100015258, symSize: 0x180 }
  - { offsetInCU: 0x13022, offset: 0xDB747, size: 0x8, addend: 0x0, symName: __ZN7ViewMan9DumpTableEv, symObjAddr: 0x1BC, symBinAddr: 0x1000153D8, symSize: 0x184 }
  - { offsetInCU: 0x136CB, offset: 0xDBDF0, size: 0x8, addend: 0x0, symName: __ZN7ViewMan12ReleaseClassEit, symObjAddr: 0x340, symBinAddr: 0x10001555C, symSize: 0xCC }
  - { offsetInCU: 0x137B5, offset: 0xDBEDA, size: 0x8, addend: 0x0, symName: __ZN7ViewMan7ReleaseEi, symObjAddr: 0x450, symBinAddr: 0x100015628, symSize: 0x54 }
  - { offsetInCU: 0x13876, offset: 0xDBF9B, size: 0x8, addend: 0x0, symName: __ZN7ViewMan4LoadENSt3__112basic_stringIcNS0_11char_traitsIcEENS0_9allocatorIcEEEE, symObjAddr: 0x4F0, symBinAddr: 0x10001567C, symSize: 0x34 }
  - { offsetInCU: 0x1397C, offset: 0xDC0A1, size: 0x8, addend: 0x0, symName: __ZN7ViewMan9getViewIdEPKc, symObjAddr: 0x524, symBinAddr: 0x1000156B0, symSize: 0x78 }
  - { offsetInCU: 0x139C3, offset: 0xDC0E8, size: 0x8, addend: 0x0, symName: __ZN7ViewMan4LoadEi, symObjAddr: 0x59C, symBinAddr: 0x100015728, symSize: 0x2F0 }
  - { offsetInCU: 0x1425F, offset: 0xDC984, size: 0x8, addend: 0x0, symName: __ZN7ViewMan8SetFocusEi, symObjAddr: 0x8C8, symBinAddr: 0x100015A54, symSize: 0x84 }
  - { offsetInCU: 0x144F6, offset: 0xDCC1B, size: 0x8, addend: 0x0, symName: __ZN10MachineSet6StatusEv, symObjAddr: 0x1B68, symBinAddr: 0x1000162E4, symSize: 0xC0 }
  - { offsetInCU: 0x14507, offset: 0xDCC2C, size: 0x8, addend: 0x0, symName: __ZN7ViewMan11GetViewDescEi, symObjAddr: 0x88C, symBinAddr: 0x100015A18, symSize: 0x3C }
  - { offsetInCU: 0x1457A, offset: 0xDCC9F, size: 0x8, addend: 0x0, symName: __ZN7ViewMan7GetViewEi, symObjAddr: 0x9C4, symBinAddr: 0x100015AD8, symSize: 0x40 }
  - { offsetInCU: 0x145AA, offset: 0xDCCCF, size: 0x8, addend: 0x0, symName: __ZN7ViewMan8GetFocusEv, symObjAddr: 0xA04, symBinAddr: 0x100015B18, symSize: 0xC }
  - { offsetInCU: 0x145D4, offset: 0xDCCF9, size: 0x8, addend: 0x0, symName: __ZN7ViewMan8GetWhereEv, symObjAddr: 0xA10, symBinAddr: 0x100015B24, symSize: 0xC }
  - { offsetInCU: 0x14614, offset: 0xDCD39, size: 0x8, addend: 0x0, symName: __ZN7ViewMan6StatusEv, symObjAddr: 0xA1C, symBinAddr: 0x100015B30, symSize: 0xC0 }
  - { offsetInCU: 0x14A4B, offset: 0xDD170, size: 0x8, addend: 0x0, symName: __ZN4VIEW6StatusEv, symObjAddr: 0xADC, symBinAddr: 0x100015BF0, symSize: 0x12C }
  - { offsetInCU: 0x15478, offset: 0xDDB9D, size: 0x8, addend: 0x0, symName: __ZN10MachineSet6StatusEv, symObjAddr: 0x1B68, symBinAddr: 0x1000162E4, symSize: 0xC0 }
  - { offsetInCU: 0x159FC, offset: 0xDE121, size: 0x8, addend: 0x0, symName: __ZN7ViewMan11ToggleTraceEv, symObjAddr: 0xC08, symBinAddr: 0x100015D1C, symSize: 0x38 }
  - { offsetInCU: 0x15A8A, offset: 0xDE1AF, size: 0x8, addend: 0x0, symName: __ZN10MachineSet8SetTraceEb, symObjAddr: 0x317C, symBinAddr: 0x1000178F8, symSize: 0x164 }
  - { offsetInCU: 0x1650D, offset: 0xDEC32, size: 0x8, addend: 0x0, symName: __ZN7ViewMan10GetWhereIdEv, symObjAddr: 0xC40, symBinAddr: 0x100015D54, symSize: 0xC }
  - { offsetInCU: 0x165B5, offset: 0xDECDA, size: 0x8, addend: 0x0, symName: __ZN7ViewMan7GetViewENSt3__112basic_stringIcNS0_11char_traitsIcEENS0_9allocatorIcEEEE, symObjAddr: 0xCE8, symBinAddr: 0x100015D60, symSize: 0x138 }
  - { offsetInCU: 0x168B2, offset: 0xDEFD7, size: 0x8, addend: 0x0, symName: __ZN7ViewMan10InvalidateEibb, symObjAddr: 0xF4C, symBinAddr: 0x100015E98, symSize: 0xE4 }
  - { offsetInCU: 0x169F5, offset: 0xDF11A, size: 0x8, addend: 0x0, symName: __ZN7ViewMan3HitE5POINT, symObjAddr: 0x1030, symBinAddr: 0x100015F7C, symSize: 0xE8 }
  - { offsetInCU: 0x16DDF, offset: 0xDF504, size: 0x8, addend: 0x0, symName: __ZN7ViewMan4TickEi, symObjAddr: 0x1118, symBinAddr: 0x100016064, symSize: 0x1D8 }
  - { offsetInCU: 0x16FB3, offset: 0xDF6D8, size: 0x8, addend: 0x0, symName: __ZN7ViewMan10SetHoldingEb, symObjAddr: 0x12F0, symBinAddr: 0x10001623C, symSize: 0x8 }
  - { offsetInCU: 0x172C0, offset: 0xDF9E5, size: 0x8, addend: 0x0, symName: __ZN7MACHINE6StatusEv, symObjAddr: 0x1C28, symBinAddr: 0x1000163A4, symSize: 0x540 }
  - { offsetInCU: 0x1A656, offset: 0xE2D7B, size: 0x8, addend: 0x0, symName: __ZN3WIP6StatusEv, symObjAddr: 0x2168, symBinAddr: 0x1000168E4, symSize: 0x430 }
  - { offsetInCU: 0x1CBE3, offset: 0xE5308, size: 0x8, addend: 0x0, symName: __ZN9REGISTERS6StatusEv, symObjAddr: 0x2598, symBinAddr: 0x100016D14, symSize: 0xBE4 }
  - { offsetInCU: 0x53, offset: 0xEBC43, size: 0x8, addend: 0x0, symName: _symbols, symObjAddr: 0xC1438, symBinAddr: 0x100322408, symSize: 0x0 }
  - { offsetInCU: 0x9289, offset: 0xF4E79, size: 0x8, addend: 0x0, symName: __ZNSt3__119__allocate_at_leastB8ue170006INS_9allocatorINS_12basic_stringIcNS_11char_traitsIcEENS1_IcEEEEEEEENS_19__allocation_resultINS_16allocator_traitsIT_E7pointerEEERSA_m, symObjAddr: 0x498, symBinAddr: 0x100017D98, symSize: 0x44 }
  - { offsetInCU: 0x931C, offset: 0xF4F0C, size: 0x8, addend: 0x0, symName: __ZNSt3__135__uninitialized_allocator_copy_implB8ue170006INS_9allocatorINS_12basic_stringIcNS_11char_traitsIcEENS1_IcEEEEEEPKS6_S9_PS6_EET2_RT_T0_T1_SB_, symObjAddr: 0x4DC, symBinAddr: 0x100017DDC, symSize: 0xBC }
  - { offsetInCU: 0x938C, offset: 0xF4F7C, size: 0x8, addend: 0x0, symName: __ZNSt3__135__uninitialized_allocator_copy_implB8ue170006INS_9allocatorINS_12basic_stringIcNS_11char_traitsIcEENS1_IcEEEEEEPKS6_S9_PS6_EET2_RT_T0_T1_SB_, symObjAddr: 0x4DC, symBinAddr: 0x100017DDC, symSize: 0xBC }
  - { offsetInCU: 0x9AEF, offset: 0xF56DF, size: 0x8, addend: 0x0, symName: __ZNSt3__135__uninitialized_allocator_copy_implB8ue170006INS_9allocatorINS_6vectorINS_12basic_stringIcNS_11char_traitsIcEENS1_IcEEEENS1_IS7_EEEEEEPKS9_SC_PS9_EET2_RT_T0_T1_SE_, symObjAddr: 0x11F4, symBinAddr: 0x100018A78, symSize: 0xBC }
  - { offsetInCU: 0x9EBA, offset: 0xF5AAA, size: 0x8, addend: 0x0, symName: __ZNSt3__135__uninitialized_allocator_copy_implB8ue170006INS_9allocatorINS_12basic_stringIcNS_11char_traitsIcEENS1_IcEEEEEEPS6_S8_S8_EET2_RT_T0_T1_S9_, symObjAddr: 0x1334, symBinAddr: 0x100018BB8, symSize: 0xBC }
  - { offsetInCU: 0xA6A8, offset: 0xF6298, size: 0x8, addend: 0x0, symName: __ZNSt3__119__allocate_at_leastB8ue170006INS_9allocatorIiEEEENS_19__allocation_resultINS_16allocator_traitsIT_E7pointerEEERS5_m, symObjAddr: 0x1F68, symBinAddr: 0x1000197EC, symSize: 0x34 }
  - { offsetInCU: 0xA750, offset: 0xF6340, size: 0x8, addend: 0x0, symName: __ZN5Lexer6letterEPi, symObjAddr: 0x1F9C, symBinAddr: 0x100019820, symSize: 0x78 }
  - { offsetInCU: 0xA763, offset: 0xF6353, size: 0x8, addend: 0x0, symName: __ZNSt3__120__throw_out_of_rangeB8ue170006EPKc, symObjAddr: 0x221C, symBinAddr: 0x100019AA0, symSize: 0x50 }
  - { offsetInCU: 0xF722, offset: 0xFB312, size: 0x8, addend: 0x0, symName: __ZNSt3__16vectorINS_12basic_stringIcNS_11char_traitsIcEENS_9allocatorIcEEEENS4_IS6_EEED1B8ue170006Ev, symObjAddr: 0x0, symBinAddr: 0x100017A5C, symSize: 0x34 }
  - { offsetInCU: 0xF7CA, offset: 0xFB3BA, size: 0x8, addend: 0x0, symName: __ZNSt3__16vectorINS_12basic_stringIcNS_11char_traitsIcEENS_9allocatorIcEEEENS4_IS6_EEE16__destroy_vectorclB8ue170006Ev, symObjAddr: 0x618, symBinAddr: 0x100017F18, symSize: 0x40 }
  - { offsetInCU: 0xFA56, offset: 0xFB646, size: 0x8, addend: 0x0, symName: __ZN15CodeblockParser13ParseStmtListENSt3__112basic_stringIcNS0_11char_traitsIcEENS0_9allocatorIcEEEE, symObjAddr: 0x34, symBinAddr: 0x100017A90, symSize: 0xAC }
  - { offsetInCU: 0x1007F, offset: 0xFBC6F, size: 0x8, addend: 0x0, symName: __ZN16_CodeblockParserC2ENSt3__112basic_stringIcNS0_11char_traitsIcEENS0_9allocatorIcEEEE, symObjAddr: 0x728, symBinAddr: 0x100017FAC, symSize: 0xACC }
  - { offsetInCU: 0x10090, offset: 0xFBC80, size: 0x8, addend: 0x0, symName: __ZN16_CodeblockParserC2ENSt3__112basic_stringIcNS0_11char_traitsIcEENS0_9allocatorIcEEEE, symObjAddr: 0x728, symBinAddr: 0x100017FAC, symSize: 0xACC }
  - { offsetInCU: 0x14E35, offset: 0x100A25, size: 0x8, addend: 0x0, symName: __ZN16_CodeblockParser9stmt_listEPP8AST_node, symObjAddr: 0xE0, symBinAddr: 0x100017B3C, symSize: 0xB4 }
  - { offsetInCU: 0x150CF, offset: 0x100CBF, size: 0x8, addend: 0x0, symName: __ZN16_CodeblockParserD2Ev, symObjAddr: 0x4704, symBinAddr: 0x10001BE4C, symSize: 0x58 }
  - { offsetInCU: 0x153E2, offset: 0x100FD2, size: 0x8, addend: 0x0, symName: __ZN16_CodeblockParser4stmtEPP8AST_node, symObjAddr: 0x234C, symBinAddr: 0x100019BD0, symSize: 0x4A0 }
  - { offsetInCU: 0x16CBC, offset: 0x1028AC, size: 0x8, addend: 0x0, symName: __ZN15CodeblockParser9ParseExprENSt3__112basic_stringIcNS0_11char_traitsIcEENS0_9allocatorIcEEEE, symObjAddr: 0x194, symBinAddr: 0x100017BF0, symSize: 0xB0 }
  - { offsetInCU: 0x17120, offset: 0x102D10, size: 0x8, addend: 0x0, symName: __ZN16_CodeblockParser11_expressionEPP8AST_nodei, symObjAddr: 0x481C, symBinAddr: 0x10001BF64, symSize: 0x2D4 }
  - { offsetInCU: 0x17F5B, offset: 0x103B4B, size: 0x8, addend: 0x0, symName: __ZN16_CodeblockParser4exprEPP8AST_nodeb, symObjAddr: 0x244, symBinAddr: 0x100017CA0, symSize: 0x94 }
  - { offsetInCU: 0x184BC, offset: 0x1040AC, size: 0x8, addend: 0x0, symName: __ZN5Lexer9PushErrorENSt3__112basic_stringIcNS0_11char_traitsIcEENS0_9allocatorIcEEEE, symObjAddr: 0x3C54, symBinAddr: 0x10001B4D8, symSize: 0x298 }
  - { offsetInCU: 0x19A86, offset: 0x105676, size: 0x8, addend: 0x0, symName: __ZNSt3__16vectorINS_12basic_stringIcNS_11char_traitsIcEENS_9allocatorIcEEEENS4_IS6_EEE11__vallocateB8ue170006Em, symObjAddr: 0x434, symBinAddr: 0x100017D34, symSize: 0x50 }
  - { offsetInCU: 0x19AF2, offset: 0x1056E2, size: 0x8, addend: 0x0, symName: __ZNKSt3__16vectorINS_12basic_stringIcNS_11char_traitsIcEENS_9allocatorIcEEEENS4_IS6_EEE20__throw_length_errorB8ue170006Ev, symObjAddr: 0x484, symBinAddr: 0x100017D84, symSize: 0x14 }
  - { offsetInCU: 0x19B04, offset: 0x1056F4, size: 0x8, addend: 0x0, symName: __ZNKSt3__16vectorINS_12basic_stringIcNS_11char_traitsIcEENS_9allocatorIcEEEENS4_IS6_EEE20__throw_length_errorB8ue170006Ev, symObjAddr: 0x484, symBinAddr: 0x100017D84, symSize: 0x14 }
  - { offsetInCU: 0x19B2E, offset: 0x10571E, size: 0x8, addend: 0x0, symName: __ZNSt3__119__allocate_at_leastB8ue170006INS_9allocatorINS_12basic_stringIcNS_11char_traitsIcEENS1_IcEEEEEEEENS_19__allocation_resultINS_16allocator_traitsIT_E7pointerEEERSA_m, symObjAddr: 0x498, symBinAddr: 0x100017D98, symSize: 0x44 }
  - { offsetInCU: 0x19C1F, offset: 0x10580F, size: 0x8, addend: 0x0, symName: __ZNSt3__128__exception_guard_exceptionsINS_29_AllocatorDestroyRangeReverseINS_9allocatorINS_12basic_stringIcNS_11char_traitsIcEENS2_IcEEEEEEPS7_EEED2B8ue170006Ev, symObjAddr: 0x598, symBinAddr: 0x100017E98, symSize: 0x34 }
  - { offsetInCU: 0x19C5E, offset: 0x10584E, size: 0x8, addend: 0x0, symName: __ZNKSt3__129_AllocatorDestroyRangeReverseINS_9allocatorINS_12basic_stringIcNS_11char_traitsIcEENS1_IcEEEEEEPS6_EclB8ue170006Ev, symObjAddr: 0x5CC, symBinAddr: 0x100017ECC, symSize: 0x4C }
  - { offsetInCU: 0x19F98, offset: 0x105B88, size: 0x8, addend: 0x0, symName: __ZNSt3__16vectorINS_12basic_stringIcNS_11char_traitsIcEENS_9allocatorIcEEEENS4_IS6_EEE7__clearB8ue170006Ev, symObjAddr: 0x658, symBinAddr: 0x100017F58, symSize: 0x54 }
  - { offsetInCU: 0x1A67D, offset: 0x10626D, size: 0x8, addend: 0x0, symName: __ZN5LexerC2ENSt3__112basic_stringIcNS0_11char_traitsIcEENS0_9allocatorIcEEEE, symObjAddr: 0x14DC, symBinAddr: 0x100018D60, symSize: 0xB4 }
  - { offsetInCU: 0x1A985, offset: 0x106575, size: 0x8, addend: 0x0, symName: __ZNSt3__16vectorINS0_INS_12basic_stringIcNS_11char_traitsIcEENS_9allocatorIcEEEENS4_IS6_EEEENS4_IS8_EEE16__destroy_vectorclB8ue170006Ev, symObjAddr: 0x146C, symBinAddr: 0x100018CF0, symSize: 0x70 }
  - { offsetInCU: 0x1ACDA, offset: 0x1068CA, size: 0x8, addend: 0x0, symName: __ZNSt3__16vectorINS_12basic_stringIcNS_11char_traitsIcEENS_9allocatorIcEEEENS4_IS6_EEE16__init_with_sizeB8ue170006IPS6_SA_EEvT_T0_m, symObjAddr: 0x12B0, symBinAddr: 0x100018B34, symSize: 0x84 }
  - { offsetInCU: 0x1AF72, offset: 0x106B62, size: 0x8, addend: 0x0, symName: __ZNSt3__128__exception_guard_exceptionsINS_29_AllocatorDestroyRangeReverseINS_9allocatorINS_6vectorINS_12basic_stringIcNS_11char_traitsIcEENS2_IcEEEENS2_IS8_EEEEEEPSA_EEED2B8ue170006Ev, symObjAddr: 0x13F0, symBinAddr: 0x100018C74, symSize: 0x34 }
  - { offsetInCU: 0x1B0C9, offset: 0x106CB9, size: 0x8, addend: 0x0, symName: __ZNKSt3__129_AllocatorDestroyRangeReverseINS_9allocatorINS_6vectorINS_12basic_stringIcNS_11char_traitsIcEENS1_IcEEEENS1_IS7_EEEEEEPS9_EclB8ue170006Ev, symObjAddr: 0x1424, symBinAddr: 0x100018CA8, symSize: 0x48 }
  - { offsetInCU: 0x1B40F, offset: 0x106FFF, size: 0x8, addend: 0x0, symName: __ZN5Lexer10next_tokenEv, symObjAddr: 0x1590, symBinAddr: 0x100018E14, symSize: 0x80 }
  - { offsetInCU: 0x1B585, offset: 0x107175, size: 0x8, addend: 0x0, symName: __ZN5LexerC2ENSt3__112basic_stringIcNS0_11char_traitsIcEENS0_9allocatorIcEEEE.cold.1, symObjAddr: 0x50E8, symBinAddr: 0x10024F5E8, symSize: 0x58 }
  - { offsetInCU: 0x1B842, offset: 0x107432, size: 0x8, addend: 0x0, symName: __ZN5Lexer15skip_whitespaceEv, symObjAddr: 0x1610, symBinAddr: 0x100018E94, symSize: 0xBC }
  - { offsetInCU: 0x1B9DB, offset: 0x1075CB, size: 0x8, addend: 0x0, symName: __ZN5Lexer2idEv, symObjAddr: 0x16CC, symBinAddr: 0x100018F50, symSize: 0xFC }
  - { offsetInCU: 0x1BEE1, offset: 0x107AD1, size: 0x8, addend: 0x0, symName: __ZN5Lexer6symbolEv, symObjAddr: 0x17C8, symBinAddr: 0x10001904C, symSize: 0x120 }
  - { offsetInCU: 0x1C27A, offset: 0x107E6A, size: 0x8, addend: 0x0, symName: __ZN5Lexer6intconEv, symObjAddr: 0x18E8, symBinAddr: 0x10001916C, symSize: 0xA0 }
  - { offsetInCU: 0x1C5D6, offset: 0x1081C6, size: 0x8, addend: 0x0, symName: __ZN5Lexer9stringconEv, symObjAddr: 0x1988, symBinAddr: 0x10001920C, symSize: 0x290 }
  - { offsetInCU: 0x1D2B4, offset: 0x108EA4, size: 0x8, addend: 0x0, symName: __ZN5Lexer12skip_commentEv, symObjAddr: 0x1C18, symBinAddr: 0x10001949C, symSize: 0x264 }
  - { offsetInCU: 0x1D8D9, offset: 0x1094C9, size: 0x8, addend: 0x0, symName: __ZN5Lexer6letterEPi, symObjAddr: 0x1F9C, symBinAddr: 0x100019820, symSize: 0x78 }
  - { offsetInCU: 0x1DA19, offset: 0x109609, size: 0x8, addend: 0x0, symName: __ZN5Lexer5digitEPi, symObjAddr: 0x2014, symBinAddr: 0x100019898, symSize: 0x70 }
  - { offsetInCU: 0x1DB5E, offset: 0x10974E, size: 0x8, addend: 0x0, symName: __ZN5Lexer6memberENSt3__112basic_stringIcNS0_11char_traitsIcEENS0_9allocatorIcEEEEPi, symObjAddr: 0x2084, symBinAddr: 0x100019908, symSize: 0xA8 }
  - { offsetInCU: 0x1DE21, offset: 0x109A11, size: 0x8, addend: 0x0, symName: __ZN5Lexer5matchENSt3__112basic_stringIcNS0_11char_traitsIcEENS0_9allocatorIcEEEE, symObjAddr: 0x212C, symBinAddr: 0x1000199B0, symSize: 0xDC }
  - { offsetInCU: 0x1E10A, offset: 0x109CFA, size: 0x8, addend: 0x0, symName: __ZNKSt3__16vectorINS_12basic_stringIcNS_11char_traitsIcEENS_9allocatorIcEEEENS4_IS6_EEE20__throw_out_of_rangeB8ue170006Ev, symObjAddr: 0x2208, symBinAddr: 0x100019A8C, symSize: 0x14 }
  - { offsetInCU: 0x1E134, offset: 0x109D24, size: 0x8, addend: 0x0, symName: __ZNSt3__120__throw_out_of_rangeB8ue170006EPKc, symObjAddr: 0x221C, symBinAddr: 0x100019AA0, symSize: 0x50 }
  - { offsetInCU: 0x1E13F, offset: 0x109D2F, size: 0x8, addend: 0x0, symName: __ZN5Lexer9c_isprintEPi, symObjAddr: 0x2290, symBinAddr: 0x100019B14, symSize: 0xBC }
  - { offsetInCU: 0x1E40E, offset: 0x109FFE, size: 0x8, addend: 0x0, symName: __ZN5Lexer5beginEv, symObjAddr: 0x1E7C, symBinAddr: 0x100019700, symSize: 0xD8 }
  - { offsetInCU: 0x1E823, offset: 0x10A413, size: 0x8, addend: 0x0, symName: __ZNKSt3__16vectorIiNS_9allocatorIiEEE20__throw_length_errorB8ue170006Ev, symObjAddr: 0x1F54, symBinAddr: 0x1000197D8, symSize: 0x14 }
  - { offsetInCU: 0x1EB84, offset: 0x10A774, size: 0x8, addend: 0x0, symName: __ZNKSt3__16vectorIiNS_9allocatorIiEEE20__throw_length_errorB8ue170006Ev, symObjAddr: 0x1F54, symBinAddr: 0x1000197D8, symSize: 0x14 }
  - { offsetInCU: 0x1EBAE, offset: 0x10A79E, size: 0x8, addend: 0x0, symName: __ZNSt3__119__allocate_at_leastB8ue170006INS_9allocatorIiEEEENS_19__allocation_resultINS_16allocator_traitsIT_E7pointerEEERS5_m, symObjAddr: 0x1F68, symBinAddr: 0x1000197EC, symSize: 0x34 }
  - { offsetInCU: 0x1EC32, offset: 0x10A822, size: 0x8, addend: 0x0, symName: __ZNSt12out_of_rangeC1B8ue170006EPKc, symObjAddr: 0x226C, symBinAddr: 0x100019AF0, symSize: 0x24 }
  - { offsetInCU: 0x1ED8C, offset: 0x10A97C, size: 0x8, addend: 0x0, symName: __ZN16_CodeblockParser9predicateEPP8AST_node, symObjAddr: 0x27EC, symBinAddr: 0x10001A070, symSize: 0x2C4 }
  - { offsetInCU: 0x20061, offset: 0x10BC51, size: 0x8, addend: 0x0, symName: __ZN16_CodeblockParser10block_stmtEPP8AST_node, symObjAddr: 0x2AB0, symBinAddr: 0x10001A334, symSize: 0xF0 }
  - { offsetInCU: 0x20646, offset: 0x10C236, size: 0x8, addend: 0x0, symName: __ZN16_CodeblockParser7if_stmtEPP8AST_node, symObjAddr: 0x2BA0, symBinAddr: 0x10001A424, symSize: 0x308 }
  - { offsetInCU: 0x21591, offset: 0x10D181, size: 0x8, addend: 0x0, symName: __ZN16_CodeblockParser10while_stmtEPP8AST_node, symObjAddr: 0x2EA8, symBinAddr: 0x10001A72C, symSize: 0x20C }
  - { offsetInCU: 0x22181, offset: 0x10DD71, size: 0x8, addend: 0x0, symName: __ZN16_CodeblockParser8for_stmtEPP8AST_node, symObjAddr: 0x30B4, symBinAddr: 0x10001A938, symSize: 0x214 }
  - { offsetInCU: 0x22D9D, offset: 0x10E98D, size: 0x8, addend: 0x0, symName: __ZN5Lexer2idERNSt3__112basic_stringIcNS0_11char_traitsIcEENS0_9allocatorIcEEEE, symObjAddr: 0x32C8, symBinAddr: 0x10001AB4C, symSize: 0x48 }
  - { offsetInCU: 0x22DE8, offset: 0x10E9D8, size: 0x8, addend: 0x0, symName: __ZN16_CodeblockParser11assign_stmtEP8AST_nodePS1_, symObjAddr: 0x3310, symBinAddr: 0x10001AB94, symSize: 0x238 }
  - { offsetInCU: 0x23727, offset: 0x10F317, size: 0x8, addend: 0x0, symName: __ZN5Lexer6symbolENSt3__112basic_stringIcNS0_11char_traitsIcEENS0_9allocatorIcEEEEb, symObjAddr: 0x3548, symBinAddr: 0x10001ADCC, symSize: 0x234 }
  - { offsetInCU: 0x24576, offset: 0x110166, size: 0x8, addend: 0x0, symName: __ZN16_CodeblockParser11fncall_stmtEP8AST_nodePS1_, symObjAddr: 0x377C, symBinAddr: 0x10001B000, symSize: 0x128 }
  - { offsetInCU: 0x24C51, offset: 0x110841, size: 0x8, addend: 0x0, symName: __ZN16_CodeblockParser9parm_listEPP8AST_node, symObjAddr: 0x38A4, symBinAddr: 0x10001B128, symSize: 0x3B0 }
  - { offsetInCU: 0x25D8E, offset: 0x11197E, size: 0x8, addend: 0x0, symName: __ZN5Lexer7keywordENSt3__112basic_stringIcNS0_11char_traitsIcEENS0_9allocatorIcEEEE, symObjAddr: 0x3EEC, symBinAddr: 0x10001B770, symSize: 0xB8 }
  - { offsetInCU: 0x25F0A, offset: 0x111AFA, size: 0x8, addend: 0x0, symName: __ZN16_CodeblockParser7id_listEPP8AST_node, symObjAddr: 0x3FA4, symBinAddr: 0x10001B828, symSize: 0x2B4 }
  - { offsetInCU: 0x27080, offset: 0x112C70, size: 0x8, addend: 0x0, symName: __ZN16_CodeblockParser8iterableEPP8AST_node, symObjAddr: 0x4258, symBinAddr: 0x10001BADC, symSize: 0x194 }
  - { offsetInCU: 0x27AFC, offset: 0x1136EC, size: 0x8, addend: 0x0, symName: __ZN16_CodeblockParser10unbound_idEPP8AST_node, symObjAddr: 0x43EC, symBinAddr: 0x10001BC70, symSize: 0x1DC }
  - { offsetInCU: 0x2865C, offset: 0x11424C, size: 0x8, addend: 0x0, symName: __ZN16_CodeblockParserD2Ev, symObjAddr: 0x4704, symBinAddr: 0x10001BE4C, symSize: 0x58 }
  - { offsetInCU: 0x286A7, offset: 0x114297, size: 0x8, addend: 0x0, symName: __ZN5LexerD2Ev, symObjAddr: 0x475C, symBinAddr: 0x10001BEA4, symSize: 0xC0 }
  - { offsetInCU: 0x28E96, offset: 0x114A86, size: 0x8, addend: 0x0, symName: __ZN5Lexer2opENSt3__16vectorINS0_12basic_stringIcNS0_11char_traitsIcEENS0_9allocatorIcEEEENS5_IS7_EEEERS7_b, symObjAddr: 0x4F34, symBinAddr: 0x10001C67C, symSize: 0x124 }
  - { offsetInCU: 0x29273, offset: 0x114E63, size: 0x8, addend: 0x0, symName: __ZN16_CodeblockParser18primary_expressionEPP8AST_node, symObjAddr: 0x4AF0, symBinAddr: 0x10001C238, symSize: 0x444 }
  - { offsetInCU: 0x2A61B, offset: 0x11620B, size: 0x8, addend: 0x0, symName: __ZN5Lexer6intconERNSt3__112basic_stringIcNS0_11char_traitsIcEENS0_9allocatorIcEEEE, symObjAddr: 0x5058, symBinAddr: 0x10001C7A0, symSize: 0x48 }
  - { offsetInCU: 0x2A666, offset: 0x116256, size: 0x8, addend: 0x0, symName: __ZN5Lexer9stringconERNSt3__112basic_stringIcNS0_11char_traitsIcEENS0_9allocatorIcEEEE, symObjAddr: 0x50A0, symBinAddr: 0x10001C7E8, symSize: 0x48 }
  - { offsetInCU: 0x26, offset: 0x1162D0, size: 0x8, addend: 0x0, symName: __Z7new_strPKh, symObjAddr: 0x0, symBinAddr: 0x10001CC1C, symSize: 0x4C }
  - { offsetInCU: 0x15756, offset: 0x12BA00, size: 0x8, addend: 0x0, symName: __Z7new_strPKh, symObjAddr: 0x0, symBinAddr: 0x10001CC1C, symSize: 0x4C }
  - { offsetInCU: 0x15956, offset: 0x12BC00, size: 0x8, addend: 0x0, symName: __Z17sqlCreateDumpFileNSt3__112basic_stringIcNS_11char_traitsIcEENS_9allocatorIcEEEE, symObjAddr: 0xC4, symBinAddr: 0x10001CC68, symSize: 0x168 }
  - { offsetInCU: 0x1637C, offset: 0x12C626, size: 0x8, addend: 0x0, symName: __Z19sqlCreateDumpStreamRNSt3__114basic_ofstreamIcNS_11char_traitsIcEEEENS_12basic_stringIcS2_NS_9allocatorIcEEEE, symObjAddr: 0x22C, symBinAddr: 0x10001CDD0, symSize: 0x160 }
  - { offsetInCU: 0x16C7D, offset: 0x12CF27, size: 0x8, addend: 0x0, symName: __ZNSt3__114basic_ofstreamIcNS_11char_traitsIcEEE4openERKNS_12basic_stringIcS2_NS_9allocatorIcEEEEj, symObjAddr: 0x38C, symBinAddr: 0x10001CF30, symSize: 0x5C }
  - { offsetInCU: 0x16E4F, offset: 0x12D0F9, size: 0x8, addend: 0x0, symName: __ZNSt3__113basic_filebufIcNS_11char_traitsIcEEE4openEPKcj, symObjAddr: 0x918, symBinAddr: 0x10001D398, symSize: 0x158 }
  - { offsetInCU: 0x16F3C, offset: 0x12D1E6, size: 0x8, addend: 0x0, symName: __Z11getDataPathv, symObjAddr: 0x50C, symBinAddr: 0x10001CF8C, symSize: 0x9C }
  - { offsetInCU: 0x17328, offset: 0x12D5D2, size: 0x8, addend: 0x0, symName: __Z8sql_openPP7sqlite3, symObjAddr: 0x5A8, symBinAddr: 0x10001D028, symSize: 0x98 }
  - { offsetInCU: 0x1769E, offset: 0x12D948, size: 0x8, addend: 0x0, symName: __Z14getSqlRowCountP7sqlite3PKc, symObjAddr: 0x640, symBinAddr: 0x10001D0C0, symSize: 0x90 }
  - { offsetInCU: 0x17825, offset: 0x12DACF, size: 0x8, addend: 0x0, symName: __Z12sqlFetchRowsRP7sqlite3RP12sqlite3_stmtPKcS6_, symObjAddr: 0x6D0, symBinAddr: 0x10001D150, symSize: 0x94 }
  - { offsetInCU: 0x17916, offset: 0x12DBC0, size: 0x8, addend: 0x0, symName: __Z10sql_selectRP7sqlite3RP12sqlite3_stmtPKc, symObjAddr: 0x764, symBinAddr: 0x10001D1E4, symSize: 0x84 }
  - { offsetInCU: 0x179E9, offset: 0x12DC93, size: 0x8, addend: 0x0, symName: __Z8sql_execNSt3__112basic_stringIcNS_11char_traitsIcEENS_9allocatorIcEEEE, symObjAddr: 0x7E8, symBinAddr: 0x10001D268, symSize: 0x98 }
  - { offsetInCU: 0x17C2E, offset: 0x12DED8, size: 0x8, addend: 0x0, symName: __ZL8callbackPviPPcS1_, symObjAddr: 0x880, symBinAddr: 0x10001D300, symSize: 0x98 }
  - { offsetInCU: 0x26, offset: 0x12DFC1, size: 0x8, addend: 0x0, symName: __ZN6Loader4LoadEv, symObjAddr: 0x0, symBinAddr: 0x10001D4F0, symSize: 0x224 }
  - { offsetInCU: 0x3F, offset: 0x12DFDA, size: 0x8, addend: 0x0, symName: _tbl_sounds, symObjAddr: 0x8D228, symBinAddr: 0x100322420, symSize: 0x0 }
  - { offsetInCU: 0xBC88, offset: 0x139C23, size: 0x8, addend: 0x0, symName: _tbl_constants, symObjAddr: 0x8D230, symBinAddr: 0x100322428, symSize: 0x0 }
  - { offsetInCU: 0xFADC, offset: 0x13DA77, size: 0x8, addend: 0x0, symName: __ZN6Loader4LoadEv, symObjAddr: 0x0, symBinAddr: 0x10001D4F0, symSize: 0x224 }
  - { offsetInCU: 0x10558, offset: 0x13E4F3, size: 0x8, addend: 0x0, symName: __ZN6Loader4DumpEv, symObjAddr: 0x224, symBinAddr: 0x10001D714, symSize: 0x70 }
  - { offsetInCU: 0x40, offset: 0x141B0D, size: 0x8, addend: 0x0, symName: _gameWindow, symObjAddr: 0x16750, symBinAddr: 0x100322430, symSize: 0x0 }
  - { offsetInCU: 0x413A, offset: 0x145C07, size: 0x8, addend: 0x0, symName: __ZN6WindowC2EPKcii, symObjAddr: 0x0, symBinAddr: 0x10001D784, symSize: 0x68 }
  - { offsetInCU: 0x4221, offset: 0x145CEE, size: 0x8, addend: 0x0, symName: __ZN6WindowC1EPKcii, symObjAddr: 0x68, symBinAddr: 0x10001D7EC, symSize: 0x4 }
  - { offsetInCU: 0x4279, offset: 0x145D46, size: 0x8, addend: 0x0, symName: __ZN6WindowC1EPKcii, symObjAddr: 0x68, symBinAddr: 0x10001D7EC, symSize: 0x4 }
  - { offsetInCU: 0x42A1, offset: 0x145D6E, size: 0x8, addend: 0x0, symName: __ZN6WindowD2Ev, symObjAddr: 0x6C, symBinAddr: 0x10001D7F0, symSize: 0x34 }
  - { offsetInCU: 0x4306, offset: 0x145DD3, size: 0x8, addend: 0x0, symName: __ZN6WindowD1Ev, symObjAddr: 0xAC, symBinAddr: 0x10001D824, symSize: 0x4 }
  - { offsetInCU: 0x4334, offset: 0x145E01, size: 0x8, addend: 0x0, symName: __ZN6WindowD1Ev, symObjAddr: 0xAC, symBinAddr: 0x10001D824, symSize: 0x4 }
  - { offsetInCU: 0x4347, offset: 0x145E14, size: 0x8, addend: 0x0, symName: __ZN6Window7RunLoopEPFvR9SDL_EventffEPFvvE, symObjAddr: 0xB0, symBinAddr: 0x10001D828, symSize: 0x134 }
  - { offsetInCU: 0x4503, offset: 0x145FD0, size: 0x8, addend: 0x0, symName: __ZN6Window5PaintEPh, symObjAddr: 0x1E4, symBinAddr: 0x10001D95C, symSize: 0xBC }
  - { offsetInCU: 0x45, offset: 0x14651F, size: 0x8, addend: 0x0, symName: __ZN9SymbolSet7opcodesE, symObjAddr: 0xB9938, symBinAddr: 0x100322438, symSize: 0x0 }
  - { offsetInCU: 0xD69A, offset: 0x153B74, size: 0x8, addend: 0x0, symName: __ZN9SymbolSet9registersE, symObjAddr: 0xB9950, symBinAddr: 0x100322450, symSize: 0x0 }
  - { offsetInCU: 0xD6AE, offset: 0x153B88, size: 0x8, addend: 0x0, symName: __ZN9SymbolSet10intrinsicsE, symObjAddr: 0xB9968, symBinAddr: 0x100322468, symSize: 0x0 }
  - { offsetInCU: 0xD6C9, offset: 0x153BA3, size: 0x8, addend: 0x0, symName: _symtab, symObjAddr: 0xB9980, symBinAddr: 0x100322480, symSize: 0x0 }
  - { offsetInCU: 0x11C7B, offset: 0x16C042, size: 0x8, addend: 0x0, symName: __ZN9INVENTORY5PaintEii, symObjAddr: 0x0, symBinAddr: 0x10001EF30, symSize: 0x22C }
  - { offsetInCU: 0x120FC, offset: 0x16C4C3, size: 0x8, addend: 0x0, symName: __ZN9INVENTORY6KeycmdEii, symObjAddr: 0x22C, symBinAddr: 0x10001F15C, symSize: 0xB4 }
  - { offsetInCU: 0x12161, offset: 0x16C528, size: 0x8, addend: 0x0, symName: __ZN9INVENTORY11QueryCursorE4RECT, symObjAddr: 0x2E0, symBinAddr: 0x10001F210, symSize: 0x8 }
  - { offsetInCU: 0x1220E, offset: 0x16C5D5, size: 0x8, addend: 0x0, symName: __ZN9INVENTORY4GrabE5POINTbPS0_, symObjAddr: 0x2E8, symBinAddr: 0x10001F218, symSize: 0x160 }
  - { offsetInCU: 0x128CE, offset: 0x16CC95, size: 0x8, addend: 0x0, symName: __ZN9INVENTORY4DropEPNSt3__112basic_stringIcNS0_11char_traitsIcEENS0_9allocatorIcEEEE5POINT, symObjAddr: 0x448, symBinAddr: 0x10001F378, symSize: 0xB0 }
  - { offsetInCU: 0x12B46, offset: 0x16CF0D, size: 0x8, addend: 0x0, symName: __ZN9INVENTORYD2Ev, symObjAddr: 0x5B0, symBinAddr: 0x10001F428, symSize: 0x1B0 }
  - { offsetInCU: 0x13704, offset: 0x16DACB, size: 0x8, addend: 0x0, symName: __ZN9INVENTORYD1Ev, symObjAddr: 0x76C, symBinAddr: 0x10001F5D8, symSize: 0x4 }
  - { offsetInCU: 0x13728, offset: 0x16DAEF, size: 0x8, addend: 0x0, symName: __ZN9INVENTORYD1Ev, symObjAddr: 0x76C, symBinAddr: 0x10001F5D8, symSize: 0x4 }
  - { offsetInCU: 0x13757, offset: 0x16DB1E, size: 0x8, addend: 0x0, symName: __ZN9INVENTORYD0Ev, symObjAddr: 0x770, symBinAddr: 0x10001F5DC, symSize: 0x14 }
  - { offsetInCU: 0x137DC, offset: 0x16DBA3, size: 0x8, addend: 0x0, symName: __Z7invLoadi, symObjAddr: 0x784, symBinAddr: 0x10001F5F0, symSize: 0x80 }
  - { offsetInCU: 0x13867, offset: 0x16DC2E, size: 0x8, addend: 0x0, symName: __ZN4VIEW7OnEventENSt3__112basic_stringIcNS0_11char_traitsIcEENS0_9allocatorIcEEEEi, symObjAddr: 0x814, symBinAddr: 0x10001F670, symSize: 0x34 }
  - { offsetInCU: 0x40, offset: 0x16DF39, size: 0x8, addend: 0x0, symName: __ZL8oneDebug, symObjAddr: 0x9AD48, symBinAddr: 0x10032A160, symSize: 0x0 }
  - { offsetInCU: 0x11CDF, offset: 0x17FBD8, size: 0x8, addend: 0x0, symName: __ZN4VIEW5PaintEii, symObjAddr: 0x0, symBinAddr: 0x10001F6A4, symSize: 0x14 }
  - { offsetInCU: 0x11D2C, offset: 0x17FC25, size: 0x8, addend: 0x0, symName: __ZN10MachineSet5PaintEP3ONEt, symObjAddr: 0x14, symBinAddr: 0x10001F6B8, symSize: 0x7C }
  - { offsetInCU: 0x11EC3, offset: 0x17FDBC, size: 0x8, addend: 0x0, symName: __ZN4VIEW10SetPaintedEi, symObjAddr: 0x90, symBinAddr: 0x10001F734, symSize: 0x1C }
  - { offsetInCU: 0x11EF8, offset: 0x17FDF1, size: 0x8, addend: 0x0, symName: __ZN4VIEW8RecenterEv, symObjAddr: 0xAC, symBinAddr: 0x10001F750, symSize: 0x4 }
  - { offsetInCU: 0x11F1D, offset: 0x17FE16, size: 0x8, addend: 0x0, symName: __ZN4VIEW6ActionEii, symObjAddr: 0xB0, symBinAddr: 0x10001F754, symSize: 0x8 }
  - { offsetInCU: 0x11F79, offset: 0x17FE72, size: 0x8, addend: 0x0, symName: __ZN4VIEW8PtInViewE5POINT, symObjAddr: 0xB8, symBinAddr: 0x10001F75C, symSize: 0x78 }
  - { offsetInCU: 0x11FCF, offset: 0x17FEC8, size: 0x8, addend: 0x0, symName: __ZN4VIEW11MapToScreenE5POINT, symObjAddr: 0x130, symBinAddr: 0x10001F7D4, symSize: 0x28 }
  - { offsetInCU: 0x11FFC, offset: 0x17FEF5, size: 0x8, addend: 0x0, symName: __ZN4VIEW11MapToCanvasE5POINT, symObjAddr: 0x158, symBinAddr: 0x10001F7FC, symSize: 0x4C }
  - { offsetInCU: 0x12061, offset: 0x17FF5A, size: 0x8, addend: 0x0, symName: __ZN4VIEW16InvalidateOffsetEv, symObjAddr: 0x1A4, symBinAddr: 0x10001F848, symSize: 0x48 }
  - { offsetInCU: 0x121A1, offset: 0x18009A, size: 0x8, addend: 0x0, symName: __ZN4VIEW4GrabE5POINTbPS0_, symObjAddr: 0x1EC, symBinAddr: 0x10001F890, symSize: 0xD8 }
  - { offsetInCU: 0x12342, offset: 0x18023B, size: 0x8, addend: 0x0, symName: __ZN10ControlSet5ClickE5POINT, symObjAddr: 0x2C4, symBinAddr: 0x10001F968, symSize: 0x128 }
  - { offsetInCU: 0x128AC, offset: 0x1807A5, size: 0x8, addend: 0x0, symName: __ZN10MachineSet4GrabE5POINTbPS0_, symObjAddr: 0x3EC, symBinAddr: 0x10001FA90, symSize: 0xE0 }
  - { offsetInCU: 0x12E1B, offset: 0x180D14, size: 0x8, addend: 0x0, symName: __ZN7MACHINE4InitEv, symObjAddr: 0x173C, symBinAddr: 0x100020B3C, symSize: 0x78 }
  - { offsetInCU: 0x12E2C, offset: 0x180D25, size: 0x8, addend: 0x0, symName: __ZN10MachineSet3HitE5POINT, symObjAddr: 0x1304, symBinAddr: 0x1000208F8, symSize: 0x5C }
  - { offsetInCU: 0x12E60, offset: 0x180D59, size: 0x8, addend: 0x0, symName: __ZN10MachineSet3HitE5POINT, symObjAddr: 0x1304, symBinAddr: 0x1000208F8, symSize: 0x5C }
  - { offsetInCU: 0x12E9C, offset: 0x180D95, size: 0x8, addend: 0x0, symName: __ZN10MachineSet3HitE5POINT, symObjAddr: 0x1304, symBinAddr: 0x1000208F8, symSize: 0x5C }
  - { offsetInCU: 0x12F2D, offset: 0x180E26, size: 0x8, addend: 0x0, symName: __ZN4VIEW4DropEPNSt3__112basic_stringIcNS0_11char_traitsIcEENS0_9allocatorIcEEEE5POINT, symObjAddr: 0x4CC, symBinAddr: 0x10001FB70, symSize: 0x70 }
  - { offsetInCU: 0x12FB3, offset: 0x180EAC, size: 0x8, addend: 0x0, symName: __ZN10MachineSet4DropEPNSt3__112basic_stringIcNS0_11char_traitsIcEENS0_9allocatorIcEEEE5POINT, symObjAddr: 0x53C, symBinAddr: 0x10001FBE0, symSize: 0x40 }
  - { offsetInCU: 0x1301F, offset: 0x180F18, size: 0x8, addend: 0x0, symName: __ZN4VIEW4DragEP6OBJECT5POINT, symObjAddr: 0x57C, symBinAddr: 0x10001FC20, symSize: 0x34 }
  - { offsetInCU: 0x13098, offset: 0x180F91, size: 0x8, addend: 0x0, symName: __ZN10MachineSet4DragEP6OBJECT5POINT, symObjAddr: 0x5B0, symBinAddr: 0x10001FC54, symSize: 0x80 }
  - { offsetInCU: 0x13104, offset: 0x180FFD, size: 0x8, addend: 0x0, symName: __ZN4VIEW3MsgEii, symObjAddr: 0x630, symBinAddr: 0x10001FCD4, symSize: 0x8 }
  - { offsetInCU: 0x1313F, offset: 0x181038, size: 0x8, addend: 0x0, symName: __ZN4VIEW9LostFocusEv, symObjAddr: 0x638, symBinAddr: 0x10001FCDC, symSize: 0x14 }
  - { offsetInCU: 0x13186, offset: 0x18107F, size: 0x8, addend: 0x0, symName: __ZN4VIEW6KeycmdEii, symObjAddr: 0x64C, symBinAddr: 0x10001FCF0, symSize: 0x8 }
  - { offsetInCU: 0x131E8, offset: 0x1810E1, size: 0x8, addend: 0x0, symName: __ZN10ControlSet6KeycmdEii, symObjAddr: 0x654, symBinAddr: 0x10001FCF8, symSize: 0x118 }
  - { offsetInCU: 0x137AA, offset: 0x1816A3, size: 0x8, addend: 0x0, symName: __ZN4VIEW11QueryCursorE4RECT, symObjAddr: 0x76C, symBinAddr: 0x10001FE10, symSize: 0x70 }
  - { offsetInCU: 0x1387F, offset: 0x181778, size: 0x8, addend: 0x0, symName: __ZN10ControlSet11QueryCursorE5POINT, symObjAddr: 0x7DC, symBinAddr: 0x10001FE80, symSize: 0x204 }
  - { offsetInCU: 0x14122, offset: 0x18201B, size: 0x8, addend: 0x0, symName: __ZN4VIEW8NavigateE5POINT3CID, symObjAddr: 0x9E0, symBinAddr: 0x100020084, symSize: 0xEC }
  - { offsetInCU: 0x14324, offset: 0x18221D, size: 0x8, addend: 0x0, symName: __ZN4VIEW4MoveEii, symObjAddr: 0xB28, symBinAddr: 0x100020170, symSize: 0x60 }
  - { offsetInCU: 0x143E0, offset: 0x1822D9, size: 0x8, addend: 0x0, symName: __ZN4VIEWD2Ev, symObjAddr: 0xB88, symBinAddr: 0x1000201D0, symSize: 0xB0 }
  - { offsetInCU: 0x146E8, offset: 0x1825E1, size: 0x8, addend: 0x0, symName: __ZN10ControlSetD2Ev, symObjAddr: 0x1360, symBinAddr: 0x100020954, symSize: 0xEC }
  - { offsetInCU: 0x14AFB, offset: 0x1829F4, size: 0x8, addend: 0x0, symName: __ZN10MachineSetD2Ev, symObjAddr: 0x14A0, symBinAddr: 0x100020A44, symSize: 0x60 }
  - { offsetInCU: 0x14CF6, offset: 0x182BEF, size: 0x8, addend: 0x0, symName: __ZN4VIEWD1Ev, symObjAddr: 0xC44, symBinAddr: 0x100020280, symSize: 0x4 }
  - { offsetInCU: 0x14D1A, offset: 0x182C13, size: 0x8, addend: 0x0, symName: __ZN4VIEWD1Ev, symObjAddr: 0xC44, symBinAddr: 0x100020280, symSize: 0x4 }
  - { offsetInCU: 0x14D49, offset: 0x182C42, size: 0x8, addend: 0x0, symName: __ZN4VIEWD0Ev, symObjAddr: 0xC48, symBinAddr: 0x100020284, symSize: 0x14 }
  - { offsetInCU: 0x151D5, offset: 0x1830CE, size: 0x8, addend: 0x0, symName: __ZN4VIEWC2EiPKc9BLT_STYLE, symObjAddr: 0xC5C, symBinAddr: 0x100020298, symSize: 0x64C }
  - { offsetInCU: 0x16588, offset: 0x184481, size: 0x8, addend: 0x0, symName: __ZN10MachineSetC2Ei, symObjAddr: 0x1500, symBinAddr: 0x100020AA4, symSize: 0x98 }
  - { offsetInCU: 0x16B2C, offset: 0x184A25, size: 0x8, addend: 0x0, symName: __ZN7MACHINE4InitEv, symObjAddr: 0x173C, symBinAddr: 0x100020B3C, symSize: 0x78 }
  - { offsetInCU: 0x16E13, offset: 0x184D0C, size: 0x8, addend: 0x0, symName: __ZN4VIEW13BlitToDisplayEv, symObjAddr: 0x12AC, symBinAddr: 0x1000208E4, symSize: 0x14 }
  - { offsetInCU: 0x170A8, offset: 0x184FA1, size: 0x8, addend: 0x0, symName: __ZN10ControlSet7OnEventEii, symObjAddr: 0x144C, symBinAddr: 0x100020A40, symSize: 0x4 }
  - { offsetInCU: 0x40, offset: 0x185482, size: 0x8, addend: 0x0, symName: _cursorman, symObjAddr: 0xBD020, symBinAddr: 0x100322488, symSize: 0x0 }
  - { offsetInCU: 0xF009, offset: 0x19444B, size: 0x8, addend: 0x0, symName: _cursor_sprites, symObjAddr: 0xBD028, symBinAddr: 0x100322490, symSize: 0x0 }
  - { offsetInCU: 0xF46C, offset: 0x1948AE, size: 0x8, addend: 0x0, symName: __ZN11CURSOR_HAND10dead_handsE, symObjAddr: 0xBD040, symBinAddr: 0x1003224A8, symSize: 0x0 }
  - { offsetInCU: 0x1270B, offset: 0x197B4D, size: 0x8, addend: 0x0, symName: __ZL15tbl_other_hands, symObjAddr: 0xBD048, symBinAddr: 0x10032A1B0, symSize: 0x0 }
  - { offsetInCU: 0x12731, offset: 0x197B73, size: 0x8, addend: 0x0, symName: __ZL12mouse_cursor, symObjAddr: 0xBF028, symBinAddr: 0x10032C190, symSize: 0x0 }
  - { offsetInCU: 0x1274B, offset: 0x197B8D, size: 0x8, addend: 0x0, symName: __ZL11held_object, symObjAddr: 0xBF0D0, symBinAddr: 0x10032C238, symSize: 0x0 }
  - { offsetInCU: 0x12765, offset: 0x197BA7, size: 0x8, addend: 0x0, symName: __ZL17other_hands_count, symObjAddr: 0xBF1A0, symBinAddr: 0x10032C308, symSize: 0x0 }
  - { offsetInCU: 0x1277F, offset: 0x197BC1, size: 0x8, addend: 0x0, symName: __ZL11held_offset.0, symObjAddr: 0xBF1A4, symBinAddr: 0x10032C30C, symSize: 0x0 }
  - { offsetInCU: 0x1278A, offset: 0x197BCC, size: 0x8, addend: 0x0, symName: __ZL11held_offset.1, symObjAddr: 0xBF1A6, symBinAddr: 0x10032C30E, symSize: 0x0 }
  - { offsetInCU: 0x1625C, offset: 0x19B69E, size: 0x8, addend: 0x0, symName: __ZNSt3__13mapI3CIDNS_12basic_stringIcNS_11char_traitsIcEENS_9allocatorIcEEEENS_4lessIS1_EENS5_INS_4pairIKS1_S7_EEEEED1B8ue170006Ev, symObjAddr: 0x4, symBinAddr: 0x100020BE8, symSize: 0x28 }
  - { offsetInCU: 0x16318, offset: 0x19B75A, size: 0x8, addend: 0x0, symName: __ZNSt3__16__treeINS_12__value_typeI3CIDNS_12basic_stringIcNS_11char_traitsIcEENS_9allocatorIcEEEEEENS_19__map_value_compareIS2_S9_NS_4lessIS2_EELb1EEENS6_IS9_EEE7destroyEPNS_11__tree_nodeIS9_PvEE, symObjAddr: 0x1EDC, symBinAddr: 0x1000225FC, symSize: 0x50 }
  - { offsetInCU: 0x167C9, offset: 0x19BC0B, size: 0x8, addend: 0x0, symName: __ZN6CURSORD1Ev, symObjAddr: 0x8C, symBinAddr: 0x100020C10, symSize: 0x44 }
  - { offsetInCU: 0x16952, offset: 0x19BD94, size: 0x8, addend: 0x0, symName: __ZN11HELD_OBJECTC2Ev, symObjAddr: 0x1384, symBinAddr: 0x100021DE0, symSize: 0x78 }
  - { offsetInCU: 0x16A69, offset: 0x19BEAB, size: 0x8, addend: 0x0, symName: __ZN11HELD_OBJECTD1Ev, symObjAddr: 0xD4, symBinAddr: 0x100020C54, symSize: 0x60 }
  - { offsetInCU: 0x16DCA, offset: 0x19C20C, size: 0x8, addend: 0x0, symName: __ZN6CURSOR4InitE3CID5POINT, symObjAddr: 0x194, symBinAddr: 0x100020CB4, symSize: 0x130 }
  - { offsetInCU: 0x171A2, offset: 0x19C5E4, size: 0x8, addend: 0x0, symName: __ZNSt3__16__treeINS_12__value_typeI3CIDNS_12basic_stringIcNS_11char_traitsIcEENS_9allocatorIcEEEEEENS_19__map_value_compareIS2_S9_NS_4lessIS2_EELb1EEENS6_IS9_EEE25__emplace_unique_key_argsIS2_JRKNS_21piecewise_construct_tENS_5tupleIJRKS2_EEENSK_IJEEEEEENS_4pairINS_15__tree_iteratorIS9_PNS_11__tree_nodeIS9_PvEElEEbEERKT_DpOT0_, symObjAddr: 0x1F2C, symBinAddr: 0x10002264C, symSize: 0xC4 }
  - { offsetInCU: 0x17722, offset: 0x19CB64, size: 0x8, addend: 0x0, symName: __ZNSt3__13mapI3CIDNS_12basic_stringIcNS_11char_traitsIcEENS_9allocatorIcEEEENS_4lessIS1_EENS5_INS_4pairIKS1_S7_EEEEEC2B8ue170006ESt16initializer_listISC_ERKS9_, symObjAddr: 0x1958, symBinAddr: 0x100022210, symSize: 0x7C }
  - { offsetInCU: 0x177AA, offset: 0x19CBEC, size: 0x8, addend: 0x0, symName: __ZN11CURSOR_HAND4killEv, symObjAddr: 0x2FC, symBinAddr: 0x100020DE4, symSize: 0x38 }
  - { offsetInCU: 0x177FE, offset: 0x19CC40, size: 0x8, addend: 0x0, symName: __ZN11CURSOR_HAND4killEv.cold.1, symObjAddr: 0x20B4, symBinAddr: 0x10024F640, symSize: 0x28 }
  - { offsetInCU: 0x1782C, offset: 0x19CC6E, size: 0x8, addend: 0x0, symName: __ZN11CURSOR_HAND4ShowEii, symObjAddr: 0x38C, symBinAddr: 0x100020E1C, symSize: 0x50 }
  - { offsetInCU: 0x178B7, offset: 0x19CCF9, size: 0x8, addend: 0x0, symName: __ZN6CURSOR4ShowEii, symObjAddr: 0x3DC, symBinAddr: 0x100020E6C, symSize: 0xCC }
  - { offsetInCU: 0x179C0, offset: 0x19CE02, size: 0x8, addend: 0x0, symName: __ZN11CURSOR_HAND4HideEii, symObjAddr: 0x4A8, symBinAddr: 0x100020F38, symSize: 0x44 }
  - { offsetInCU: 0x17A63, offset: 0x19CEA5, size: 0x8, addend: 0x0, symName: __ZN6CURSOR4HideEii, symObjAddr: 0x4EC, symBinAddr: 0x100020F7C, symSize: 0x68 }
  - { offsetInCU: 0x17B61, offset: 0x19CFA3, size: 0x8, addend: 0x0, symName: __ZN11CURSOR_HAND10DropObjectEv, symObjAddr: 0x560, symBinAddr: 0x100020FE4, symSize: 0x4C }
  - { offsetInCU: 0x17D03, offset: 0x19D145, size: 0x8, addend: 0x0, symName: __ZN11HELD_OBJECT10DropObjectEP5POINTS1_, symObjAddr: 0x5AC, symBinAddr: 0x100021030, symSize: 0xA4 }
  - { offsetInCU: 0x17EE2, offset: 0x19D324, size: 0x8, addend: 0x0, symName: __ZN9CursorMan9AddPlayerENSt3__112basic_stringIcNS0_11char_traitsIcEENS0_9allocatorIcEEEERKS6_, symObjAddr: 0x650, symBinAddr: 0x1000210D4, symSize: 0xF8 }
  - { offsetInCU: 0x182D3, offset: 0x19D715, size: 0x8, addend: 0x0, symName: __ZN11CURSOR_HAND10LoadObjectENSt3__112basic_stringIcNS0_11char_traitsIcEENS0_9allocatorIcEEEE, symObjAddr: 0x76C, symBinAddr: 0x1000211CC, symSize: 0xA0 }
  - { offsetInCU: 0x18635, offset: 0x19DA77, size: 0x8, addend: 0x0, symName: __ZN11HELD_OBJECT10LoadObjectENSt3__112basic_stringIcNS0_11char_traitsIcEENS0_9allocatorIcEEEE5POINT, symObjAddr: 0x80C, symBinAddr: 0x10002126C, symSize: 0x2E8 }
  - { offsetInCU: 0x19134, offset: 0x19E576, size: 0x8, addend: 0x0, symName: __ZNSt3__16__treeINS_12__value_typeI3CIDNS_12basic_stringIcNS_11char_traitsIcEENS_9allocatorIcEEEEEENS_19__map_value_compareIS2_S9_NS_4lessIS2_EELb1EEENS6_IS9_EEE25__emplace_unique_key_argsIS2_JRKNS_21piecewise_construct_tENS_5tupleIJOS2_EEENSK_IJEEEEEENS_4pairINS_15__tree_iteratorIS9_PNS_11__tree_nodeIS9_PvEElEEbEERKT_DpOT0_, symObjAddr: 0x1FF0, symBinAddr: 0x100022710, symSize: 0xC4 }
  - { offsetInCU: 0x194CE, offset: 0x19E910, size: 0x8, addend: 0x0, symName: __ZN9CursorMan12DropAllHandsEv, symObjAddr: 0xAF4, symBinAddr: 0x100021554, symSize: 0x74 }
  - { offsetInCU: 0x195AF, offset: 0x19E9F1, size: 0x8, addend: 0x0, symName: __ZN9CursorMan10DropPlayerENSt3__112basic_stringIcNS0_11char_traitsIcEENS0_9allocatorIcEEEE, symObjAddr: 0xB68, symBinAddr: 0x1000215C8, symSize: 0x180 }
  - { offsetInCU: 0x19954, offset: 0x19ED96, size: 0x8, addend: 0x0, symName: __ZN9CursorMan10MovePlayerENSt3__112basic_stringIcNS0_11char_traitsIcEENS0_9allocatorIcEEEE5POINT, symObjAddr: 0xCE8, symBinAddr: 0x100021748, symSize: 0x168 }
  - { offsetInCU: 0x19D00, offset: 0x19F142, size: 0x8, addend: 0x0, symName: __ZN9CursorMan15SetPlayerObjectENSt3__112basic_stringIcNS0_11char_traitsIcEENS0_9allocatorIcEEEES6_, symObjAddr: 0xE50, symBinAddr: 0x1000218B0, symSize: 0x1D4 }
  - { offsetInCU: 0x1A3FF, offset: 0x19F841, size: 0x8, addend: 0x0, symName: __ZN6CURSOR4killEv, symObjAddr: 0x1024, symBinAddr: 0x100021A84, symSize: 0x50 }
  - { offsetInCU: 0x1A4B3, offset: 0x19F8F5, size: 0x8, addend: 0x0, symName: __ZN9CursorMan9cursorOffEii, symObjAddr: 0x1074, symBinAddr: 0x100021AD4, symSize: 0x120 }
  - { offsetInCU: 0x1A5D9, offset: 0x19FA1B, size: 0x8, addend: 0x0, symName: __ZN9CursorMan8cursorOnEii, symObjAddr: 0x1194, symBinAddr: 0x100021BF4, symSize: 0xEC }
  - { offsetInCU: 0x1A6E9, offset: 0x19FB2B, size: 0x8, addend: 0x0, symName: __ZN9CursorMan10cursorMoveE5POINT, symObjAddr: 0x1280, symBinAddr: 0x100021CE0, symSize: 0x6C }
  - { offsetInCU: 0x1A75F, offset: 0x19FBA1, size: 0x8, addend: 0x0, symName: __ZN9CursorMan4InitEv, symObjAddr: 0x12EC, symBinAddr: 0x100021D4C, symSize: 0x94 }
  - { offsetInCU: 0x1A81C, offset: 0x19FC5E, size: 0x8, addend: 0x0, symName: __ZN11HELD_OBJECT4killEv, symObjAddr: 0x13FC, symBinAddr: 0x100021E58, symSize: 0x40 }
  - { offsetInCU: 0x1A88E, offset: 0x19FCD0, size: 0x8, addend: 0x0, symName: __ZN9CursorMan10LoadObjectENSt3__112basic_stringIcNS0_11char_traitsIcEENS0_9allocatorIcEEEE5POINT, symObjAddr: 0x143C, symBinAddr: 0x100021E98, symSize: 0x11C }
  - { offsetInCU: 0x1AD60, offset: 0x1A01A2, size: 0x8, addend: 0x0, symName: __ZN9CursorMan10DropObjectEP5POINTS1_, symObjAddr: 0x1558, symBinAddr: 0x100021FB4, symSize: 0x11C }
  - { offsetInCU: 0x1B16F, offset: 0x1A05B1, size: 0x8, addend: 0x0, symName: __ZN9CursorMan12HeldObjectIdEv, symObjAddr: 0x1674, symBinAddr: 0x1000220D0, symSize: 0x58 }
  - { offsetInCU: 0x1B28D, offset: 0x1A06CF, size: 0x8, addend: 0x0, symName: __ZN9CursorMan10HeldObjectEv, symObjAddr: 0x16CC, symBinAddr: 0x100022128, symSize: 0x18 }
  - { offsetInCU: 0x1B2D9, offset: 0x1A071B, size: 0x8, addend: 0x0, symName: __ZN9CursorMan9SetCursorE3CID, symObjAddr: 0x16E4, symBinAddr: 0x100022140, symSize: 0x2C }
  - { offsetInCU: 0x1B312, offset: 0x1A0754, size: 0x8, addend: 0x0, symName: __ZN9CursorMan9SetCursorE3CID, symObjAddr: 0x16E4, symBinAddr: 0x100022140, symSize: 0x2C }
  - { offsetInCU: 0x1B378, offset: 0x1A07BA, size: 0x8, addend: 0x0, symName: __ZN9CursorMan9GetCursorEv, symObjAddr: 0x1710, symBinAddr: 0x10002216C, symSize: 0x18 }
  - { offsetInCU: 0x1B3A5, offset: 0x1A07E7, size: 0x8, addend: 0x0, symName: __ZN9CursorMan9GetCursorEv, symObjAddr: 0x1710, symBinAddr: 0x10002216C, symSize: 0x18 }
  - { offsetInCU: 0x1B3CE, offset: 0x1A0810, size: 0x8, addend: 0x0, symName: __ZN9CursorMan14RestoreDisplayEv, symObjAddr: 0x1728, symBinAddr: 0x100022184, symSize: 0x8C }
  - { offsetInCU: 0x1B7A3, offset: 0x1A0BE5, size: 0x8, addend: 0x0, symName: __ZNSt3__13mapI3CIDNS_12basic_stringIcNS_11char_traitsIcEENS_9allocatorIcEEEENS_4lessIS1_EENS5_INS_4pairIKS1_S7_EEEEEC2B8ue170006ESt16initializer_listISC_ERKS9_, symObjAddr: 0x1958, symBinAddr: 0x100022210, symSize: 0x7C }
  - { offsetInCU: 0x1B9D2, offset: 0x1A0E14, size: 0x8, addend: 0x0, symName: __ZNSt3__16__treeINS_12__value_typeI3CIDNS_12basic_stringIcNS_11char_traitsIcEENS_9allocatorIcEEEEEENS_19__map_value_compareIS2_S9_NS_4lessIS2_EELb1EEENS6_IS9_EEE30__emplace_hint_unique_key_argsIS2_JRKNS_4pairIKS2_S8_EEEEENSH_INS_15__tree_iteratorIS9_PNS_11__tree_nodeIS9_PvEElEEbEENS_21__tree_const_iteratorIS9_SQ_lEERKT_DpOT0_, symObjAddr: 0x19D4, symBinAddr: 0x10002228C, symSize: 0x80 }
  - { offsetInCU: 0x1BBAA, offset: 0x1A0FEC, size: 0x8, addend: 0x0, symName: __ZNSt3__16__treeINS_12__value_typeI3CIDNS_12basic_stringIcNS_11char_traitsIcEENS_9allocatorIcEEEEEENS_19__map_value_compareIS2_S9_NS_4lessIS2_EELb1EEENS6_IS9_EEE12__find_equalIS2_EERPNS_16__tree_node_baseIPvEENS_21__tree_const_iteratorIS9_PNS_11__tree_nodeIS9_SI_EElEERPNS_15__tree_end_nodeISK_EESL_RKT_, symObjAddr: 0x1A54, symBinAddr: 0x10002230C, symSize: 0x1A8 }
  - { offsetInCU: 0x1BC12, offset: 0x1A1054, size: 0x8, addend: 0x0, symName: __ZNSt3__16__treeINS_12__value_typeI3CIDNS_12basic_stringIcNS_11char_traitsIcEENS_9allocatorIcEEEEEENS_19__map_value_compareIS2_S9_NS_4lessIS2_EELb1EEENS6_IS9_EEE12__find_equalIS2_EERPNS_16__tree_node_baseIPvEENS_21__tree_const_iteratorIS9_PNS_11__tree_nodeIS9_SI_EElEERPNS_15__tree_end_nodeISK_EESL_RKT_, symObjAddr: 0x1A54, symBinAddr: 0x10002230C, symSize: 0x1A8 }
  - { offsetInCU: 0x1BC30, offset: 0x1A1072, size: 0x8, addend: 0x0, symName: __ZNSt3__16__treeINS_12__value_typeI3CIDNS_12basic_stringIcNS_11char_traitsIcEENS_9allocatorIcEEEEEENS_19__map_value_compareIS2_S9_NS_4lessIS2_EELb1EEENS6_IS9_EEE12__find_equalIS2_EERPNS_16__tree_node_baseIPvEENS_21__tree_const_iteratorIS9_PNS_11__tree_nodeIS9_SI_EElEERPNS_15__tree_end_nodeISK_EESL_RKT_, symObjAddr: 0x1A54, symBinAddr: 0x10002230C, symSize: 0x1A8 }
  - { offsetInCU: 0x1BFB0, offset: 0x1A13F2, size: 0x8, addend: 0x0, symName: __ZNSt3__16__treeINS_12__value_typeI3CIDNS_12basic_stringIcNS_11char_traitsIcEENS_9allocatorIcEEEEEENS_19__map_value_compareIS2_S9_NS_4lessIS2_EELb1EEENS6_IS9_EEE16__construct_nodeIJRKNS_4pairIKS2_S8_EEEEENS_10unique_ptrINS_11__tree_nodeIS9_PvEENS_22__tree_node_destructorINS6_ISP_EEEEEEDpOT_, symObjAddr: 0x1BFC, symBinAddr: 0x1000224B4, symSize: 0xA8 }
  - { offsetInCU: 0x1C325, offset: 0x1A1767, size: 0x8, addend: 0x0, symName: __ZNSt3__16__treeINS_12__value_typeI3CIDNS_12basic_stringIcNS_11char_traitsIcEENS_9allocatorIcEEEEEENS_19__map_value_compareIS2_S9_NS_4lessIS2_EELb1EEENS6_IS9_EEE16__insert_node_atEPNS_15__tree_end_nodeIPNS_16__tree_node_baseIPvEEEERSK_SK_, symObjAddr: 0x1CA4, symBinAddr: 0x10002255C, symSize: 0x54 }
  - { offsetInCU: 0x1C788, offset: 0x1A1BCA, size: 0x8, addend: 0x0, symName: __ZNSt3__122__tree_node_destructorINS_9allocatorINS_11__tree_nodeINS_12__value_typeI3CIDNS_12basic_stringIcNS_11char_traitsIcEENS1_IcEEEEEEPvEEEEEclB8ue170006EPSC_, symObjAddr: 0x1E90, symBinAddr: 0x1000225B0, symSize: 0x4C }
  - { offsetInCU: 0x3F, offset: 0x1A244B, size: 0x8, addend: 0x0, symName: __ZL2_K, symObjAddr: 0x6F0, symBinAddr: 0x10028D500, symSize: 0x0 }
  - { offsetInCU: 0x81, offset: 0x1A248D, size: 0x8, addend: 0x0, symName: __Z8sha1_padP9sha1_ctxt, symObjAddr: 0x8, symBinAddr: 0x100022E8C, symSize: 0x200 }
  - { offsetInCU: 0x195, offset: 0x1A25A1, size: 0x8, addend: 0x0, symName: __ZL9sha1_stepP9sha1_ctxt, symObjAddr: 0x208, symBinAddr: 0x10002308C, symSize: 0x2F0 }
  - { offsetInCU: 0x249, offset: 0x1A2655, size: 0x8, addend: 0x0, symName: __Z9sha1_loopP9sha1_ctxtPKhm, symObjAddr: 0x4F8, symBinAddr: 0x10002337C, symSize: 0xA8 }
  - { offsetInCU: 0x2E8, offset: 0x1A26F4, size: 0x8, addend: 0x0, symName: __Z11sha1_resultP9sha1_ctxtPv, symObjAddr: 0x5A0, symBinAddr: 0x100023424, symSize: 0xC4 }
  - { offsetInCU: 0x459, offset: 0x1A2865, size: 0x8, addend: 0x0, symName: __Z4SHA1PKhmPh, symObjAddr: 0x664, symBinAddr: 0x1000234E8, symSize: 0x6C }
  - { offsetInCU: 0x26, offset: 0x1A295E, size: 0x8, addend: 0x0, symName: __ZN10ControlSet16LoadViewControlsEP4VIEW, symObjAddr: 0x0, symBinAddr: 0x100023554, symSize: 0xC38 }
  - { offsetInCU: 0x12A80, offset: 0x1B53B8, size: 0x8, addend: 0x0, symName: __ZN10ControlSet16LoadViewControlsEP4VIEW, symObjAddr: 0x0, symBinAddr: 0x100023554, symSize: 0xC38 }
  - { offsetInCU: 0x18CC7, offset: 0x1BB5FF, size: 0x8, addend: 0x0, symName: __ZNSt3__16__treeINS_12__value_typeINS_12basic_stringIcNS_11char_traitsIcEENS_9allocatorIcEEEEP7CONTROLEENS_19__map_value_compareIS7_SA_NS_4lessIS7_EELb1EEENS5_ISA_EEE25__emplace_unique_key_argsIS7_JRKNS_21piecewise_construct_tENS_5tupleIJRKS7_EEENSL_IJEEEEEENS_4pairINS_15__tree_iteratorISA_PNS_11__tree_nodeISA_PvEElEEbEERKT_DpOT0_, symObjAddr: 0xDDC, symBinAddr: 0x10002418C, symSize: 0x94 }
  - { offsetInCU: 0x18CE7, offset: 0x1BB61F, size: 0x8, addend: 0x0, symName: __ZNSt3__16__treeINS_12__value_typeINS_12basic_stringIcNS_11char_traitsIcEENS_9allocatorIcEEEEP7CONTROLEENS_19__map_value_compareIS7_SA_NS_4lessIS7_EELb1EEENS5_ISA_EEE25__emplace_unique_key_argsIS7_JRKNS_21piecewise_construct_tENS_5tupleIJRKS7_EEENSL_IJEEEEEENS_4pairINS_15__tree_iteratorISA_PNS_11__tree_nodeISA_PvEElEEbEERKT_DpOT0_, symObjAddr: 0xDDC, symBinAddr: 0x10002418C, symSize: 0x94 }
  - { offsetInCU: 0x19219, offset: 0x1BBB51, size: 0x8, addend: 0x0, symName: __ZNSt3__16__treeINS_12__value_typeINS_12basic_stringIcNS_11char_traitsIcEENS_9allocatorIcEEEEP7CONTROLEENS_19__map_value_compareIS7_SA_NS_4lessIS7_EELb1EEENS5_ISA_EEE16__construct_nodeIJRKNS_21piecewise_construct_tENS_5tupleIJRKS7_EEENSL_IJEEEEEENS_10unique_ptrINS_11__tree_nodeISA_PvEENS_22__tree_node_destructorINS5_IST_EEEEEEDpOT_, symObjAddr: 0xF00, symBinAddr: 0x100024220, symSize: 0xA4 }
  - { offsetInCU: 0x19AAE, offset: 0x1BC3E6, size: 0x8, addend: 0x0, symName: __ZNSt3__122__tree_node_destructorINS_9allocatorINS_11__tree_nodeINS_12__value_typeINS_12basic_stringIcNS_11char_traitsIcEENS1_IcEEEEP7CONTROLEEPvEEEEEclB8ue170006EPSD_, symObjAddr: 0x1224, symBinAddr: 0x1000242C4, symSize: 0x4C }
  - { offsetInCU: 0x26, offset: 0x1BC7F6, size: 0x8, addend: 0x0, symName: __Z11rotate_leftP8tagRGBA8jj, symObjAddr: 0x0, symBinAddr: 0x100024310, symSize: 0xC4 }
  - { offsetInCU: 0x92, offset: 0x1BC862, size: 0x8, addend: 0x0, symName: __Z11rotate_leftP8tagRGBA8jj, symObjAddr: 0x0, symBinAddr: 0x100024310, symSize: 0xC4 }
  - { offsetInCU: 0x41, offset: 0x1BC9CE, size: 0x8, addend: 0x0, symName: _engine, symObjAddr: 0x8308, symBinAddr: 0x1003224B0, symSize: 0x0 }
  - { offsetInCU: 0x1580, offset: 0x1BDF0D, size: 0x8, addend: 0x0, symName: _mixer, symObjAddr: 0x8310, symBinAddr: 0x1003224B8, symSize: 0x0 }
  - { offsetInCU: 0x1595, offset: 0x1BDF22, size: 0x8, addend: 0x0, symName: _effects, symObjAddr: 0x8318, symBinAddr: 0x1003224C0, symSize: 0x0 }
  - { offsetInCU: 0x15D2, offset: 0x1BDF5F, size: 0x8, addend: 0x0, symName: _music, symObjAddr: 0x8320, symBinAddr: 0x1003224C8, symSize: 0x0 }
  - { offsetInCU: 0x15E7, offset: 0x1BDF74, size: 0x8, addend: 0x0, symName: _music_file, symObjAddr: 0x8328, symBinAddr: 0x1003224D0, symSize: 0x0 }
  - { offsetInCU: 0x1902, offset: 0x1BE28F, size: 0x8, addend: 0x0, symName: _effects_file, symObjAddr: 0x8330, symBinAddr: 0x1003224D8, symSize: 0x0 }
  - { offsetInCU: 0x2BFA, offset: 0x1BF587, size: 0x8, addend: 0x0, symName: __Z16AudioEngine_initv, symObjAddr: 0x0, symBinAddr: 0x1000243D4, symSize: 0x1BC }
  - { offsetInCU: 0x2C59, offset: 0x1BF5E6, size: 0x8, addend: 0x0, symName: __Z21AudioEngine_setVolumef, symObjAddr: 0x1BC, symBinAddr: 0x100024590, symSize: 0xC }
  - { offsetInCU: 0x2C83, offset: 0x1BF610, size: 0x8, addend: 0x0, symName: __Z26AudioEngine_setMusicVolumef, symObjAddr: 0x1C8, symBinAddr: 0x10002459C, symSize: 0xC }
  - { offsetInCU: 0x2CAD, offset: 0x1BF63A, size: 0x8, addend: 0x0, symName: __Z16AudioEnging_playPKc, symObjAddr: 0x1D4, symBinAddr: 0x1000245A8, symSize: 0x15C }
  - { offsetInCU: 0x2D22, offset: 0x1BF6AF, size: 0x8, addend: 0x0, symName: __Z31AudioEnging_playbackgroundmusicPKc, symObjAddr: 0x33C, symBinAddr: 0x100024704, symSize: 0x130 }
  - { offsetInCU: 0x4CFC, offset: 0x1C45A5, size: 0x8, addend: 0x0, symName: __Z9splitpathPKcPcS1_S1_S1_, symObjAddr: 0x70, symBinAddr: 0x100024834, symSize: 0xE0 }
  - { offsetInCU: 0x4E28, offset: 0x1C46D1, size: 0x8, addend: 0x0, symName: __Z8makepathPcPKcS1_S1_S1_, symObjAddr: 0x150, symBinAddr: 0x100024914, symSize: 0x8C }
  - { offsetInCU: 0x5234, offset: 0x1C4ADD, size: 0x8, addend: 0x0, symName: __ZN3ONE8freeBitsEv, symObjAddr: 0x278, symBinAddr: 0x1000249A0, symSize: 0x50 }
  - { offsetInCU: 0x527D, offset: 0x1C4B26, size: 0x8, addend: 0x0, symName: __ZN3ONE9allocBitsEv, symObjAddr: 0x2C8, symBinAddr: 0x1000249F0, symSize: 0x68 }
  - { offsetInCU: 0x530A, offset: 0x1C4BB3, size: 0x8, addend: 0x0, symName: __ZN3ONE8ValidateEv, symObjAddr: 0x858, symBinAddr: 0x100024EFC, symSize: 0x90 }
  - { offsetInCU: 0x5357, offset: 0x1C4C00, size: 0x8, addend: 0x0, symName: __ZN3ONE7ReadOneEPKcP15tagPALETTEENTRY, symObjAddr: 0x8E8, symBinAddr: 0x100024F8C, symSize: 0x2C0 }
  - { offsetInCU: 0x53B1, offset: 0x1C4C5A, size: 0x8, addend: 0x0, symName: __ZN3ONE9allocBitsEv.cold.1, symObjAddr: 0x1108, symBinAddr: 0x10024F668, symSize: 0x28 }
  - { offsetInCU: 0x53F6, offset: 0x1C4C9F, size: 0x8, addend: 0x0, symName: __ZN3ONE14ConvertTo32bitEPhP15tagPALETTEENTRY, symObjAddr: 0x380, symBinAddr: 0x100024A58, symSize: 0xFC }
  - { offsetInCU: 0x55D5, offset: 0x1C4E7E, size: 0x8, addend: 0x0, symName: __ZN3ONE12UnCompress00EPh, symObjAddr: 0x47C, symBinAddr: 0x100024B54, symSize: 0x164 }
  - { offsetInCU: 0x56ED, offset: 0x1C4F96, size: 0x8, addend: 0x0, symName: __ZN3ONE12UnCompress02EPh, symObjAddr: 0x5E0, symBinAddr: 0x100024CB8, symSize: 0x1C0 }
  - { offsetInCU: 0x56F8, offset: 0x1C4FA1, size: 0x8, addend: 0x0, symName: __ZN3ONE12UnCompress00EPh.cold.1, symObjAddr: 0x1130, symBinAddr: 0x10024F690, symSize: 0x28 }
  - { offsetInCU: 0x5710, offset: 0x1C4FB9, size: 0x8, addend: 0x0, symName: __ZN3ONE12UnCompress00EPh.cold.2, symObjAddr: 0x1158, symBinAddr: 0x10024F6B8, symSize: 0x28 }
  - { offsetInCU: 0x5822, offset: 0x1C50CB, size: 0x8, addend: 0x0, symName: __ZN3ONE12UnCompress02EPh, symObjAddr: 0x5E0, symBinAddr: 0x100024CB8, symSize: 0x1C0 }
  - { offsetInCU: 0x599A, offset: 0x1C5243, size: 0x8, addend: 0x0, symName: __ZN3ONE12UnCompress02EPh.cold.1, symObjAddr: 0x1180, symBinAddr: 0x10024F6E0, symSize: 0x28 }
  - { offsetInCU: 0x59B2, offset: 0x1C525B, size: 0x8, addend: 0x0, symName: __ZN3ONE12UnCompress02EPh.cold.2, symObjAddr: 0x11A8, symBinAddr: 0x10024F708, symSize: 0x28 }
  - { offsetInCU: 0x5A44, offset: 0x1C52ED, size: 0x8, addend: 0x0, symName: __ZN3ONEC1EPjiii, symObjAddr: 0x7C8, symBinAddr: 0x100024E78, symSize: 0x28 }
  - { offsetInCU: 0x5AAF, offset: 0x1C5358, size: 0x8, addend: 0x0, symName: __ZN3ONEC1EPjiii, symObjAddr: 0x7C8, symBinAddr: 0x100024E78, symSize: 0x28 }
  - { offsetInCU: 0x5BCE, offset: 0x1C5477, size: 0x8, addend: 0x0, symName: __ZN3ONED2Ev, symObjAddr: 0x7F0, symBinAddr: 0x100024EA0, symSize: 0x58 }
  - { offsetInCU: 0x5D49, offset: 0x1C55F2, size: 0x8, addend: 0x0, symName: __ZN3ONED1Ev, symObjAddr: 0x854, symBinAddr: 0x100024EF8, symSize: 0x4 }
  - { offsetInCU: 0x5D78, offset: 0x1C5621, size: 0x8, addend: 0x0, symName: __ZN3ONED1Ev, symObjAddr: 0x854, symBinAddr: 0x100024EF8, symSize: 0x4 }
  - { offsetInCU: 0x5D8B, offset: 0x1C5634, size: 0x8, addend: 0x0, symName: __ZN3ONE8ValidateEv.cold.2, symObjAddr: 0x11F8, symBinAddr: 0x10024F758, symSize: 0x28 }
  - { offsetInCU: 0x5DA3, offset: 0x1C564C, size: 0x8, addend: 0x0, symName: __ZN3ONE8ValidateEv.cold.1, symObjAddr: 0x11D0, symBinAddr: 0x10024F730, symSize: 0x28 }
  - { offsetInCU: 0x5EC1, offset: 0x1C576A, size: 0x8, addend: 0x0, symName: __ZN3ONE7ReadOneEPKcP15tagPALETTEENTRY, symObjAddr: 0x8E8, symBinAddr: 0x100024F8C, symSize: 0x2C0 }
  - { offsetInCU: 0x6412, offset: 0x1C5CBB, size: 0x8, addend: 0x0, symName: __ZN5XFile12SetExtensionEPKc, symObjAddr: 0xBA8, symBinAddr: 0x10002524C, symSize: 0x8C }
  - { offsetInCU: 0x650F, offset: 0x1C5DB8, size: 0x8, addend: 0x0, symName: __ZN5XFileD2Ev, symObjAddr: 0x10D8, symBinAddr: 0x1000256A0, symSize: 0x30 }
  - { offsetInCU: 0x6547, offset: 0x1C5DF0, size: 0x8, addend: 0x0, symName: __ZN3ONE9SelfCheckEPKc, symObjAddr: 0xC34, symBinAddr: 0x1000252D8, symSize: 0xA0 }
  - { offsetInCU: 0x6605, offset: 0x1C5EAE, size: 0x8, addend: 0x0, symName: __ZN3ONE4ReadEPKcS1_P15tagPALETTEENTRYb, symObjAddr: 0xCD4, symBinAddr: 0x100025378, symSize: 0x1A4 }
  - { offsetInCU: 0x6786, offset: 0x1C602F, size: 0x8, addend: 0x0, symName: __ZN3ONE4InitEii, symObjAddr: 0xE78, symBinAddr: 0x10002551C, symSize: 0x3C }
  - { offsetInCU: 0x67FD, offset: 0x1C60A6, size: 0x8, addend: 0x0, symName: __ZN3ONE11ReadPalFileEPKcP7PALETTE, symObjAddr: 0xED4, symBinAddr: 0x100025558, symSize: 0x148 }
  - { offsetInCU: 0x26, offset: 0x1C62D1, size: 0x8, addend: 0x0, symName: __Z17lodepng_load_filePPhPmPKc, symObjAddr: 0x0, symBinAddr: 0x1000256D0, symSize: 0x74 }
  - { offsetInCU: 0x1E6, offset: 0x1C6491, size: 0x8, addend: 0x0, symName: __ZL10CLCL_ORDER, symObjAddr: 0xD2D0, symBinAddr: 0x10028DC10, symSize: 0x0 }
  - { offsetInCU: 0x20D, offset: 0x1C64B8, size: 0x8, addend: 0x0, symName: __ZL10LENGTHBASE, symObjAddr: 0xD0F8, symBinAddr: 0x10028DA38, symSize: 0x0 }
  - { offsetInCU: 0x234, offset: 0x1C64DF, size: 0x8, addend: 0x0, symName: __ZL11LENGTHEXTRA, symObjAddr: 0xD16C, symBinAddr: 0x10028DAAC, symSize: 0x0 }
  - { offsetInCU: 0x24F, offset: 0x1C64FA, size: 0x8, addend: 0x0, symName: __ZL12DISTANCEBASE, symObjAddr: 0xD1E0, symBinAddr: 0x10028DB20, symSize: 0x0 }
  - { offsetInCU: 0x276, offset: 0x1C6521, size: 0x8, addend: 0x0, symName: __ZL13DISTANCEEXTRA, symObjAddr: 0xD258, symBinAddr: 0x10028DB98, symSize: 0x0 }
  - { offsetInCU: 0x2C5, offset: 0x1C6570, size: 0x8, addend: 0x0, symName: __ZL19lodepng_crc32_table, symObjAddr: 0xCCF8, symBinAddr: 0x10028D638, symSize: 0x0 }
  - { offsetInCU: 0x2EE, offset: 0x1C6599, size: 0x8, addend: 0x0, symName: __ZL8ADAM7_DX, symObjAddr: 0xD31C, symBinAddr: 0x10028DC5C, symSize: 0x0 }
  - { offsetInCU: 0x315, offset: 0x1C65C0, size: 0x8, addend: 0x0, symName: __ZL8ADAM7_IX, symObjAddr: 0xD338, symBinAddr: 0x10028DC78, symSize: 0x0 }
  - { offsetInCU: 0x330, offset: 0x1C65DB, size: 0x8, addend: 0x0, symName: __ZL8ADAM7_DY, symObjAddr: 0xD354, symBinAddr: 0x10028DC94, symSize: 0x0 }
  - { offsetInCU: 0x34B, offset: 0x1C65F6, size: 0x8, addend: 0x0, symName: __ZL8ADAM7_IY, symObjAddr: 0xD370, symBinAddr: 0x10028DCB0, symSize: 0x0 }
  - { offsetInCU: 0x2E29, offset: 0x1C90D4, size: 0x8, addend: 0x0, symName: __Z17lodepng_load_filePPhPmPKc, symObjAddr: 0x0, symBinAddr: 0x1000256D0, symSize: 0x74 }
  - { offsetInCU: 0x2ED9, offset: 0x1C9184, size: 0x8, addend: 0x0, symName: __ZL16lodepng_filesizePKc, symObjAddr: 0x74, symBinAddr: 0x100025744, symSize: 0x6C }
  - { offsetInCU: 0x2F6B, offset: 0x1C9216, size: 0x8, addend: 0x0, symName: __ZL19lodepng_buffer_filePhmPKc, symObjAddr: 0xE0, symBinAddr: 0x1000257B0, symSize: 0x70 }
  - { offsetInCU: 0x3133, offset: 0x1C93DE, size: 0x8, addend: 0x0, symName: __ZL16lodepng_inflatevP8ucvectorPKhmPK25LodePNGDecompressSettings, symObjAddr: 0x894, symBinAddr: 0x100025820, symSize: 0xBAC }
  - { offsetInCU: 0x444F, offset: 0x1CA6FA, size: 0x8, addend: 0x0, symName: __ZL16ucvector_reserveP8ucvectorm, symObjAddr: 0x9E64, symBinAddr: 0x100029D9C, symSize: 0x48 }
  - { offsetInCU: 0x44C2, offset: 0x1CA76D, size: 0x8, addend: 0x0, symName: __ZL23generateFixedLitLenTreeP11HuffmanTree, symObjAddr: 0x9F68, symBinAddr: 0x100029EA0, symSize: 0xAC }
  - { offsetInCU: 0x4584, offset: 0x1CA82F, size: 0x8, addend: 0x0, symName: __ZL25generateFixedDistanceTreeP11HuffmanTree, symObjAddr: 0xA014, symBinAddr: 0x100029F4C, symSize: 0x68 }
  - { offsetInCU: 0x4645, offset: 0x1CA8F0, size: 0x8, addend: 0x0, symName: __ZL27HuffmanTree_makeFromLengthsP11HuffmanTreePKjmj, symObjAddr: 0xA07C, symBinAddr: 0x100029FB4, symSize: 0x78 }
  - { offsetInCU: 0x46EA, offset: 0x1CA995, size: 0x8, addend: 0x0, symName: __ZL19huffmanDecodeSymbolP16LodePNGBitReaderPK11HuffmanTree, symObjAddr: 0x9EAC, symBinAddr: 0x100029DE4, symSize: 0x84 }
  - { offsetInCU: 0x4817, offset: 0x1CAAC2, size: 0x8, addend: 0x0, symName: __ZL19HuffmanTree_cleanupP11HuffmanTree, symObjAddr: 0x9F30, symBinAddr: 0x100029E68, symSize: 0x38 }
  - { offsetInCU: 0x492C, offset: 0x1CABD7, size: 0x8, addend: 0x0, symName: __ZL24lodepng_zlib_decompressvP8ucvectorPKhmPK25LodePNGDecompressSettings, symObjAddr: 0x1FEC, symBinAddr: 0x1000263CC, symSize: 0x12C }
  - { offsetInCU: 0x4B27, offset: 0x1CADD2, size: 0x8, addend: 0x0, symName: __ZL7adler32PKhj, symObjAddr: 0x2240, symBinAddr: 0x1000264F8, symSize: 0x7C }
  - { offsetInCU: 0x4B6A, offset: 0x1CAE15, size: 0x8, addend: 0x0, symName: __ZL7adler32PKhj, symObjAddr: 0x2240, symBinAddr: 0x1000264F8, symSize: 0x7C }
  - { offsetInCU: 0x4C37, offset: 0x1CAEE2, size: 0x8, addend: 0x0, symName: __Z18lodepng_chunk_typePcPKh, symObjAddr: 0x2338, symBinAddr: 0x100026574, symSize: 0x24 }
  - { offsetInCU: 0x4CAA, offset: 0x1CAF55, size: 0x8, addend: 0x0, symName: __Z25lodepng_chunk_type_equalsPKhPKc, symObjAddr: 0x235C, symBinAddr: 0x100026598, symSize: 0x64 }
  - { offsetInCU: 0x4D12, offset: 0x1CAFBD, size: 0x8, addend: 0x0, symName: __Z24lodepng_chunk_data_constPKh, symObjAddr: 0x23EC, symBinAddr: 0x1000265FC, symSize: 0x8 }
  - { offsetInCU: 0x4D91, offset: 0x1CB03C, size: 0x8, addend: 0x0, symName: __Z23lodepng_chunk_check_crcPKh, symObjAddr: 0x23F4, symBinAddr: 0x100026604, symSize: 0x74 }
  - { offsetInCU: 0x4DF7, offset: 0x1CB0A2, size: 0x8, addend: 0x0, symName: __Z23lodepng_chunk_check_crcPKh, symObjAddr: 0x23F4, symBinAddr: 0x100026604, symSize: 0x74 }
  - { offsetInCU: 0x4E15, offset: 0x1CB0C0, size: 0x8, addend: 0x0, symName: __Z23lodepng_chunk_check_crcPKh, symObjAddr: 0x23F4, symBinAddr: 0x100026604, symSize: 0x74 }
  - { offsetInCU: 0x4E8A, offset: 0x1CB135, size: 0x8, addend: 0x0, symName: __Z24lodepng_chunk_next_constPKhS0_, symObjAddr: 0x2570, symBinAddr: 0x100026678, symSize: 0xB0 }
  - { offsetInCU: 0x4F5A, offset: 0x1CB205, size: 0x8, addend: 0x0, symName: __Z20lodepng_chunk_appendPPhPmPKh, symObjAddr: 0x2718, symBinAddr: 0x100026728, symSize: 0x94 }
  - { offsetInCU: 0x5169, offset: 0x1CB414, size: 0x8, addend: 0x0, symName: __Z23lodepng_color_mode_copyP16LodePNGColorModePKS_, symObjAddr: 0x28DC, symBinAddr: 0x1000267BC, symSize: 0xA0 }
  - { offsetInCU: 0x52B0, offset: 0x1CB55B, size: 0x8, addend: 0x0, symName: __ZL32lodepng_color_mode_alloc_paletteP16LodePNGColorMode, symObjAddr: 0x2A38, symBinAddr: 0x10002685C, symSize: 0x74 }
  - { offsetInCU: 0x5337, offset: 0x1CB5E2, size: 0x8, addend: 0x0, symName: __ZL19getNumColorChannels16LodePNGColorType, symObjAddr: 0x2ADC, symBinAddr: 0x1000268D0, symSize: 0x54 }
  - { offsetInCU: 0x53CC, offset: 0x1CB677, size: 0x8, addend: 0x0, symName: __Z20lodepng_get_raw_sizejjPK16LodePNGColorMode, symObjAddr: 0x2BDC, symBinAddr: 0x100026924, symSize: 0x50 }
  - { offsetInCU: 0x5483, offset: 0x1CB72E, size: 0x8, addend: 0x0, symName: __ZL22lodepng_add_text_sizedP11LodePNGInfoPKcS2_m, symObjAddr: 0x2C44, symBinAddr: 0x100026974, symSize: 0xF4 }
  - { offsetInCU: 0x562D, offset: 0x1CB8D8, size: 0x8, addend: 0x0, symName: __ZL12alloc_stringPKc, symObjAddr: 0xB0FC, symBinAddr: 0x10002A520, symSize: 0x68 }
  - { offsetInCU: 0x5701, offset: 0x1CB9AC, size: 0x8, addend: 0x0, symName: __ZL19LodePNGText_cleanupP11LodePNGInfo, symObjAddr: 0x2D3C, symBinAddr: 0x100026A68, symSize: 0x6C }
  - { offsetInCU: 0x5821, offset: 0x1CBACC, size: 0x8, addend: 0x0, symName: __ZL20LodePNGIText_cleanupP11LodePNGInfo, symObjAddr: 0x2DAC, symBinAddr: 0x100026AD4, symSize: 0x9C }
  - { offsetInCU: 0x59EE, offset: 0x1CBC99, size: 0x8, addend: 0x0, symName: __ZL23lodepng_add_itext_sizedP11LodePNGInfoPKcS2_S2_S2_m, symObjAddr: 0x2E60, symBinAddr: 0x100026B70, symSize: 0x168 }
  - { offsetInCU: 0x5F63, offset: 0x1CC20E, size: 0x8, addend: 0x0, symName: __Z20lodepng_info_cleanupP11LodePNGInfo, symObjAddr: 0x3158, symBinAddr: 0x100026CD8, symSize: 0x84 }
  - { offsetInCU: 0x6276, offset: 0x1CC521, size: 0x8, addend: 0x0, symName: __Z15lodepng_convertPhPKhPK16LodePNGColorModeS4_jj, symObjAddr: 0x33CC, symBinAddr: 0x100026D5C, symSize: 0x54C }
  - { offsetInCU: 0x6804, offset: 0x1CCAAF, size: 0x8, addend: 0x0, symName: __ZL24lodepng_color_mode_equalPK16LodePNGColorModeS1_, symObjAddr: 0x3918, symBinAddr: 0x1000272A8, symSize: 0xBC }
  - { offsetInCU: 0x6854, offset: 0x1CCAFF, size: 0x8, addend: 0x0, symName: __ZL14color_tree_addP9ColorTreehhhhj, symObjAddr: 0x39D4, symBinAddr: 0x100027364, symSize: 0xCC }
  - { offsetInCU: 0x697B, offset: 0x1CCC26, size: 0x8, addend: 0x0, symName: __ZL19getPixelColorRGBA16PtS_S_S_PKhmPK16LodePNGColorMode, symObjAddr: 0x3AA0, symBinAddr: 0x100027430, symSize: 0x18C }
  - { offsetInCU: 0x6A00, offset: 0x1CCCAB, size: 0x8, addend: 0x0, symName: __ZL19getPixelColorsRGBA8PhmPKhPK16LodePNGColorMode, symObjAddr: 0x3C2C, symBinAddr: 0x1000275BC, symSize: 0x470 }
  - { offsetInCU: 0x6CBC, offset: 0x1CCF67, size: 0x8, addend: 0x0, symName: __ZL18getPixelColorRGBA8PhS_S_S_PKhmPK16LodePNGColorMode, symObjAddr: 0x43AC, symBinAddr: 0x100027D3C, symSize: 0x320 }
  - { offsetInCU: 0x6E5F, offset: 0x1CD10A, size: 0x8, addend: 0x0, symName: __ZL14color_tree_getP9ColorTreehhhh, symObjAddr: 0xB1B8, symBinAddr: 0x10002A5DC, symSize: 0x48 }
  - { offsetInCU: 0x6EFC, offset: 0x1CD1A7, size: 0x8, addend: 0x0, symName: __ZL12addColorBitsPhmjj, symObjAddr: 0xB164, symBinAddr: 0x10002A588, symSize: 0x54 }
  - { offsetInCU: 0x6F77, offset: 0x1CD222, size: 0x8, addend: 0x0, symName: __ZL18getPixelColorsRGB8PhmPKhPK16LodePNGColorMode, symObjAddr: 0x409C, symBinAddr: 0x100027A2C, symSize: 0x310 }
  - { offsetInCU: 0x7222, offset: 0x1CD4CD, size: 0x8, addend: 0x0, symName: __ZL18color_tree_cleanupP9ColorTree, symObjAddr: 0x46CC, symBinAddr: 0x10002805C, symSize: 0x40 }
  - { offsetInCU: 0x734A, offset: 0x1CD5F5, size: 0x8, addend: 0x0, symName: __Z15lodepng_inspectPjS_P12LodePNGStatePKhm, symObjAddr: 0x5034, symBinAddr: 0x10002809C, symSize: 0x268 }
  - { offsetInCU: 0x7535, offset: 0x1CD7E0, size: 0x8, addend: 0x0, symName: __ZL18checkColorValidity16LodePNGColorTypej, symObjAddr: 0x529C, symBinAddr: 0x100028304, symSize: 0x8C }
  - { offsetInCU: 0x75E2, offset: 0x1CD88D, size: 0x8, addend: 0x0, symName: __ZL14readChunk_PLTEP16LodePNGColorModePKhm, symObjAddr: 0x55E4, symBinAddr: 0x100028390, symSize: 0xD8 }
  - { offsetInCU: 0x7662, offset: 0x1CD90D, size: 0x8, addend: 0x0, symName: __ZL14readChunk_tRNSP16LodePNGColorModePKhm, symObjAddr: 0x56BC, symBinAddr: 0x100028468, symSize: 0xDC }
  - { offsetInCU: 0x76C1, offset: 0x1CD96C, size: 0x8, addend: 0x0, symName: __ZL14readChunk_bKGDP11LodePNGInfoPKhm, symObjAddr: 0x5798, symBinAddr: 0x100028544, symSize: 0xDC }
  - { offsetInCU: 0x770F, offset: 0x1CD9BA, size: 0x8, addend: 0x0, symName: __ZL14readChunk_tEXtP11LodePNGInfoPKhm, symObjAddr: 0x5874, symBinAddr: 0x100028620, symSize: 0x11C }
  - { offsetInCU: 0x7922, offset: 0x1CDBCD, size: 0x8, addend: 0x0, symName: __ZL14readChunk_zTXtP11LodePNGInfoPK22LodePNGDecoderSettingsPKhm, symObjAddr: 0x5990, symBinAddr: 0x10002873C, symSize: 0x164 }
  - { offsetInCU: 0x7AC8, offset: 0x1CDD73, size: 0x8, addend: 0x0, symName: __ZL14readChunk_iTXtP11LodePNGInfoPK22LodePNGDecoderSettingsPKhm, symObjAddr: 0x5AF4, symBinAddr: 0x1000288A0, symSize: 0x2A8 }
  - { offsetInCU: 0x7DD9, offset: 0x1CE084, size: 0x8, addend: 0x0, symName: __ZL14readChunk_tIMEP11LodePNGInfoPKhm, symObjAddr: 0x5D9C, symBinAddr: 0x100028B48, symSize: 0x58 }
  - { offsetInCU: 0x7E27, offset: 0x1CE0D2, size: 0x8, addend: 0x0, symName: __ZL14readChunk_pHYsP11LodePNGInfoPKhm, symObjAddr: 0x5DF4, symBinAddr: 0x100028BA0, symSize: 0x44 }
  - { offsetInCU: 0x7E75, offset: 0x1CE120, size: 0x8, addend: 0x0, symName: __ZL14readChunk_cHRMP11LodePNGInfoPKhm, symObjAddr: 0x5E38, symBinAddr: 0x100028BE4, symSize: 0x84 }
  - { offsetInCU: 0x7EC3, offset: 0x1CE16E, size: 0x8, addend: 0x0, symName: __ZL14readChunk_iCCPP11LodePNGInfoPK22LodePNGDecoderSettingsPKhm, symObjAddr: 0x5EBC, symBinAddr: 0x100028C68, symSize: 0x17C }
  - { offsetInCU: 0x803C, offset: 0x1CE2E7, size: 0x8, addend: 0x0, symName: __ZL14readChunk_sBITP11LodePNGInfoPKhm, symObjAddr: 0x6038, symBinAddr: 0x100028DE4, symSize: 0x1B8 }
  - { offsetInCU: 0x809B, offset: 0x1CE346, size: 0x8, addend: 0x0, symName: __ZL15zlib_decompressPPhPmmPKhmPK25LodePNGDecompressSettings, symObjAddr: 0x94CC, symBinAddr: 0x100029CAC, symSize: 0xF0 }
  - { offsetInCU: 0x8852, offset: 0x1CEAFD, size: 0x8, addend: 0x0, symName: __Z14lodepng_decodePPhPjS1_P12LodePNGStatePKhm, symObjAddr: 0x61F0, symBinAddr: 0x100028F9C, symSize: 0xBA0 }
  - { offsetInCU: 0x96BE, offset: 0x1CF969, size: 0x8, addend: 0x0, symName: __ZL19Adam7_getpassvaluesPjS_PmS0_S0_jjj, symObjAddr: 0xBBFC, symBinAddr: 0x10002B020, symSize: 0x118 }
  - { offsetInCU: 0x9766, offset: 0x1CFA11, size: 0x8, addend: 0x0, symName: __ZL8unfilterPhPKhjjj, symObjAddr: 0xB200, symBinAddr: 0x10002A624, symSize: 0x978 }
  - { offsetInCU: 0x9EC8, offset: 0x1D0173, size: 0x8, addend: 0x0, symName: __ZL17removePaddingBitsPhPKhmmj, symObjAddr: 0xBB78, symBinAddr: 0x10002AF9C, symSize: 0x84 }
  - { offsetInCU: 0xA07A, offset: 0x1D0325, size: 0x8, addend: 0x0, symName: __Z21lodepng_decode_memoryPPhPjS1_PKhm16LodePNGColorTypej, symObjAddr: 0x6D90, symBinAddr: 0x100029B3C, symSize: 0x118 }
  - { offsetInCU: 0xA232, offset: 0x1D04DD, size: 0x8, addend: 0x0, symName: __Z21lodepng_state_cleanupP12LodePNGState, symObjAddr: 0x6F74, symBinAddr: 0x100029C54, symSize: 0x34 }
  - { offsetInCU: 0xA2D7, offset: 0x1D0582, size: 0x8, addend: 0x0, symName: __Z18lodepng_error_textj, symObjAddr: 0x9370, symBinAddr: 0x100029C88, symSize: 0x24 }
  - { offsetInCU: 0xA307, offset: 0x1D05B2, size: 0x8, addend: 0x0, symName: __ZL28HuffmanTree_makeFromLengths2P11HuffmanTree, symObjAddr: 0xA0F4, symBinAddr: 0x10002A02C, symSize: 0x4F4 }
  - { offsetInCU: 0x26, offset: 0x1D0ED5, size: 0x8, addend: 0x0, symName: __ZN8wsClient19sendClientHandshakeENSt3__112basic_stringIcNS0_11char_traitsIcEENS0_9allocatorIcEEEES6_, symObjAddr: 0x0, symBinAddr: 0x10002B138, symSize: 0x358 }
  - { offsetInCU: 0x9C75, offset: 0x1DAB24, size: 0x8, addend: 0x0, symName: __ZNSt3__119__allocate_at_leastB8ue170006INS_9allocatorIP8wsClientEEEENS_19__allocation_resultINS_16allocator_traitsIT_E7pointerEEERS7_m, symObjAddr: 0x39A0, symBinAddr: 0x10002E414, symSize: 0x34 }
  - { offsetInCU: 0x9D1D, offset: 0x1DABCC, size: 0x8, addend: 0x0, symName: __ZNSt3__16vectorIhNS_9allocatorIhEEE18__insert_with_sizeB8ue170006IPcS5_EENS_11__wrap_iterIPhEENS6_IPKhEET_T0_l, symObjAddr: 0x39D4, symBinAddr: 0x10002E448, symSize: 0x200 }
  - { offsetInCU: 0xE091, offset: 0x1DEF40, size: 0x8, addend: 0x0, symName: __ZN8wsClient19sendClientHandshakeENSt3__112basic_stringIcNS0_11char_traitsIcEENS0_9allocatorIcEEEES6_, symObjAddr: 0x0, symBinAddr: 0x10002B138, symSize: 0x358 }
  - { offsetInCU: 0xF52D, offset: 0x1E03DC, size: 0x8, addend: 0x0, symName: __ZN8wsClient19wsSendClientMessageEhRKNSt3__16vectorIhNS0_9allocatorIhEEEE, symObjAddr: 0x3F0, symBinAddr: 0x10002B490, symSize: 0x1E0 }
  - { offsetInCU: 0xF72F, offset: 0x1E05DE, size: 0x8, addend: 0x0, symName: __ZN8wsClient17wsSendClientCloseEt, symObjAddr: 0x5D4, symBinAddr: 0x10002B670, symSize: 0x68 }
  - { offsetInCU: 0xF806, offset: 0x1E06B5, size: 0x8, addend: 0x0, symName: __ZN8wsClient11wsCheckIdleEl, symObjAddr: 0x63C, symBinAddr: 0x10002B6D8, symSize: 0xF0 }
  - { offsetInCU: 0xFCF5, offset: 0x1E0BA4, size: 0x8, addend: 0x0, symName: __ZN8wsServer18wsCheckIdleClientsEv, symObjAddr: 0x72C, symBinAddr: 0x10002B7C8, symSize: 0x8C }
  - { offsetInCU: 0xFDAA, offset: 0x1E0C59, size: 0x8, addend: 0x0, symName: __ZN8wsServer14wsRemoveClientEi, symObjAddr: 0x7B8, symBinAddr: 0x10002B854, symSize: 0x118 }
  - { offsetInCU: 0x102A3, offset: 0x1E1152, size: 0x8, addend: 0x0, symName: __ZN8wsServer6wsSendEiRKNSt3__16vectorIhNS0_9allocatorIhEEEEb, symObjAddr: 0xA08, symBinAddr: 0x10002B96C, symSize: 0x30 }
  - { offsetInCU: 0x1046B, offset: 0x1E131A, size: 0x8, addend: 0x0, symName: __ZN8wsClient22wsProcessClientMessageEv, symObjAddr: 0xA8C, symBinAddr: 0x10002B99C, symSize: 0x204 }
  - { offsetInCU: 0x10C1C, offset: 0x1E1ACB, size: 0x8, addend: 0x0, symName: __ZN14webSocketFrame4dumpEv, symObjAddr: 0xC90, symBinAddr: 0x10002BBA0, symSize: 0x88 }
  - { offsetInCU: 0x10E99, offset: 0x1E1D48, size: 0x8, addend: 0x0, symName: __ZN8wsServer21wsSendServerHandshakeEP6SocketNSt3__112basic_stringIcNS2_11char_traitsIcEENS2_9allocatorIcEEEE, symObjAddr: 0xD18, symBinAddr: 0x10002BC28, symSize: 0x1D8 }
  - { offsetInCU: 0x11B3D, offset: 0x1E29EC, size: 0x8, addend: 0x0, symName: __ZN8wsClientC2EiP6Socketb, symObjAddr: 0x38E0, symBinAddr: 0x10002E354, symSize: 0xAC }
  - { offsetInCU: 0x11B54, offset: 0x1E2A03, size: 0x8, addend: 0x0, symName: __ZN8wsServer18wsProcessHandshakeEiPc, symObjAddr: 0xEF0, symBinAddr: 0x10002BE00, symSize: 0x18 }
  - { offsetInCU: 0x11B9C, offset: 0x1E2A4B, size: 0x8, addend: 0x0, symName: __ZN8wsServer18wsProcessHandshakeEiPc, symObjAddr: 0xEF0, symBinAddr: 0x10002BE00, symSize: 0x18 }
  - { offsetInCU: 0x11BD5, offset: 0x1E2A84, size: 0x8, addend: 0x0, symName: __ZN8wsServer24wsProcessClientHandshakeEiPc, symObjAddr: 0xF08, symBinAddr: 0x10002BE18, symSize: 0xC20 }
  - { offsetInCU: 0x164BF, offset: 0x1E736E, size: 0x8, addend: 0x0, symName: __ZN8wsServer24wsProcessServerHandshakeEiPc, symObjAddr: 0x1B28, symBinAddr: 0x10002CA38, symSize: 0xBA0 }
  - { offsetInCU: 0x1ABD2, offset: 0x1EBA81, size: 0x8, addend: 0x0, symName: __ZN8wsServer15wsProcessClientEiPcm, symObjAddr: 0x26C8, symBinAddr: 0x10002D5D8, symSize: 0x100 }
  - { offsetInCU: 0x1ACD4, offset: 0x1EBB83, size: 0x8, addend: 0x0, symName: __ZN8wsClient12wsBuildFrameEPcm, symObjAddr: 0x27C8, symBinAddr: 0x10002D6D8, symSize: 0xB8 }
  - { offsetInCU: 0x1B215, offset: 0x1EC0C4, size: 0x8, addend: 0x0, symName: __ZNSt3__16vectorIhNS_9allocatorIhEEE18__insert_with_sizeB8ue170006IPcS5_EENS_11__wrap_iterIPhEENS6_IPKhEET_T0_l, symObjAddr: 0x39D4, symBinAddr: 0x10002E448, symSize: 0x200 }
  - { offsetInCU: 0x1BDA8, offset: 0x1ECC57, size: 0x8, addend: 0x0, symName: __ZNSt3__16__treeINS_12__value_typeIiiEENS_19__map_value_compareIiS2_NS_4lessIiEELb1EEENS_9allocatorIS2_EEE25__emplace_unique_key_argsIiJRKNS_21piecewise_construct_tENS_5tupleIJOiEEENSE_IJEEEEEENS_4pairINS_15__tree_iteratorIS2_PNS_11__tree_nodeIS2_PvEElEEbEERKT_DpOT0_, symObjAddr: 0x3BD4, symBinAddr: 0x10002E648, symSize: 0xBC }
  - { offsetInCU: 0x1BDCC, offset: 0x1ECC7B, size: 0x8, addend: 0x0, symName: __ZN14webSocketFrame19parseWebSocketFrameERKNSt3__16vectorIhNS0_9allocatorIhEEEE, symObjAddr: 0x31C4, symBinAddr: 0x10002DFCC, symSize: 0x388 }
  - { offsetInCU: 0x1C60D, offset: 0x1ED4BC, size: 0x8, addend: 0x0, symName: __ZN8wsClient14wsProcessFrameEv, symObjAddr: 0x3168, symBinAddr: 0x10002DF70, symSize: 0x5C }
  - { offsetInCU: 0x1CA9A, offset: 0x1ED949, size: 0x8, addend: 0x0, symName: __ZN8wsServer11wsAddClientEP6Socketb, symObjAddr: 0x28C0, symBinAddr: 0x10002D790, symSize: 0x23C }
  - { offsetInCU: 0x1D0B1, offset: 0x1EDF60, size: 0x8, addend: 0x0, symName: __ZN8wsClientC2EiP6Socketb, symObjAddr: 0x38E0, symBinAddr: 0x10002E354, symSize: 0xAC }
  - { offsetInCU: 0x1D56D, offset: 0x1EE41C, size: 0x8, addend: 0x0, symName: __ZNSt3__16__treeINS_12__value_typeIiiEENS_19__map_value_compareIiS2_NS_4lessIiEELb1EEENS_9allocatorIS2_EEE25__emplace_unique_key_argsIiJRKNS_21piecewise_construct_tENS_5tupleIJOiEEENSE_IJEEEEEENS_4pairINS_15__tree_iteratorIS2_PNS_11__tree_nodeIS2_PvEElEEbEERKT_DpOT0_, symObjAddr: 0x3BD4, symBinAddr: 0x10002E648, symSize: 0xBC }
  - { offsetInCU: 0x1D8B4, offset: 0x1EE763, size: 0x8, addend: 0x0, symName: __ZNKSt3__16vectorIP8wsClientNS_9allocatorIS2_EEE20__throw_length_errorB8ue170006Ev, symObjAddr: 0x398C, symBinAddr: 0x10002E400, symSize: 0x14 }
  - { offsetInCU: 0x1D8DD, offset: 0x1EE78C, size: 0x8, addend: 0x0, symName: __ZNSt3__119__allocate_at_leastB8ue170006INS_9allocatorIP8wsClientEEEENS_19__allocation_resultINS_16allocator_traitsIT_E7pointerEEERS7_m, symObjAddr: 0x39A0, symBinAddr: 0x10002E414, symSize: 0x34 }
  - { offsetInCU: 0x1D8E9, offset: 0x1EE798, size: 0x8, addend: 0x0, symName: __ZN8wsServer14setOpenHandlerEPFviE, symObjAddr: 0x2AFC, symBinAddr: 0x10002D9CC, symSize: 0x8 }
  - { offsetInCU: 0x1D920, offset: 0x1EE7CF, size: 0x8, addend: 0x0, symName: __ZN8wsServer15setCloseHandlerEPFviE, symObjAddr: 0x2B04, symBinAddr: 0x10002D9D4, symSize: 0x8 }
  - { offsetInCU: 0x1D957, offset: 0x1EE806, size: 0x8, addend: 0x0, symName: __ZN8wsServer17setMessageHandlerEPFviNSt3__112basic_stringIcNS0_11char_traitsIcEENS0_9allocatorIcEEEEE, symObjAddr: 0x2B0C, symBinAddr: 0x10002D9DC, symSize: 0x8 }
  - { offsetInCU: 0x1DBA8, offset: 0x1EEA57, size: 0x8, addend: 0x0, symName: __ZN8wsServer11startServerEi, symObjAddr: 0x2B1C, symBinAddr: 0x10002D9E4, symSize: 0x58C }
  - { offsetInCU: 0x1E483, offset: 0x1EF332, size: 0x8, addend: 0x0, symName: __ZNSt3__16__treeINS_12__value_typeIiiEENS_19__map_value_compareIiS2_NS_4lessIiEELb1EEENS_9allocatorIS2_EEE25__emplace_unique_key_argsIiJRKNS_21piecewise_construct_tENS_5tupleIJRKiEEENSE_IJEEEEEENS_4pairINS_15__tree_iteratorIS2_PNS_11__tree_nodeIS2_PvEElEEbEERKT_DpOT0_, symObjAddr: 0x3E7C, symBinAddr: 0x10002E758, symSize: 0xBC }
  - { offsetInCU: 0x1E7CA, offset: 0x1EF679, size: 0x8, addend: 0x0, symName: __ZNSt3__16__treeINS_12__value_typeIiiEENS_19__map_value_compareIiS2_NS_4lessIiEELb1EEENS_9allocatorIS2_EEE14__erase_uniqueIiEEmRKT_, symObjAddr: 0x3F38, symBinAddr: 0x10002E814, symSize: 0x78 }
  - { offsetInCU: 0x1EA56, offset: 0x1EF905, size: 0x8, addend: 0x0, symName: __ZNSt3__16__treeINS_12__value_typeIiiEENS_19__map_value_compareIiS2_NS_4lessIiEELb1EEENS_9allocatorIS2_EEE7destroyEPNS_11__tree_nodeIS2_PvEE, symObjAddr: 0x43A4, symBinAddr: 0x10002E8FC, symSize: 0x40 }
  - { offsetInCU: 0x1F861, offset: 0x1F0710, size: 0x8, addend: 0x0, symName: __ZNSt3__16__treeINS_12__value_typeIiiEENS_19__map_value_compareIiS2_NS_4lessIiEELb1EEENS_9allocatorIS2_EEE16__insert_node_atEPNS_15__tree_end_nodeIPNS_16__tree_node_baseIPvEEEERSE_SE_, symObjAddr: 0x3C90, symBinAddr: 0x10002E704, symSize: 0x54 }
  - { offsetInCU: 0x1FBA1, offset: 0x1F0A50, size: 0x8, addend: 0x0, symName: __ZNSt3__16__treeINS_12__value_typeIiiEENS_19__map_value_compareIiS2_NS_4lessIiEELb1EEENS_9allocatorIS2_EEE21__remove_node_pointerEPNS_11__tree_nodeIS2_PvEE, symObjAddr: 0x3FB0, symBinAddr: 0x10002E88C, symSize: 0x70 }
  - { offsetInCU: 0x3E, offset: 0x1F0B9A, size: 0x8, addend: 0x0, symName: __ZN7Effects7effectsE, symObjAddr: 0x170F8, symBinAddr: 0x1003224E0, symSize: 0x0 }
  - { offsetInCU: 0x30E7, offset: 0x1F3C43, size: 0x8, addend: 0x0, symName: __ZL4path, symObjAddr: 0x17188, symBinAddr: 0x10032C310, symSize: 0x0 }
  - { offsetInCU: 0x30F5, offset: 0x1F3C51, size: 0x8, addend: 0x0, symName: __ZN7Effects9PlaySoundENSt3__112basic_stringIcNS0_11char_traitsIcEENS0_9allocatorIcEEEE, symObjAddr: 0x164, symBinAddr: 0x10002EAA0, symSize: 0x124 }
  - { offsetInCU: 0x3117, offset: 0x1F3C73, size: 0x8, addend: 0x0, symName: __ZZN7Effects9PlaySoundENSt3__112basic_stringIcNS0_11char_traitsIcEENS0_9allocatorIcEEEEE4wave, symObjAddr: 0x171A0, symBinAddr: 0x10032C328, symSize: 0x0 }
  - { offsetInCU: 0x33DE, offset: 0x1F3F3A, size: 0x8, addend: 0x0, symName: __ZL16waveRamFileNames, symObjAddr: 0x5A0, symBinAddr: 0x1002C4CD8, symSize: 0x0 }
  - { offsetInCU: 0x536B, offset: 0x1F5EC7, size: 0x8, addend: 0x0, symName: __ZN7Effects4InitEPKc, symObjAddr: 0x0, symBinAddr: 0x10002E93C, symSize: 0xFC }
  - { offsetInCU: 0x5692, offset: 0x1F61EE, size: 0x8, addend: 0x0, symName: __ZN7Effects4PlayE10WAVE_RAMID, symObjAddr: 0xFC, symBinAddr: 0x10002EA38, symSize: 0x68 }
  - { offsetInCU: 0x26, offset: 0x1F63F9, size: 0x8, addend: 0x0, symName: __ZN9FBLT_DSCR10fbltPortalEP3ONES1_, symObjAddr: 0x0, symBinAddr: 0x10002EC08, symSize: 0x234 }
  - { offsetInCU: 0x5224, offset: 0x1FB5F7, size: 0x8, addend: 0x0, symName: __ZN9FBLT_DSCR10fbltPortalEP3ONES1_, symObjAddr: 0x0, symBinAddr: 0x10002EC08, symSize: 0x234 }
  - { offsetInCU: 0x54D7, offset: 0x1FB8AA, size: 0x8, addend: 0x0, symName: __ZN9FBLT_DSCR12BltRectangleEP3ONES1_, symObjAddr: 0x234, symBinAddr: 0x10002EE3C, symSize: 0x1B4 }
  - { offsetInCU: 0x5788, offset: 0x1FBB5B, size: 0x8, addend: 0x0, symName: __ZN9FBLT_DSCR3BltEP3ONES1_, symObjAddr: 0x3E8, symBinAddr: 0x10002EFF0, symSize: 0x198 }
  - { offsetInCU: 0x4AA7, offset: 0x20085F, size: 0x8, addend: 0x0, symName: __ZN4MASK4ReadEPKcS1_PPS_, symObjAddr: 0x0, symBinAddr: 0x10002F188, symSize: 0xFC }
  - { offsetInCU: 0x4DC6, offset: 0x200B7E, size: 0x8, addend: 0x0, symName: __ZN4MASK6CreateEPjiiiij, symObjAddr: 0xFC, symBinAddr: 0x10002F284, symSize: 0x100 }
  - { offsetInCU: 0x507C, offset: 0x200E34, size: 0x8, addend: 0x0, symName: __ZN4MASK6CreateEPjiiij, symObjAddr: 0x1FC, symBinAddr: 0x10002F384, symSize: 0x20C }
  - { offsetInCU: 0x5163, offset: 0x200F1B, size: 0x8, addend: 0x0, symName: __ZN4MASK4FreeEPPS_, symObjAddr: 0x408, symBinAddr: 0x10002F590, symSize: 0x34 }
  - { offsetInCU: 0x518B, offset: 0x200F43, size: 0x8, addend: 0x0, symName: __ZN4MASK15GetBoundingRectEP4RECT, symObjAddr: 0x5C4, symBinAddr: 0x10002F5C4, symSize: 0xA4 }
  - { offsetInCU: 0x5212, offset: 0x200FCA, size: 0x8, addend: 0x0, symName: __ZN4MASK8PtInRectE5POINT, symObjAddr: 0x668, symBinAddr: 0x10002F668, symSize: 0x74 }
  - { offsetInCU: 0x527B, offset: 0x201033, size: 0x8, addend: 0x0, symName: __ZN4MASK4MoveEii, symObjAddr: 0x6DC, symBinAddr: 0x10002F6DC, symSize: 0x34 }
  - { offsetInCU: 0x26, offset: 0x2010B9, size: 0x8, addend: 0x0, symName: __ZN9FBLT_DSCR8lensInitEii, symObjAddr: 0x0, symBinAddr: 0x10002F710, symSize: 0x94 }
  - { offsetInCU: 0x51B4, offset: 0x206247, size: 0x8, addend: 0x0, symName: __ZN9FBLT_DSCR8lensInitEii, symObjAddr: 0x0, symBinAddr: 0x10002F710, symSize: 0x94 }
  - { offsetInCU: 0x5352, offset: 0x2063E5, size: 0x8, addend: 0x0, symName: __ZN9FBLT_DSCR10LensPortalEP3ONES1_, symObjAddr: 0xE0, symBinAddr: 0x10002F7A4, symSize: 0x1A0 }
  - { offsetInCU: 0x5606, offset: 0x206699, size: 0x8, addend: 0x0, symName: __ZN9FBLT_DSCR7BltFlipEP3ONES1_, symObjAddr: 0x280, symBinAddr: 0x10002F944, symSize: 0x1BC }
  - { offsetInCU: 0x40, offset: 0x2069AE, size: 0x8, addend: 0x0, symName: _missing_file_path1, symObjAddr: 0x1B2E8, symBinAddr: 0x100322570, symSize: 0x0 }
  - { offsetInCU: 0x71, offset: 0x2069DF, size: 0x8, addend: 0x0, symName: _missing_file_path2, symObjAddr: 0x1B6E8, symBinAddr: 0x100322970, symSize: 0x0 }
  - { offsetInCU: 0x86, offset: 0x2069F4, size: 0x8, addend: 0x0, symName: _missing_file_name, symObjAddr: 0x1BAE8, symBinAddr: 0x100322D70, symSize: 0x0 }
  - { offsetInCU: 0x9B, offset: 0x206A09, size: 0x8, addend: 0x0, symName: _buff, symObjAddr: 0x1BEE8, symBinAddr: 0x100323170, symSize: 0x0 }
  - { offsetInCU: 0xBE, offset: 0x206A2C, size: 0x8, addend: 0x0, symName: _logger, symObjAddr: 0x1EDC8, symBinAddr: 0x100326050, symSize: 0x0 }
  - { offsetInCU: 0x3098, offset: 0x209A06, size: 0x8, addend: 0x0, symName: __ZL9last_time, symObjAddr: 0x1F1E0, symBinAddr: 0x10032C330, symSize: 0x0 }
  - { offsetInCU: 0x4F71, offset: 0x20B8DF, size: 0x8, addend: 0x0, symName: __ZN6LOGGERD1Ev, symObjAddr: 0x0, symBinAddr: 0x10002FB00, symSize: 0x4 }
  - { offsetInCU: 0x4F95, offset: 0x20B903, size: 0x8, addend: 0x0, symName: __ZN6LOGGERD1Ev, symObjAddr: 0x0, symBinAddr: 0x10002FB00, symSize: 0x4 }
  - { offsetInCU: 0x4FB3, offset: 0x20B921, size: 0x8, addend: 0x0, symName: __ZN6LOGGERD1Ev, symObjAddr: 0x0, symBinAddr: 0x10002FB00, symSize: 0x4 }
  - { offsetInCU: 0x512B, offset: 0x20BA99, size: 0x8, addend: 0x0, symName: __Z5AlertPKcz, symObjAddr: 0x68, symBinAddr: 0x10002FB04, symSize: 0x134 }
  - { offsetInCU: 0x5749, offset: 0x20C0B7, size: 0x8, addend: 0x0, symName: __ZN6LOGGERC2ENSt3__112basic_stringIcNS0_11char_traitsIcEENS0_9allocatorIcEEEE, symObjAddr: 0x988, symBinAddr: 0x1000301A4, symSize: 0x64 }
  - { offsetInCU: 0x5760, offset: 0x20C0CE, size: 0x8, addend: 0x0, symName: __ZN6LOGGERC2ENSt3__112basic_stringIcNS0_11char_traitsIcEENS0_9allocatorIcEEEE, symObjAddr: 0x988, symBinAddr: 0x1000301A4, symSize: 0x64 }
  - { offsetInCU: 0x58C2, offset: 0x20C230, size: 0x8, addend: 0x0, symName: __ZN6LOGGER7WritelnEPKc, symObjAddr: 0x19C, symBinAddr: 0x10002FC38, symSize: 0x5C }
  - { offsetInCU: 0x59FB, offset: 0x20C369, size: 0x8, addend: 0x0, symName: __Z17errorCriticalStopPKc, symObjAddr: 0x1F8, symBinAddr: 0x10002FC94, symSize: 0x3C }
  - { offsetInCU: 0x5A3B, offset: 0x20C3A9, size: 0x8, addend: 0x0, symName: __Z3MsgPKcz, symObjAddr: 0x234, symBinAddr: 0x10002FCD0, symSize: 0xA4 }
  - { offsetInCU: 0x5A9A, offset: 0x20C408, size: 0x8, addend: 0x0, symName: __Z3LogPKcz, symObjAddr: 0x2D8, symBinAddr: 0x10002FD74, symSize: 0x64 }
  - { offsetInCU: 0x5AEA, offset: 0x20C458, size: 0x8, addend: 0x0, symName: __Z4WarnPKcz, symObjAddr: 0x458, symBinAddr: 0x10002FDD8, symSize: 0xA8 }
  - { offsetInCU: 0x5B59, offset: 0x20C4C7, size: 0x8, addend: 0x0, symName: __Z3FixPKcz, symObjAddr: 0x500, symBinAddr: 0x10002FE80, symSize: 0xA8 }
  - { offsetInCU: 0x5BC8, offset: 0x20C536, size: 0x8, addend: 0x0, symName: __Z3ErrPKcz, symObjAddr: 0x5A8, symBinAddr: 0x10002FF28, symSize: 0xA8 }
  - { offsetInCU: 0x5C37, offset: 0x20C5A5, size: 0x8, addend: 0x0, symName: __Z3BugPKcz, symObjAddr: 0x650, symBinAddr: 0x10002FFD0, symSize: 0xA8 }
  - { offsetInCU: 0x5DCF, offset: 0x20C73D, size: 0x8, addend: 0x0, symName: __ZN6LOGGERC2Ev, symObjAddr: 0x6F8, symBinAddr: 0x100030078, symSize: 0x12C }
  - { offsetInCU: 0x12932, offset: 0x21FB5B, size: 0x8, addend: 0x0, symName: __ZN5CFGAVC2Ei, symObjAddr: 0x0, symBinAddr: 0x100030270, symSize: 0x848 }
  - { offsetInCU: 0x16ABD, offset: 0x223CE6, size: 0x8, addend: 0x0, symName: __ZN5CFGAVC1Ei, symObjAddr: 0x848, symBinAddr: 0x100030AB8, symSize: 0x4 }
  - { offsetInCU: 0x16AF9, offset: 0x223D22, size: 0x8, addend: 0x0, symName: __ZN5CFGAVC1Ei, symObjAddr: 0x848, symBinAddr: 0x100030AB8, symSize: 0x4 }
  - { offsetInCU: 0x16BF7, offset: 0x223E20, size: 0x8, addend: 0x0, symName: __ZN5CFGAV7OnEventENSt3__112basic_stringIcNS0_11char_traitsIcEENS0_9allocatorIcEEEEi, symObjAddr: 0x84C, symBinAddr: 0x100030ABC, symSize: 0x108 }
  - { offsetInCU: 0x16F02, offset: 0x22412B, size: 0x8, addend: 0x0, symName: __ZN5CFGAVD1Ev, symObjAddr: 0x954, symBinAddr: 0x100030BC4, symSize: 0x4 }
  - { offsetInCU: 0x16F26, offset: 0x22414F, size: 0x8, addend: 0x0, symName: __ZN5CFGAVD1Ev, symObjAddr: 0x954, symBinAddr: 0x100030BC4, symSize: 0x4 }
  - { offsetInCU: 0x16F43, offset: 0x22416C, size: 0x8, addend: 0x0, symName: __ZN5CFGAVD1Ev, symObjAddr: 0x954, symBinAddr: 0x100030BC4, symSize: 0x4 }
  - { offsetInCU: 0x16F62, offset: 0x22418B, size: 0x8, addend: 0x0, symName: __ZN5CFGAVD1Ev, symObjAddr: 0x954, symBinAddr: 0x100030BC4, symSize: 0x4 }
  - { offsetInCU: 0x16F91, offset: 0x2241BA, size: 0x8, addend: 0x0, symName: __ZN5CFGAVD0Ev, symObjAddr: 0x958, symBinAddr: 0x100030BC8, symSize: 0x14 }
  - { offsetInCU: 0x3F, offset: 0x225788, size: 0x8, addend: 0x0, symName: _palPalette, symObjAddr: 0x1202C, symBinAddr: 0x100326468, symSize: 0x0 }
  - { offsetInCU: 0x70, offset: 0x2257B9, size: 0x8, addend: 0x0, symName: _display, symObjAddr: 0x12444, symBinAddr: 0x100326880, symSize: 0x0 }
  - { offsetInCU: 0x3360, offset: 0x228AA9, size: 0x8, addend: 0x0, symName: __ZN7Display4InitEv, symObjAddr: 0x3C, symBinAddr: 0x100030BDC, symSize: 0x78 }
  - { offsetInCU: 0x3386, offset: 0x228ACF, size: 0x8, addend: 0x0, symName: __ZZN7Display4InitEvE7havepal, symObjAddr: 0x1285C, symBinAddr: 0x10032C338, symSize: 0x0 }
  - { offsetInCU: 0x341F, offset: 0x228B68, size: 0x8, addend: 0x0, symName: __ZL11back_buffer, symObjAddr: 0x1285D, symBinAddr: 0x10032C339, symSize: 0x0 }
  - { offsetInCU: 0x532E, offset: 0x22AA77, size: 0x8, addend: 0x0, symName: __ZN7Display10SetPaletteEP15tagPALETTEENTRYb, symObjAddr: 0xD0, symBinAddr: 0x100030C54, symSize: 0x48 }
  - { offsetInCU: 0x5365, offset: 0x22AAAE, size: 0x8, addend: 0x0, symName: __ZN7Display7DisableEb, symObjAddr: 0x13C, symBinAddr: 0x100030C9C, symSize: 0x8 }
  - { offsetInCU: 0x53A1, offset: 0x22AAEA, size: 0x8, addend: 0x0, symName: __ZN7Display4FlipEv, symObjAddr: 0x184, symBinAddr: 0x100030CA4, symSize: 0x5C }
  - { offsetInCU: 0x53CA, offset: 0x22AB13, size: 0x8, addend: 0x0, symName: __ZN7Display3BltEP3ONEP9FBLT_DSCR, symObjAddr: 0x1E0, symBinAddr: 0x100030D00, symSize: 0xC4 }
  - { offsetInCU: 0x40, offset: 0x22ABD1, size: 0x8, addend: 0x0, symName: _gdbt_spells, symObjAddr: 0x19D698, symBinAddr: 0x100326C98, symSize: 0x0 }
  - { offsetInCU: 0xDD23, offset: 0x2388B4, size: 0x8, addend: 0x0, symName: __ZNSt3__1eqB8ue170006IcNS_11char_traitsIcEENS_9allocatorIcEEEEbRKNS_12basic_stringIT_T0_T1_EEPKS6_, symObjAddr: 0x518, symBinAddr: 0x1000312DC, symSize: 0x74 }
  - { offsetInCU: 0x1372B, offset: 0x23E2BC, size: 0x8, addend: 0x0, symName: __ZN6WIZARD14current_objectE, symObjAddr: 0x19D6A8, symBinAddr: 0x100326CA8, symSize: 0x0 }
  - { offsetInCU: 0x137F0, offset: 0x23E381, size: 0x8, addend: 0x0, symName: __ZN6WIZARD10spell_timeE, symObjAddr: 0x19D6AC, symBinAddr: 0x100326CAC, symSize: 0x0 }
  - { offsetInCU: 0x13821, offset: 0x23E3B2, size: 0x8, addend: 0x0, symName: __ZL12spell_caster, symObjAddr: 0x19D700, symBinAddr: 0x100458340, symSize: 0x0 }
  - { offsetInCU: 0x1382F, offset: 0x23E3C0, size: 0x8, addend: 0x0, symName: __ZN6WIZARD5ParseEPKc, symObjAddr: 0xE58, symBinAddr: 0x100031BDC, symSize: 0x1770 }
  - { offsetInCU: 0x13853, offset: 0x23E3E4, size: 0x8, addend: 0x0, symName: __ZZN6WIZARD5ParseEPKcE4seps, symObjAddr: 0x1108E, symBinAddr: 0x10031C940, symSize: 0x0 }
  - { offsetInCU: 0x17FD5, offset: 0x242B66, size: 0x8, addend: 0x0, symName: __ZL7protect, symObjAddr: 0x19D718, symBinAddr: 0x100458358, symSize: 0x0 }
  - { offsetInCU: 0x17FF6, offset: 0x242B87, size: 0x8, addend: 0x0, symName: __ZL9WhereWasI, symObjAddr: 0x19D71A, symBinAddr: 0x10045835A, symSize: 0x0 }
  - { offsetInCU: 0x1BE69, offset: 0x2469FA, size: 0x8, addend: 0x0, symName: __ZN8nlohmann16json_abi_v3_11_26detail6concatINSt3__112basic_stringIcNS3_11char_traitsIcEENS3_9allocatorIcEEEEJRA51_KcPSA_EEET_DpOT0_, symObjAddr: 0xD61C, symBinAddr: 0x100033CDC, symSize: 0xA0 }
  - { offsetInCU: 0x1C20A, offset: 0x246D9B, size: 0x8, addend: 0x0, symName: __ZN8nlohmann16json_abi_v3_11_26detail9from_jsonINS0_10basic_jsonINSt3__13mapENS4_6vectorENS4_12basic_stringIcNS4_11char_traitsIcEENS4_9allocatorIcEEEEbxydSA_NS0_14adl_serializerENS6_IhNSA_IhEEEEvEEEEvRKT_RNSH_8string_tE, symObjAddr: 0xD804, symBinAddr: 0x100033EC4, symSize: 0xE0 }
  - { offsetInCU: 0x1C441, offset: 0x246FD2, size: 0x8, addend: 0x0, symName: __ZN8nlohmann16json_abi_v3_11_26detail6concatINSt3__112basic_stringIcNS3_11char_traitsIcEENS3_9allocatorIcEEEEJRA29_KcPSA_EEET_DpOT0_, symObjAddr: 0xDA28, symBinAddr: 0x1000340E8, symSize: 0xA0 }
  - { offsetInCU: 0x1E2D9, offset: 0x248E6A, size: 0x8, addend: 0x0, symName: __ZL8last_pos.0, symObjAddr: 0x19D71C, symBinAddr: 0x10045835C, symSize: 0x0 }
  - { offsetInCU: 0x1E2E4, offset: 0x248E75, size: 0x8, addend: 0x0, symName: __ZL8last_pos.1, symObjAddr: 0x19D71E, symBinAddr: 0x10045835E, symSize: 0x0 }
  - { offsetInCU: 0x236B8, offset: 0x24E249, size: 0x8, addend: 0x0, symName: __ZN11GDBT_SPELLSD1Ev, symObjAddr: 0x0, symBinAddr: 0x100030DC4, symSize: 0x4 }
  - { offsetInCU: 0x236E6, offset: 0x24E277, size: 0x8, addend: 0x0, symName: __ZN11GDBT_SPELLSD1Ev, symObjAddr: 0x0, symBinAddr: 0x100030DC4, symSize: 0x4 }
  - { offsetInCU: 0x23F51, offset: 0x24EAE2, size: 0x8, addend: 0x0, symName: __ZN6WIZARD4TickEj, symObjAddr: 0x4, symBinAddr: 0x100030DC8, symSize: 0x190 }
  - { offsetInCU: 0x24441, offset: 0x24EFD2, size: 0x8, addend: 0x0, symName: __ZN12LOCAL_PLAYER9SetWealthEt, symObjAddr: 0x194, symBinAddr: 0x100030F58, symSize: 0x70 }
  - { offsetInCU: 0x24781, offset: 0x24F312, size: 0x8, addend: 0x0, symName: __Z9Signal_IdNSt3__112basic_stringIcNS_11char_traitsIcEENS_9allocatorIcEEEE, symObjAddr: 0x204, symBinAddr: 0x100030FC8, symSize: 0x134 }
  - { offsetInCU: 0x2510F, offset: 0x24FCA0, size: 0x8, addend: 0x0, symName: __ZN6WIZARD4CastEiNSt3__112basic_stringIcNS0_11char_traitsIcEENS0_9allocatorIcEEEE, symObjAddr: 0x338, symBinAddr: 0x1000310FC, symSize: 0x1E0 }
  - { offsetInCU: 0x263E0, offset: 0x250F71, size: 0x8, addend: 0x0, symName: __ZN6WIZARD6CastMeEiNSt3__112basic_stringIcNS0_11char_traitsIcEENS0_9allocatorIcEEEE, symObjAddr: 0x5CC, symBinAddr: 0x100031350, symSize: 0x328 }
  - { offsetInCU: 0x26F4C, offset: 0x251ADD, size: 0x8, addend: 0x0, symName: __ZN6WIZARD7CastYouEiNSt3__112basic_stringIcNS0_11char_traitsIcEENS0_9allocatorIcEEEE, symObjAddr: 0x8F4, symBinAddr: 0x100031678, symSize: 0x214 }
  - { offsetInCU: 0x27CE2, offset: 0x252873, size: 0x8, addend: 0x0, symName: __ZN9SPELL_PKT7to_jsonEv, symObjAddr: 0xB08, symBinAddr: 0x10003188C, symSize: 0x14C }
  - { offsetInCU: 0x2871C, offset: 0x2532AD, size: 0x8, addend: 0x0, symName: __ZN9SPELL_PKTD1Ev, symObjAddr: 0xC54, symBinAddr: 0x1000319D8, symSize: 0x40 }
  - { offsetInCU: 0x28B1F, offset: 0x2536B0, size: 0x8, addend: 0x0, symName: __ZN11GDBT_SPELLS13ReceiveUpdateERKNSt3__112basic_stringIcNS0_11char_traitsIcEENS0_9allocatorIcEEEES8_R9XPLAY_PKT, symObjAddr: 0xC94, symBinAddr: 0x100031A18, symSize: 0x190 }
  - { offsetInCU: 0x2967E, offset: 0x25420F, size: 0x8, addend: 0x0, symName: __ZN9SPELL_PKTC2ERKNSt3__112basic_stringIcNS0_11char_traitsIcEENS0_9allocatorIcEEEE, symObjAddr: 0x2C2C, symBinAddr: 0x100033764, symSize: 0x224 }
  - { offsetInCU: 0x2A062, offset: 0x254BF3, size: 0x8, addend: 0x0, symName: __ZNSt3__112basic_stringIcNS_11char_traitsIcEENS_9allocatorIcEEEaSB8ue170006EPKc, symObjAddr: 0xE24, symBinAddr: 0x100031BA8, symSize: 0x34 }
  - { offsetInCU: 0x2A445, offset: 0x254FD6, size: 0x8, addend: 0x0, symName: __ZN6OBJECT6StatusEv, symObjAddr: 0x25C8, symBinAddr: 0x10003334C, symSize: 0x164 }
  - { offsetInCU: 0x2B2C3, offset: 0x255E54, size: 0x8, addend: 0x0, symName: __ZN7B_TABLEI3ISANSt3__112basic_stringIcNS1_11char_traitsIcEENS1_9allocatorIcEEEES7_S7_E4UGetES7_Pi, symObjAddr: 0x272C, symBinAddr: 0x1000334B0, symSize: 0x174 }
  - { offsetInCU: 0x2B5CC, offset: 0x25615D, size: 0x8, addend: 0x0, symName: __ZN7MACHINE5ResetEv, symObjAddr: 0x28A0, symBinAddr: 0x100033624, symSize: 0x6C }
  - { offsetInCU: 0x2B8EA, offset: 0x25647B, size: 0x8, addend: 0x0, symName: __ZN4VIEW6FingerE5POINT, symObjAddr: 0x290C, symBinAddr: 0x100033690, symSize: 0xD4 }
  - { offsetInCU: 0x2C106, offset: 0x256C97, size: 0x8, addend: 0x0, symName: __ZN9SPELL_PKTC2ERKNSt3__112basic_stringIcNS0_11char_traitsIcEENS0_9allocatorIcEEEE, symObjAddr: 0x2C2C, symBinAddr: 0x100033764, symSize: 0x224 }
  - { offsetInCU: 0x2C12C, offset: 0x256CBD, size: 0x8, addend: 0x0, symName: __ZN7MACHINE9StateNameENSt3__112basic_stringIcNS0_11char_traitsIcEENS0_9allocatorIcEEEE, symObjAddr: 0xDB84, symBinAddr: 0x100034188, symSize: 0x88 }
  - { offsetInCU: 0x2C488, offset: 0x257019, size: 0x8, addend: 0x0, symName: __ZN10MachineSet6FingerE5POINTNSt3__112basic_stringIcNS1_11char_traitsIcEENS1_9allocatorIcEEEE, symObjAddr: 0xDC0C, symBinAddr: 0x100034210, symSize: 0x78 }
  - { offsetInCU: 0x2C8F0, offset: 0x257481, size: 0x8, addend: 0x0, symName: __ZN8nlohmann16json_abi_v3_11_210basic_jsonINSt3__13mapENS2_6vectorENS2_12basic_stringIcNS2_11char_traitsIcEENS2_9allocatorIcEEEEbxydS8_NS0_14adl_serializerENS4_IhNS8_IhEEEEvE5parseIRKSA_EESE_OT_NS2_8functionIFbiNS0_6detail13parse_event_tERSE_EEEbb, symObjAddr: 0x2E50, symBinAddr: 0x100033988, symSize: 0x1BC }
  - { offsetInCU: 0x2CF29, offset: 0x257ABA, size: 0x8, addend: 0x0, symName: __ZN8nlohmann16json_abi_v3_11_210basic_jsonINSt3__13mapENS2_6vectorENS2_12basic_stringIcNS2_11char_traitsIcEENS2_9allocatorIcEEEEbxydS8_NS0_14adl_serializerENS4_IhNS8_IhEEEEvEixIKcEERSE_PT_, symObjAddr: 0x300C, symBinAddr: 0x100033B44, symSize: 0x6C }
  - { offsetInCU: 0x2D239, offset: 0x257DCA, size: 0x8, addend: 0x0, symName: __ZNK8nlohmann16json_abi_v3_11_210basic_jsonINSt3__13mapENS2_6vectorENS2_12basic_stringIcNS2_11char_traitsIcEENS2_9allocatorIcEEEEbxydS8_NS0_14adl_serializerENS4_IhNS8_IhEEEEvE8get_implISA_Li0EEET_NS0_6detail12priority_tagILj0EEE, symObjAddr: 0xD7BC, symBinAddr: 0x100033E7C, symSize: 0x48 }
  - { offsetInCU: 0x2ED72, offset: 0x259903, size: 0x8, addend: 0x0, symName: __ZN8nlohmann16json_abi_v3_11_210basic_jsonINSt3__13mapENS2_6vectorENS2_12basic_stringIcNS2_11char_traitsIcEENS2_9allocatorIcEEEEbxydS8_NS0_14adl_serializerENS4_IhNS8_IhEEEEvEixESA_, symObjAddr: 0xD4F0, symBinAddr: 0x100033BB0, symSize: 0x12C }
  - { offsetInCU: 0x46AEE, offset: 0x27167F, size: 0x8, addend: 0x0, symName: __ZNSt3__16__treeINS_12__value_typeINS_12basic_stringIcNS_11char_traitsIcEENS_9allocatorIcEEEEN8nlohmann16json_abi_v3_11_210basic_jsonINS_3mapENS_6vectorES7_bxydS5_NS9_14adl_serializerENSC_IhNS5_IhEEEEvEEEENS_19__map_value_compareIS7_SH_NS_4lessIvEELb1EEENS5_ISH_EEE25__emplace_unique_key_argsIS7_JS7_DnEEENS_4pairINS_15__tree_iteratorISH_PNS_11__tree_nodeISH_PvEElEEbEERKT_DpOT0_, symObjAddr: 0xD6BC, symBinAddr: 0x100033D7C, symSize: 0x84 }
  - { offsetInCU: 0x46C83, offset: 0x271814, size: 0x8, addend: 0x0, symName: __ZNSt3__16__treeINS_12__value_typeINS_12basic_stringIcNS_11char_traitsIcEENS_9allocatorIcEEEEN8nlohmann16json_abi_v3_11_210basic_jsonINS_3mapENS_6vectorES7_bxydS5_NS9_14adl_serializerENSC_IhNS5_IhEEEEvEEEENS_19__map_value_compareIS7_SH_NS_4lessIvEELb1EEENS5_ISH_EEE16__construct_nodeIJS7_DnEEENS_10unique_ptrINS_11__tree_nodeISH_PvEENS_22__tree_node_destructorINS5_ISS_EEEEEEDpOT_, symObjAddr: 0xD740, symBinAddr: 0x100033E00, symSize: 0x7C }
  - { offsetInCU: 0x47263, offset: 0x271DF4, size: 0x8, addend: 0x0, symName: __ZN8nlohmann16json_abi_v3_11_26detail10type_error6createIPKNS0_10basic_jsonINSt3__13mapENS5_6vectorENS5_12basic_stringIcNS5_11char_traitsIcEENS5_9allocatorIcEEEEbxydSB_NS0_14adl_serializerENS7_IhNSB_IhEEEEvEELi0EEES2_iRKSD_T_, symObjAddr: 0xD8E4, symBinAddr: 0x100033FA4, symSize: 0x144 }
  - { offsetInCU: 0x40, offset: 0x272B19, size: 0x8, addend: 0x0, symName: _tbl_automatons, symObjAddr: 0x11CFD0, symBinAddr: 0x100326D00, symSize: 0x0 }
  - { offsetInCU: 0x17377, offset: 0x289E50, size: 0x8, addend: 0x0, symName: __ZNSt3__112__destroy_atB8ue170006I5StateLi0EEEvPT_, symObjAddr: 0x327C, symBinAddr: 0x1000371E4, symSize: 0x74 }
  - { offsetInCU: 0x179BD, offset: 0x28A496, size: 0x8, addend: 0x0, symName: __ZNSt3__113__lower_boundB8ue170006INS_17_ClassicAlgPolicyENS_11__wrap_iterIP9AutomatonEES5_NS_12basic_stringIcNS_11char_traitsIcEENS_9allocatorIcEEEENS_10__identityE12CompareNamesIS3_EEET0_SF_T1_RKT2_RT4_RT3_, symObjAddr: 0x6E50, symBinAddr: 0x10003AAE4, symSize: 0x90 }
  - { offsetInCU: 0x17C98, offset: 0x28A771, size: 0x8, addend: 0x0, symName: __ZNSt3__119__allocate_at_leastB8ue170006INS_9allocatorI10TRANSITIONEEEENS_19__allocation_resultINS_16allocator_traitsIT_E7pointerEEERS6_m, symObjAddr: 0x6088, symBinAddr: 0x100039D1C, symSize: 0x48 }
  - { offsetInCU: 0x17D40, offset: 0x28A819, size: 0x8, addend: 0x0, symName: __ZNSt3__135__uninitialized_allocator_copy_implB8ue170006INS_9allocatorI10TRANSITIONEEPS2_S4_S4_EET2_RT_T0_T1_S5_, symObjAddr: 0x60D0, symBinAddr: 0x100039D64, symSize: 0x80 }
  - { offsetInCU: 0x17D7C, offset: 0x28A855, size: 0x8, addend: 0x0, symName: __ZNSt3__112__destroy_atB8ue170006I9AutomatonLi0EEEvPT_, symObjAddr: 0x3140, symBinAddr: 0x1000370A8, symSize: 0x64 }
  - { offsetInCU: 0x18BD5, offset: 0x28B6AE, size: 0x8, addend: 0x0, symName: __ZNSt3__17getlineB8ue170006IcNS_11char_traitsIcEENS_9allocatorIcEEEERNS_13basic_istreamIT_T0_EES9_RNS_12basic_stringIS6_S7_T1_EES6_, symObjAddr: 0x3A00, symBinAddr: 0x1000377A4, symSize: 0x188 }
  - { offsetInCU: 0x1931E, offset: 0x28BDF7, size: 0x8, addend: 0x0, symName: __ZNSt3__116__throw_bad_castB8ue170006Ev, symObjAddr: 0x52C4, symBinAddr: 0x100038FEC, symSize: 0x28 }
  - { offsetInCU: 0x1939C, offset: 0x28BE75, size: 0x8, addend: 0x0, symName: __ZNSt3__113__lower_boundB8ue170006INS_17_ClassicAlgPolicyENS_11__wrap_iterIP5StateEES5_NS_12basic_stringIcNS_11char_traitsIcEENS_9allocatorIcEEEENS_10__identityE12CompareNamesIS3_EEET0_SF_T1_RKT2_RT4_RT3_, symObjAddr: 0x599C, symBinAddr: 0x1000396C4, symSize: 0x94 }
  - { offsetInCU: 0x196FF, offset: 0x28C1D8, size: 0x8, addend: 0x0, symName: __ZNSt3__119__allocate_at_leastB8ue170006INS_9allocatorI5StateEEEENS_19__allocation_resultINS_16allocator_traitsIT_E7pointerEEERS6_m, symObjAddr: 0x68D4, symBinAddr: 0x10003A568, symSize: 0x44 }
  - { offsetInCU: 0x197A7, offset: 0x28C280, size: 0x8, addend: 0x0, symName: __ZNKSt3__111__move_loopINS_17_ClassicAlgPolicyEEclB8ue170006IP5StateS5_S5_EENS_4pairIT_T1_EES7_T0_S8_, symObjAddr: 0x6918, symBinAddr: 0x10003A5AC, symSize: 0x11C }
  - { offsetInCU: 0x1A164, offset: 0x28CC3D, size: 0x8, addend: 0x0, symName: __ZNSt3__142__uninitialized_allocator_move_if_noexceptB8ue170006INS_9allocatorI5StateEENS_16reverse_iteratorIPS2_EES6_S6_EET2_RT_T0_T1_S7_, symObjAddr: 0x6AE0, symBinAddr: 0x10003A774, symSize: 0xB0 }
  - { offsetInCU: 0x1A497, offset: 0x28CF70, size: 0x8, addend: 0x0, symName: __ZNSt3__142__uninitialized_allocator_move_if_noexceptB8ue170006INS_9allocatorI5StateEEPS2_S4_S4_EET2_RT_T0_T1_S5_, symObjAddr: 0x6B90, symBinAddr: 0x10003A824, symSize: 0x9C }
  - { offsetInCU: 0x1A941, offset: 0x28D41A, size: 0x8, addend: 0x0, symName: __ZNSt3__135__uninitialized_allocator_copy_implB8ue170006INS_9allocatorI10TRANSITIONEEPS2_S4_S4_EET2_RT_T0_T1_S5_, symObjAddr: 0x60D0, symBinAddr: 0x100039D64, symSize: 0x80 }
  - { offsetInCU: 0x1B079, offset: 0x28DB52, size: 0x8, addend: 0x0, symName: __ZNSt3__119__allocate_at_leastB8ue170006INS_9allocatorI9AutomatonEEEENS_19__allocation_resultINS_16allocator_traitsIT_E7pointerEEERS6_m, symObjAddr: 0x7998, symBinAddr: 0x10003B62C, symSize: 0x44 }
  - { offsetInCU: 0x1B121, offset: 0x28DBFA, size: 0x8, addend: 0x0, symName: __ZNKSt3__111__move_loopINS_17_ClassicAlgPolicyEEclB8ue170006IP9AutomatonS5_S5_EENS_4pairIT_T1_EES7_T0_S8_, symObjAddr: 0x79DC, symBinAddr: 0x10003B670, symSize: 0xF0 }
  - { offsetInCU: 0x1BA3D, offset: 0x28E516, size: 0x8, addend: 0x0, symName: __ZNSt3__135__uninitialized_allocator_copy_implB8ue170006INS_9allocatorI5StateEEPS2_S4_S4_EET2_RT_T0_T1_S5_, symObjAddr: 0x7550, symBinAddr: 0x10003B1E4, symSize: 0x80 }
  - { offsetInCU: 0x1C0C0, offset: 0x28EB99, size: 0x8, addend: 0x0, symName: __ZNSt3__112construct_atB8ue170006I10TRANSITIONJS1_EPS1_EEPT_S4_DpOT0_, symObjAddr: 0x7C3C, symBinAddr: 0x10003B8D0, symSize: 0xDC }
  - { offsetInCU: 0x1C0FD, offset: 0x28EBD6, size: 0x8, addend: 0x0, symName: __ZNSt3__112construct_atB8ue170006I10TRANSITIONJS1_EPS1_EEPT_S4_DpOT0_, symObjAddr: 0x7C3C, symBinAddr: 0x10003B8D0, symSize: 0xDC }
  - { offsetInCU: 0x1C122, offset: 0x28EBFB, size: 0x8, addend: 0x0, symName: __ZNSt3__112construct_atB8ue170006I10TRANSITIONJS1_EPS1_EEPT_S4_DpOT0_, symObjAddr: 0x7C3C, symBinAddr: 0x10003B8D0, symSize: 0xDC }
  - { offsetInCU: 0x20D35, offset: 0x29380E, size: 0x8, addend: 0x0, symName: __ZNSt3__16vectorI5StateNS_9allocatorIS1_EEE26__swap_out_circular_bufferERNS_14__split_bufferIS1_RS3_EEPS1_, symObjAddr: 0x5D6C, symBinAddr: 0x100039A00, symSize: 0xB0 }
  - { offsetInCU: 0x20F2B, offset: 0x293A04, size: 0x8, addend: 0x0, symName: __ZNSt3__16vectorI9AutomatonNS_9allocatorIS1_EEE26__swap_out_circular_bufferERNS_14__split_bufferIS1_RS3_EEPS1_, symObjAddr: 0x71E8, symBinAddr: 0x10003AE7C, symSize: 0x16C }
  - { offsetInCU: 0x21613, offset: 0x2940EC, size: 0x8, addend: 0x0, symName: __ZNSt3__16vectorI10TRANSITIONNS_9allocatorIS1_EEE26__swap_out_circular_bufferERNS_14__split_bufferIS1_RS3_EE, symObjAddr: 0x7BAC, symBinAddr: 0x10003B840, symSize: 0x90 }
  - { offsetInCU: 0x23CB0, offset: 0x296789, size: 0x8, addend: 0x0, symName: __ZN13TblAutomatonsD1Ev, symObjAddr: 0x0, symBinAddr: 0x100034304, symSize: 0x74 }
  - { offsetInCU: 0x24239, offset: 0x296D12, size: 0x8, addend: 0x0, symName: __ZNSt3__16vectorI5StateNS_9allocatorIS1_EEE16__destroy_vectorclB8ue170006Ev, symObjAddr: 0x320C, symBinAddr: 0x100037174, symSize: 0x70 }
  - { offsetInCU: 0x243BB, offset: 0x296E94, size: 0x8, addend: 0x0, symName: __ZNSt3__16vectorI9AutomatonNS_9allocatorIS1_EEE16__destroy_vectorclB8ue170006Ev, symObjAddr: 0x30D0, symBinAddr: 0x100037038, symSize: 0x70 }
  - { offsetInCU: 0x248E9, offset: 0x2973C2, size: 0x8, addend: 0x0, symName: __ZN9Automaton5GraphENSt3__112basic_stringIcNS0_11char_traitsIcEENS0_9allocatorIcEEEES6_S6_, symObjAddr: 0x74, symBinAddr: 0x100034378, symSize: 0xFDC }
  - { offsetInCU: 0x2CC2E, offset: 0x29F707, size: 0x8, addend: 0x0, symName: __ZN3Dot12htmlTableRowEP7__sFILENSt3__112basic_stringIcNS2_11char_traitsIcEENS2_9allocatorIcEEEES8_, symObjAddr: 0x34B4, symBinAddr: 0x100037258, symSize: 0x150 }
  - { offsetInCU: 0x2CE4F, offset: 0x29F928, size: 0x8, addend: 0x0, symName: __ZN3Dot17htmlStateTableRowEP7__sFILENSt3__112basic_stringIcNS2_11char_traitsIcEENS2_9allocatorIcEEEES8_S8_S8_, symObjAddr: 0x44D4, symBinAddr: 0x1000381FC, symSize: 0x1AC }
  - { offsetInCU: 0x2CF70, offset: 0x29FA49, size: 0x8, addend: 0x0, symName: __ZN3Dot9htmlLabelEP7__sFILEiNSt3__112basic_stringIcNS2_11char_traitsIcEENS2_9allocatorIcEEEES8_S8_S8_, symObjAddr: 0x1050, symBinAddr: 0x100035354, symSize: 0x238 }
  - { offsetInCU: 0x2DFE9, offset: 0x2A0AC2, size: 0x8, addend: 0x0, symName: __ZN3Dot13htmlStateNodeEP7__sFILEiNSt3__112basic_stringIcNS2_11char_traitsIcEENS2_9allocatorIcEEEES8_S8_S8_, symObjAddr: 0x1288, symBinAddr: 0x10003558C, symSize: 0x48C }
  - { offsetInCU: 0x30B80, offset: 0x2A3659, size: 0x8, addend: 0x0, symName: __ZN3Dot12htmlTableRowEP7__sFILENSt3__112basic_stringIcNS2_11char_traitsIcEENS2_9allocatorIcEEEES8_, symObjAddr: 0x34B4, symBinAddr: 0x100037258, symSize: 0x150 }
  - { offsetInCU: 0x311E4, offset: 0x2A3CBD, size: 0x8, addend: 0x0, symName: __ZN3Dot17htmlStateTableRowEP7__sFILENSt3__112basic_stringIcNS2_11char_traitsIcEENS2_9allocatorIcEEEES8_S8_S8_, symObjAddr: 0x44D4, symBinAddr: 0x1000381FC, symSize: 0x1AC }
  - { offsetInCU: 0x31A78, offset: 0x2A4551, size: 0x8, addend: 0x0, symName: __ZN13TblAutomatons5GraphEv, symObjAddr: 0x1714, symBinAddr: 0x100035A18, symSize: 0x118 }
  - { offsetInCU: 0x3264E, offset: 0x2A5127, size: 0x8, addend: 0x0, symName: __ZN13TblAutomatons4DumpEv, symObjAddr: 0x182C, symBinAddr: 0x100035B30, symSize: 0x638 }
  - { offsetInCU: 0x341AA, offset: 0x2A6C83, size: 0x8, addend: 0x0, symName: __ZNSt3__113basic_filebufIcNS_11char_traitsIcEEEC2Ev, symObjAddr: 0x809C, symBinAddr: 0x10003B9F8, symSize: 0x12C }
  - { offsetInCU: 0x342C5, offset: 0x2A6D9E, size: 0x8, addend: 0x0, symName: __ZN10TRANSITION4DumpEP7__sFILE, symObjAddr: 0x1E64, symBinAddr: 0x100036168, symSize: 0x160 }
  - { offsetInCU: 0x34C24, offset: 0x2A76FD, size: 0x8, addend: 0x0, symName: __ZNSt3__113basic_filebufIcNS_11char_traitsIcEEE5closeEv, symObjAddr: 0x4818, symBinAddr: 0x100038540, symSize: 0x84 }
  - { offsetInCU: 0x34D1B, offset: 0x2A77F4, size: 0x8, addend: 0x0, symName: __ZNSt3__113basic_filebufIcNS_11char_traitsIcEEED2Ev, symObjAddr: 0x47AC, symBinAddr: 0x1000384D4, symSize: 0x6C }
  - { offsetInCU: 0x34D5D, offset: 0x2A7836, size: 0x8, addend: 0x0, symName: __ZNSt3__114basic_ofstreamIcNS_11char_traitsIcEEED1Ev, symObjAddr: 0x1FC4, symBinAddr: 0x1000362C8, symSize: 0x60 }
  - { offsetInCU: 0x34FFC, offset: 0x2A7AD5, size: 0x8, addend: 0x0, symName: __ZN5StateC2ENSt3__112basic_stringIcNS0_11char_traitsIcEENS0_9allocatorIcEEEES6_S6_S6_, symObjAddr: 0x5354, symBinAddr: 0x10003907C, symSize: 0x13C }
  - { offsetInCU: 0x3568C, offset: 0x2A8165, size: 0x8, addend: 0x0, symName: __ZN9Automaton3AddER5State, symObjAddr: 0x23B4, symBinAddr: 0x100036328, symSize: 0x190 }
  - { offsetInCU: 0x3634D, offset: 0x2A8E26, size: 0x8, addend: 0x0, symName: __ZNSt3__16vectorI10TRANSITIONNS_9allocatorIS1_EEE16__destroy_vectorclB8ue170006Ev, symObjAddr: 0x642C, symBinAddr: 0x10003A0C0, symSize: 0x70 }
  - { offsetInCU: 0x3652B, offset: 0x2A9004, size: 0x8, addend: 0x0, symName: __ZN5StateD1Ev, symObjAddr: 0x2544, symBinAddr: 0x1000364B8, symSize: 0x78 }
  - { offsetInCU: 0x36AE9, offset: 0x2A95C2, size: 0x8, addend: 0x0, symName: __ZN9Automaton3AddENSt3__112basic_stringIcNS0_11char_traitsIcEENS0_9allocatorIcEEEES6_S6_S6_, symObjAddr: 0x5490, symBinAddr: 0x1000391B8, symSize: 0x320 }
  - { offsetInCU: 0x381CE, offset: 0x2AACA7, size: 0x8, addend: 0x0, symName: __ZN13TblAutomatons4LoadEv, symObjAddr: 0x25BC, symBinAddr: 0x100036530, symSize: 0x59C }
  - { offsetInCU: 0x3AC5B, offset: 0x2AD734, size: 0x8, addend: 0x0, symName: __ZN13TblAutomatons3AddENSt3__112basic_stringIcNS0_11char_traitsIcEENS0_9allocatorIcEEEES6_S6_, symObjAddr: 0x2B58, symBinAddr: 0x100036ACC, symSize: 0x25C }
  - { offsetInCU: 0x3BD19, offset: 0x2AE7F2, size: 0x8, addend: 0x0, symName: __ZN13TblAutomatons3AddENSt3__112basic_stringIcNS0_11char_traitsIcEENS0_9allocatorIcEEEER5State, symObjAddr: 0x2DB4, symBinAddr: 0x100036D28, symSize: 0x10C }
  - { offsetInCU: 0x3C6AB, offset: 0x2AF184, size: 0x8, addend: 0x0, symName: __ZN9AutomatonC2ENSt3__112basic_stringIcNS0_11char_traitsIcEENS0_9allocatorIcEEEES6_S6_, symObjAddr: 0x6EE0, symBinAddr: 0x10003AB74, symSize: 0xEC }
  - { offsetInCU: 0x3CB66, offset: 0x2AF63F, size: 0x8, addend: 0x0, symName: __ZNSt3__16vectorI9AutomatonNS_9allocatorIS1_EEE6insertENS_11__wrap_iterIPKS1_EERS6_, symObjAddr: 0x6C78, symBinAddr: 0x10003A90C, symSize: 0x1D8 }
  - { offsetInCU: 0x3D056, offset: 0x2AFB2F, size: 0x8, addend: 0x0, symName: __ZN9AutomatonD1Ev, symObjAddr: 0x31A4, symBinAddr: 0x10003710C, symSize: 0x68 }
  - { offsetInCU: 0x3D4D6, offset: 0x2AFFAF, size: 0x8, addend: 0x0, symName: __ZN5State3AddEP10TRANSITION, symObjAddr: 0x2EC0, symBinAddr: 0x100036E34, symSize: 0x8 }
  - { offsetInCU: 0x3D525, offset: 0x2AFFFE, size: 0x8, addend: 0x0, symName: __ZNSt3__16vectorI10TRANSITIONNS_9allocatorIS1_EEE9push_backB8ue170006ERKS1_, symObjAddr: 0x2EC8, symBinAddr: 0x100036E3C, symSize: 0x130 }
  - { offsetInCU: 0x3DC32, offset: 0x2B070B, size: 0x8, addend: 0x0, symName: __ZN10TRANSITIONC2ERKS_, symObjAddr: 0x6150, symBinAddr: 0x100039DE4, symSize: 0x24C }
  - { offsetInCU: 0x3E800, offset: 0x2B12D9, size: 0x8, addend: 0x0, symName: __ZNSt3__114__split_bufferI10TRANSITIONRNS_9allocatorIS1_EEED2Ev, symObjAddr: 0x7D18, symBinAddr: 0x10003B9AC, symSize: 0x4C }
  - { offsetInCU: 0x3E9D9, offset: 0x2B14B2, size: 0x8, addend: 0x0, symName: __ZNKSt3__16vectorI10TRANSITIONNS_9allocatorIS1_EEE20__throw_length_errorB8ue170006Ev, symObjAddr: 0x6074, symBinAddr: 0x100039D08, symSize: 0x14 }
  - { offsetInCU: 0x3EA03, offset: 0x2B14DC, size: 0x8, addend: 0x0, symName: __ZNSt3__119__allocate_at_leastB8ue170006INS_9allocatorI10TRANSITIONEEEENS_19__allocation_resultINS_16allocator_traitsIT_E7pointerEEERS6_m, symObjAddr: 0x6088, symBinAddr: 0x100039D1C, symSize: 0x48 }
  - { offsetInCU: 0x3EA0E, offset: 0x2B14E7, size: 0x8, addend: 0x0, symName: __ZN13TblAutomatons4LinkEv, symObjAddr: 0x2FF8, symBinAddr: 0x100036F6C, symSize: 0x6C }
  - { offsetInCU: 0x3EC4C, offset: 0x2B1725, size: 0x8, addend: 0x0, symName: __ZN9AutomatonC2Ev, symObjAddr: 0x3070, symBinAddr: 0x100036FD8, symSize: 0x60 }
  - { offsetInCU: 0x3F1C5, offset: 0x2B1C9E, size: 0x8, addend: 0x0, symName: __ZN3Dot6encodeERNSt3__112basic_stringIcNS0_11char_traitsIcEENS0_9allocatorIcEEEE, symObjAddr: 0x375C, symBinAddr: 0x100037500, symSize: 0x1C8 }
  - { offsetInCU: 0x3F4E1, offset: 0x2B1FBA, size: 0x8, addend: 0x0, symName: __ZN3Dot10htmlformatEP7__sFILENSt3__112basic_stringIcNS2_11char_traitsIcEENS2_9allocatorIcEEEE, symObjAddr: 0x3604, symBinAddr: 0x1000373A8, symSize: 0x158 }
  - { offsetInCU: 0x3FC30, offset: 0x2B2709, size: 0x8, addend: 0x0, symName: __ZNSt3__118basic_stringstreamIcNS_11char_traitsIcEENS_9allocatorIcEEEC1B8ue170006ERKNS_12basic_stringIcS2_S4_EEj, symObjAddr: 0x3924, symBinAddr: 0x1000376C8, symSize: 0xDC }
  - { offsetInCU: 0x3FD32, offset: 0x2B280B, size: 0x8, addend: 0x0, symName: __ZNSt3__118basic_stringstreamIcNS_11char_traitsIcEENS_9allocatorIcEEED1Ev, symObjAddr: 0x3B88, symBinAddr: 0x10003792C, symSize: 0x94 }
  - { offsetInCU: 0x3FFB2, offset: 0x2B2A8B, size: 0x8, addend: 0x0, symName: __ZNSt3__115basic_stringbufIcNS_11char_traitsIcEENS_9allocatorIcEEEC2B8ue170006ERKNS_12basic_stringIcS2_S4_EEj, symObjAddr: 0x3F00, symBinAddr: 0x100037CA4, symSize: 0x90 }
  - { offsetInCU: 0x4024B, offset: 0x2B2D24, size: 0x8, addend: 0x0, symName: __ZNSt3__118basic_stringstreamIcNS_11char_traitsIcEENS_9allocatorIcEEED0Ev, symObjAddr: 0x3C1C, symBinAddr: 0x1000379C0, symSize: 0x94 }
  - { offsetInCU: 0x40416, offset: 0x2B2EEF, size: 0x8, addend: 0x0, symName: __ZThn16_NSt3__118basic_stringstreamIcNS_11char_traitsIcEENS_9allocatorIcEEED1Ev, symObjAddr: 0x3CB0, symBinAddr: 0x100037A54, symSize: 0x8C }
  - { offsetInCU: 0x405F4, offset: 0x2B30CD, size: 0x8, addend: 0x0, symName: __ZThn16_NSt3__118basic_stringstreamIcNS_11char_traitsIcEENS_9allocatorIcEEED0Ev, symObjAddr: 0x3D3C, symBinAddr: 0x100037AE0, symSize: 0x94 }
  - { offsetInCU: 0x407D6, offset: 0x2B32AF, size: 0x8, addend: 0x0, symName: __ZTv0_n24_NSt3__118basic_stringstreamIcNS_11char_traitsIcEENS_9allocatorIcEEED1Ev, symObjAddr: 0x3DD0, symBinAddr: 0x100037B74, symSize: 0x94 }
  - { offsetInCU: 0x40996, offset: 0x2B346F, size: 0x8, addend: 0x0, symName: __ZTv0_n24_NSt3__118basic_stringstreamIcNS_11char_traitsIcEENS_9allocatorIcEEED0Ev, symObjAddr: 0x3E64, symBinAddr: 0x100037C08, symSize: 0x9C }
  - { offsetInCU: 0x40B96, offset: 0x2B366F, size: 0x8, addend: 0x0, symName: __ZNSt3__115basic_stringbufIcNS_11char_traitsIcEENS_9allocatorIcEEE15__init_buf_ptrsB8ue170006Ev, symObjAddr: 0x4348, symBinAddr: 0x1000380EC, symSize: 0x110 }
  - { offsetInCU: 0x40DD5, offset: 0x2B38AE, size: 0x8, addend: 0x0, symName: __ZNSt3__115basic_stringbufIcNS_11char_traitsIcEENS_9allocatorIcEEED1Ev, symObjAddr: 0x3F90, symBinAddr: 0x100037D34, symSize: 0x40 }
  - { offsetInCU: 0x40F56, offset: 0x2B3A2F, size: 0x8, addend: 0x0, symName: __ZNSt3__115basic_stringbufIcNS_11char_traitsIcEENS_9allocatorIcEEED0Ev, symObjAddr: 0x3FD0, symBinAddr: 0x100037D74, symSize: 0x44 }
  - { offsetInCU: 0x411C9, offset: 0x2B3CA2, size: 0x8, addend: 0x0, symName: __ZNSt3__115basic_stringbufIcNS_11char_traitsIcEENS_9allocatorIcEEE7seekoffExNS_8ios_base7seekdirEj, symObjAddr: 0x4014, symBinAddr: 0x100037DB8, symSize: 0x100 }
  - { offsetInCU: 0x413E6, offset: 0x2B3EBF, size: 0x8, addend: 0x0, symName: __ZNSt3__115basic_stringbufIcNS_11char_traitsIcEENS_9allocatorIcEEE7seekposENS_4fposI11__mbstate_tEEj, symObjAddr: 0x4114, symBinAddr: 0x100037EB8, symSize: 0x18 }
  - { offsetInCU: 0x41487, offset: 0x2B3F60, size: 0x8, addend: 0x0, symName: __ZNSt3__115basic_stringbufIcNS_11char_traitsIcEENS_9allocatorIcEEE9underflowEv, symObjAddr: 0x412C, symBinAddr: 0x100037ED0, symSize: 0x50 }
  - { offsetInCU: 0x41534, offset: 0x2B400D, size: 0x8, addend: 0x0, symName: __ZNSt3__115basic_stringbufIcNS_11char_traitsIcEENS_9allocatorIcEEE9pbackfailEi, symObjAddr: 0x417C, symBinAddr: 0x100037F20, symSize: 0x6C }
  - { offsetInCU: 0x41711, offset: 0x2B41EA, size: 0x8, addend: 0x0, symName: __ZNSt3__115basic_stringbufIcNS_11char_traitsIcEENS_9allocatorIcEEE8overflowEi, symObjAddr: 0x41E8, symBinAddr: 0x100037F8C, symSize: 0x160 }
  - { offsetInCU: 0x41AE7, offset: 0x2B45C0, size: 0x8, addend: 0x0, symName: __ZTv0_n24_NSt3__114basic_ofstreamIcNS_11char_traitsIcEEED1Ev, symObjAddr: 0x4680, symBinAddr: 0x1000383A8, symSize: 0x60 }
  - { offsetInCU: 0x41B77, offset: 0x2B4650, size: 0x8, addend: 0x0, symName: __ZNSt3__114basic_ofstreamIcNS_11char_traitsIcEEED0Ev, symObjAddr: 0x46E0, symBinAddr: 0x100038408, symSize: 0x60 }
  - { offsetInCU: 0x41C28, offset: 0x2B4701, size: 0x8, addend: 0x0, symName: __ZTv0_n24_NSt3__114basic_ofstreamIcNS_11char_traitsIcEEED0Ev, symObjAddr: 0x4740, symBinAddr: 0x100038468, symSize: 0x68 }
  - { offsetInCU: 0x41CD6, offset: 0x2B47AF, size: 0x8, addend: 0x0, symName: __ZNSt3__113basic_filebufIcNS_11char_traitsIcEEED1Ev, symObjAddr: 0x47A8, symBinAddr: 0x1000384D0, symSize: 0x4 }
  - { offsetInCU: 0x41CFA, offset: 0x2B47D3, size: 0x8, addend: 0x0, symName: __ZNSt3__113basic_filebufIcNS_11char_traitsIcEEED1Ev, symObjAddr: 0x47A8, symBinAddr: 0x1000384D0, symSize: 0x4 }
  - { offsetInCU: 0x41E16, offset: 0x2B48EF, size: 0x8, addend: 0x0, symName: __ZNSt3__113basic_filebufIcNS_11char_traitsIcEEED0Ev, symObjAddr: 0x489C, symBinAddr: 0x1000385C4, symSize: 0x14 }
  - { offsetInCU: 0x41E90, offset: 0x2B4969, size: 0x8, addend: 0x0, symName: __ZNSt3__113basic_filebufIcNS_11char_traitsIcEEE5imbueERKNS_6localeE, symObjAddr: 0x48B0, symBinAddr: 0x1000385D8, symSize: 0xEC }
  - { offsetInCU: 0x41F67, offset: 0x2B4A40, size: 0x8, addend: 0x0, symName: __ZNSt3__113basic_filebufIcNS_11char_traitsIcEEE6setbufEPcl, symObjAddr: 0x499C, symBinAddr: 0x1000386C4, symSize: 0xF8 }
  - { offsetInCU: 0x42049, offset: 0x2B4B22, size: 0x8, addend: 0x0, symName: __ZNSt3__113basic_filebufIcNS_11char_traitsIcEEE7seekoffExNS_8ios_base7seekdirEj, symObjAddr: 0x4A94, symBinAddr: 0x1000387BC, symSize: 0x100 }
  - { offsetInCU: 0x42182, offset: 0x2B4C5B, size: 0x8, addend: 0x0, symName: __ZNSt3__113basic_filebufIcNS_11char_traitsIcEEE7seekposENS_4fposI11__mbstate_tEEj, symObjAddr: 0x4B94, symBinAddr: 0x1000388BC, symSize: 0xB0 }
  - { offsetInCU: 0x421BD, offset: 0x2B4C96, size: 0x8, addend: 0x0, symName: __ZNSt3__113basic_filebufIcNS_11char_traitsIcEEE7seekposENS_4fposI11__mbstate_tEEj, symObjAddr: 0x4B94, symBinAddr: 0x1000388BC, symSize: 0xB0 }
  - { offsetInCU: 0x422CD, offset: 0x2B4DA6, size: 0x8, addend: 0x0, symName: __ZNSt3__113basic_filebufIcNS_11char_traitsIcEEE4syncEv, symObjAddr: 0x4C44, symBinAddr: 0x10003896C, symSize: 0x240 }
  - { offsetInCU: 0x425A1, offset: 0x2B507A, size: 0x8, addend: 0x0, symName: __ZNSt3__113basic_filebufIcNS_11char_traitsIcEEE9underflowEv, symObjAddr: 0x4E84, symBinAddr: 0x100038BAC, symSize: 0x264 }
  - { offsetInCU: 0x42640, offset: 0x2B5119, size: 0x8, addend: 0x0, symName: __ZNSt3__113basic_filebufIcNS_11char_traitsIcEEE9underflowEv, symObjAddr: 0x4E84, symBinAddr: 0x100038BAC, symSize: 0x264 }
  - { offsetInCU: 0x42987, offset: 0x2B5460, size: 0x8, addend: 0x0, symName: __ZNSt3__113basic_filebufIcNS_11char_traitsIcEEE9pbackfailEi, symObjAddr: 0x50E8, symBinAddr: 0x100038E10, symSize: 0x5C }
  - { offsetInCU: 0x429B3, offset: 0x2B548C, size: 0x8, addend: 0x0, symName: __ZNSt3__113basic_filebufIcNS_11char_traitsIcEEE9pbackfailEi, symObjAddr: 0x50E8, symBinAddr: 0x100038E10, symSize: 0x5C }
  - { offsetInCU: 0x42AEA, offset: 0x2B55C3, size: 0x8, addend: 0x0, symName: __ZNSt3__113basic_filebufIcNS_11char_traitsIcEEE8overflowEi, symObjAddr: 0x5144, symBinAddr: 0x100038E6C, symSize: 0x180 }
  - { offsetInCU: 0x42DFB, offset: 0x2B58D4, size: 0x8, addend: 0x0, symName: __ZNSt3__113basic_filebufIcNS_11char_traitsIcEEE12__write_modeEv, symObjAddr: 0x52EC, symBinAddr: 0x100039014, symSize: 0x68 }
  - { offsetInCU: 0x42FAA, offset: 0x2B5A83, size: 0x8, addend: 0x0, symName: __ZNSt3__16vectorI5StateNS_9allocatorIS1_EEE6insertENS_11__wrap_iterIPKS1_EERS6_, symObjAddr: 0x57B0, symBinAddr: 0x1000394D8, symSize: 0x1EC }
  - { offsetInCU: 0x437C5, offset: 0x2B629E, size: 0x8, addend: 0x0, symName: __ZNSt3__16vectorI5StateNS_9allocatorIS1_EEE12__move_rangeEPS1_S5_S5_, symObjAddr: 0x5B38, symBinAddr: 0x1000397CC, symSize: 0xDC }
  - { offsetInCU: 0x43C60, offset: 0x2B6739, size: 0x8, addend: 0x0, symName: __ZNSt3__16vectorI10TRANSITIONNS_9allocatorIS1_EEE18__assign_with_sizeB8ue170006IPS1_S6_EEvT_T0_l, symObjAddr: 0x6650, symBinAddr: 0x10003A2E4, symSize: 0x198 }
  - { offsetInCU: 0x442F7, offset: 0x2B6DD0, size: 0x8, addend: 0x0, symName: __ZN5StateC2ERKS_, symObjAddr: 0x5E1C, symBinAddr: 0x100039AB0, symSize: 0x180 }
  - { offsetInCU: 0x44A3B, offset: 0x2B7514, size: 0x8, addend: 0x0, symName: __ZNSt3__114__split_bufferI5StateRNS_9allocatorIS1_EEE9push_backB8ue170006ERKS1_, symObjAddr: 0x5C14, symBinAddr: 0x1000398A8, symSize: 0x158 }
  - { offsetInCU: 0x44ED9, offset: 0x2B79B2, size: 0x8, addend: 0x0, symName: __ZNSt3__114__split_bufferI5StateRNS_9allocatorIS1_EEED2Ev, symObjAddr: 0x6C2C, symBinAddr: 0x10003A8C0, symSize: 0x4C }
  - { offsetInCU: 0x45076, offset: 0x2B7B4F, size: 0x8, addend: 0x0, symName: __ZNKSt3__16vectorI5StateNS_9allocatorIS1_EEE20__throw_length_errorB8ue170006Ev, symObjAddr: 0x68C0, symBinAddr: 0x10003A554, symSize: 0x14 }
  - { offsetInCU: 0x450A0, offset: 0x2B7B79, size: 0x8, addend: 0x0, symName: __ZNSt3__119__allocate_at_leastB8ue170006INS_9allocatorI5StateEEEENS_19__allocation_resultINS_16allocator_traitsIT_E7pointerEEERS6_m, symObjAddr: 0x68D4, symBinAddr: 0x10003A568, symSize: 0x44 }
  - { offsetInCU: 0x45128, offset: 0x2B7C01, size: 0x8, addend: 0x0, symName: __ZNK12CompareNamesI5StateEclERKS0_RKNSt3__112basic_stringIcNS4_11char_traitsIcEENS4_9allocatorIcEEEE, symObjAddr: 0x5A30, symBinAddr: 0x100039758, symSize: 0x74 }
  - { offsetInCU: 0x454B2, offset: 0x2B7F8B, size: 0x8, addend: 0x0, symName: __ZNKSt3__120__move_backward_loopINS_17_ClassicAlgPolicyEEclB8ue170006IP5StateS5_S5_EENS_4pairIT_T1_EES7_T0_S8_, symObjAddr: 0x649C, symBinAddr: 0x10003A130, symSize: 0x158 }
  - { offsetInCU: 0x45F36, offset: 0x2B8A0F, size: 0x8, addend: 0x0, symName: __ZNKSt3__111__move_loopINS_17_ClassicAlgPolicyEEclB8ue170006IP5StateS5_S5_EENS_4pairIT_T1_EES7_T0_S8_, symObjAddr: 0x6918, symBinAddr: 0x10003A5AC, symSize: 0x11C }
  - { offsetInCU: 0x46686, offset: 0x2B915F, size: 0x8, addend: 0x0, symName: __ZNSt3__114__split_bufferI5StateRNS_9allocatorIS1_EEE28__construct_at_end_with_sizeINS_13move_iteratorIPS1_EEEEvT_m, symObjAddr: 0x6A34, symBinAddr: 0x10003A6C8, symSize: 0xAC }
  - { offsetInCU: 0x466DE, offset: 0x2B91B7, size: 0x8, addend: 0x0, symName: __ZNSt3__114__split_bufferI5StateRNS_9allocatorIS1_EEE28__construct_at_end_with_sizeINS_13move_iteratorIPS1_EEEEvT_m, symObjAddr: 0x6A34, symBinAddr: 0x10003A6C8, symSize: 0xAC }
  - { offsetInCU: 0x46706, offset: 0x2B91DF, size: 0x8, addend: 0x0, symName: __ZNSt3__114__split_bufferI5StateRNS_9allocatorIS1_EEE28__construct_at_end_with_sizeINS_13move_iteratorIPS1_EEEEvT_m, symObjAddr: 0x6A34, symBinAddr: 0x10003A6C8, symSize: 0xAC }
  - { offsetInCU: 0x46A8E, offset: 0x2B9567, size: 0x8, addend: 0x0, symName: __ZNSt3__16vectorI10TRANSITIONNS_9allocatorIS1_EEE16__init_with_sizeB8ue170006IPS1_S6_EEvT_T0_m, symObjAddr: 0x5F9C, symBinAddr: 0x100039C30, symSize: 0x84 }
  - { offsetInCU: 0x46E96, offset: 0x2B996F, size: 0x8, addend: 0x0, symName: __ZNSt3__16vectorI10TRANSITIONNS_9allocatorIS1_EEE11__vallocateB8ue170006Em, symObjAddr: 0x6020, symBinAddr: 0x100039CB4, symSize: 0x54 }
  - { offsetInCU: 0x46F13, offset: 0x2B99EC, size: 0x8, addend: 0x0, symName: __ZNKSt3__16vectorI10TRANSITIONNS_9allocatorIS1_EEE20__throw_length_errorB8ue170006Ev, symObjAddr: 0x6074, symBinAddr: 0x100039D08, symSize: 0x14 }
  - { offsetInCU: 0x4702B, offset: 0x2B9B04, size: 0x8, addend: 0x0, symName: __ZN10TRANSITIOND2Ev, symObjAddr: 0x639C, symBinAddr: 0x10003A030, symSize: 0x90 }
  - { offsetInCU: 0x47B6B, offset: 0x2BA644, size: 0x8, addend: 0x0, symName: __ZNSt3__16vectorI10TRANSITIONNS_9allocatorIS1_EEE13__vdeallocateEv, symObjAddr: 0x65F4, symBinAddr: 0x10003A288, symSize: 0x5C }
  - { offsetInCU: 0x47DEB, offset: 0x2BA8C4, size: 0x8, addend: 0x0, symName: __ZNKSt3__111__copy_loopINS_17_ClassicAlgPolicyEEclB8ue170006IP10TRANSITIONS5_S5_EENS_4pairIT_T1_EES7_T0_S8_, symObjAddr: 0x67E8, symBinAddr: 0x10003A47C, symSize: 0xD8 }
  - { offsetInCU: 0x483AC, offset: 0x2BAE85, size: 0x8, addend: 0x0, symName: __ZNSt3__16vectorI9AutomatonNS_9allocatorIS1_EEE12__move_rangeEPS1_S5_S5_, symObjAddr: 0x6FCC, symBinAddr: 0x10003AC60, symSize: 0xC4 }
  - { offsetInCU: 0x487CC, offset: 0x2BB2A5, size: 0x8, addend: 0x0, symName: __ZNSt3__16vectorI5StateNS_9allocatorIS1_EEE18__assign_with_sizeB8ue170006IPS1_S6_EEvT_T0_l, symObjAddr: 0x7754, symBinAddr: 0x10003B3E8, symSize: 0x17C }
  - { offsetInCU: 0x48E2D, offset: 0x2BB906, size: 0x8, addend: 0x0, symName: __ZN9AutomatonC2ERKS_, symObjAddr: 0x7354, symBinAddr: 0x10003AFE8, symSize: 0x128 }
  - { offsetInCU: 0x493D4, offset: 0x2BBEAD, size: 0x8, addend: 0x0, symName: __ZNSt3__114__split_bufferI9AutomatonRNS_9allocatorIS1_EEE9push_backB8ue170006ERKS1_, symObjAddr: 0x7090, symBinAddr: 0x10003AD24, symSize: 0x158 }
  - { offsetInCU: 0x49872, offset: 0x2BC34B, size: 0x8, addend: 0x0, symName: __ZNSt3__114__split_bufferI9AutomatonRNS_9allocatorIS1_EEED2Ev, symObjAddr: 0x7B60, symBinAddr: 0x10003B7F4, symSize: 0x4C }
  - { offsetInCU: 0x49A0F, offset: 0x2BC4E8, size: 0x8, addend: 0x0, symName: __ZNKSt3__16vectorI9AutomatonNS_9allocatorIS1_EEE20__throw_length_errorB8ue170006Ev, symObjAddr: 0x7984, symBinAddr: 0x10003B618, symSize: 0x14 }
  - { offsetInCU: 0x49A39, offset: 0x2BC512, size: 0x8, addend: 0x0, symName: __ZNSt3__119__allocate_at_leastB8ue170006INS_9allocatorI9AutomatonEEEENS_19__allocation_resultINS_16allocator_traitsIT_E7pointerEEERS6_m, symObjAddr: 0x7998, symBinAddr: 0x10003B62C, symSize: 0x44 }
  - { offsetInCU: 0x49BE3, offset: 0x2BC6BC, size: 0x8, addend: 0x0, symName: __ZNKSt3__120__move_backward_loopINS_17_ClassicAlgPolicyEEclB8ue170006IP9AutomatonS5_S5_EENS_4pairIT_T1_EES7_T0_S8_, symObjAddr: 0x75D0, symBinAddr: 0x10003B264, symSize: 0x120 }
  - { offsetInCU: 0x4A430, offset: 0x2BCF09, size: 0x8, addend: 0x0, symName: __ZNKSt3__111__move_loopINS_17_ClassicAlgPolicyEEclB8ue170006IP9AutomatonS5_S5_EENS_4pairIT_T1_EES7_T0_S8_, symObjAddr: 0x79DC, symBinAddr: 0x10003B670, symSize: 0xF0 }
  - { offsetInCU: 0x4A9E1, offset: 0x2BD4BA, size: 0x8, addend: 0x0, symName: __ZNSt3__114__split_bufferI9AutomatonRNS_9allocatorIS1_EEE28__construct_at_end_with_sizeINS_13move_iteratorIPS1_EEEEvT_m, symObjAddr: 0x7ACC, symBinAddr: 0x10003B760, symSize: 0x94 }
  - { offsetInCU: 0x4AA39, offset: 0x2BD512, size: 0x8, addend: 0x0, symName: __ZNSt3__114__split_bufferI9AutomatonRNS_9allocatorIS1_EEE28__construct_at_end_with_sizeINS_13move_iteratorIPS1_EEEEvT_m, symObjAddr: 0x7ACC, symBinAddr: 0x10003B760, symSize: 0x94 }
  - { offsetInCU: 0x4AA61, offset: 0x2BD53A, size: 0x8, addend: 0x0, symName: __ZNSt3__114__split_bufferI9AutomatonRNS_9allocatorIS1_EEE28__construct_at_end_with_sizeINS_13move_iteratorIPS1_EEEEvT_m, symObjAddr: 0x7ACC, symBinAddr: 0x10003B760, symSize: 0x94 }
  - { offsetInCU: 0x4ADAC, offset: 0x2BD885, size: 0x8, addend: 0x0, symName: __ZNSt3__16vectorI5StateNS_9allocatorIS1_EEE16__init_with_sizeB8ue170006IPS1_S6_EEvT_T0_m, symObjAddr: 0x747C, symBinAddr: 0x10003B110, symSize: 0x84 }
  - { offsetInCU: 0x4B185, offset: 0x2BDC5E, size: 0x8, addend: 0x0, symName: __ZNSt3__16vectorI5StateNS_9allocatorIS1_EEE11__vallocateB8ue170006Em, symObjAddr: 0x7500, symBinAddr: 0x10003B194, symSize: 0x50 }
  - { offsetInCU: 0x4B202, offset: 0x2BDCDB, size: 0x8, addend: 0x0, symName: __ZNSt3__135__uninitialized_allocator_copy_implB8ue170006INS_9allocatorI5StateEEPS2_S4_S4_EET2_RT_T0_T1_S5_, symObjAddr: 0x7550, symBinAddr: 0x10003B1E4, symSize: 0x80 }
  - { offsetInCU: 0x4B31C, offset: 0x2BDDF5, size: 0x8, addend: 0x0, symName: __ZNSt3__16vectorI5StateNS_9allocatorIS1_EEE13__vdeallocateEv, symObjAddr: 0x76F0, symBinAddr: 0x10003B384, symSize: 0x64 }
  - { offsetInCU: 0x4B524, offset: 0x2BDFFD, size: 0x8, addend: 0x0, symName: __ZNKSt3__111__copy_loopINS_17_ClassicAlgPolicyEEclB8ue170006IP5StateS5_S5_EENS_4pairIT_T1_EES7_T0_S8_, symObjAddr: 0x78D0, symBinAddr: 0x10003B564, symSize: 0xB4 }
  - { offsetInCU: 0x4BC0B, offset: 0x2BE6E4, size: 0x8, addend: 0x0, symName: __ZNSt3__113basic_filebufIcNS_11char_traitsIcEEEC2Ev, symObjAddr: 0x809C, symBinAddr: 0x10003B9F8, symSize: 0x12C }
  - { offsetInCU: 0x58F3, offset: 0x2C406F, size: 0x8, addend: 0x0, symName: __ZN3ONE7ReadPngEPKcb, symObjAddr: 0x820, symBinAddr: 0x10003BB90, symSize: 0x274 }
  - { offsetInCU: 0x1024D, offset: 0x2D4D3E, size: 0x8, addend: 0x0, symName: __ZN8AST_exec4execEP8AST_nodeP5Stack, symObjAddr: 0x0, symBinAddr: 0x10003BE04, symSize: 0xE44 }
  - { offsetInCU: 0x14E65, offset: 0x2D9956, size: 0x8, addend: 0x0, symName: __ZNSt3__16vectorI4ParmNS_9allocatorIS1_EEE7__clearB8ue170006Ev, symObjAddr: 0x1C20, symBinAddr: 0x10003D480, symSize: 0x54 }
  - { offsetInCU: 0x152D8, offset: 0x2D9DC9, size: 0x8, addend: 0x0, symName: __ZN8AST_node5graphENSt3__112basic_stringIcNS0_11char_traitsIcEENS0_9allocatorIcEEEES6_S6_, symObjAddr: 0x1068, symBinAddr: 0x10003CCE0, symSize: 0x760 }
  - { offsetInCU: 0x19679, offset: 0x2DE16A, size: 0x8, addend: 0x0, symName: __ZN4ParmC1ERKS_, symObjAddr: 0xE44, symBinAddr: 0x10003CC48, symSize: 0x5C }
  - { offsetInCU: 0x19747, offset: 0x2DE238, size: 0x8, addend: 0x0, symName: __ZN4Parm5tointEv, symObjAddr: 0x102C, symBinAddr: 0x10003CCA4, symSize: 0x3C }
  - { offsetInCU: 0x197A1, offset: 0x2DE292, size: 0x8, addend: 0x0, symName: __ZNSt3__16vectorI4ParmNS_9allocatorIS1_EEE16__destroy_vectorclB8ue170006Ev, symObjAddr: 0x1BE0, symBinAddr: 0x10003D440, symSize: 0x40 }
  - { offsetInCU: 0x19FBD, offset: 0x2DEAAE, size: 0x8, addend: 0x0, symName: __ZN8AST_node5graphEP7__sFILEiNSt3__112basic_stringIcNS2_11char_traitsIcEENS2_9allocatorIcEEEE, symObjAddr: 0x1C74, symBinAddr: 0x10003D4D4, symSize: 0x35C }
  - { offsetInCU: 0x53, offset: 0x2E2741, size: 0x8, addend: 0x0, symName: _get_http2_request, symObjAddr: 0x1D200, symBinAddr: 0x10031C948, symSize: 0x0 }
  - { offsetInCU: 0x6D, offset: 0x2E275B, size: 0x8, addend: 0x0, symName: _func_map, symObjAddr: 0x2A1CD0, symBinAddr: 0x100326D78, symSize: 0x0 }
  - { offsetInCU: 0x1F82C, offset: 0x301F1A, size: 0x8, addend: 0x0, symName: __ZNSt3__119__allocate_at_leastB8ue170006INS_9allocatorIP9NamespaceEEEENS_19__allocation_resultINS_16allocator_traitsIT_E7pointerEEERS7_m, symObjAddr: 0x525C, symBinAddr: 0x100040B2C, symSize: 0x34 }
  - { offsetInCU: 0x1F8D4, offset: 0x301FC2, size: 0x8, addend: 0x0, symName: __ZNSt3__16__treeINS_12__value_typeINS_12basic_stringIcNS_11char_traitsIcEENS_9allocatorIcEEEES7_EENS_19__map_value_compareIS7_S8_NS_4lessIS7_EELb1EEENS5_IS8_EEE7destroyEPNS_11__tree_nodeIS8_PvEE, symObjAddr: 0x5290, symBinAddr: 0x100040B60, symSize: 0x48 }
  - { offsetInCU: 0x1FEFC, offset: 0x3025EA, size: 0x8, addend: 0x0, symName: __ZNSt3__112__destroy_atB8ue170006INS_4pairIKNS_12basic_stringIcNS_11char_traitsIcEENS_9allocatorIcEEEES7_EELi0EEEvPT_, symObjAddr: 0x5204, symBinAddr: 0x100040AD4, symSize: 0x44 }
  - { offsetInCU: 0x23F6E, offset: 0x30665C, size: 0x8, addend: 0x0, symName: __ZNKSt3__111__move_loopINS_17_ClassicAlgPolicyEEclB8ue170006IPNS_12basic_stringIcNS_11char_traitsIcEENS_9allocatorIcEEEESA_SA_EENS_4pairIT_T1_EESC_T0_SD_, symObjAddr: 0x80A0, symBinAddr: 0x100043598, symSize: 0x70 }
  - { offsetInCU: 0x24467, offset: 0x306B55, size: 0x8, addend: 0x0, symName: __ZNSt3__142__uninitialized_allocator_move_if_noexceptB8ue170006INS_9allocatorINS_12basic_stringIcNS_11char_traitsIcEENS1_IcEEEEEENS_16reverse_iteratorIPS6_EESA_SA_EET2_RT_T0_T1_SB_, symObjAddr: 0x8110, symBinAddr: 0x100043608, symSize: 0x9C }
  - { offsetInCU: 0x246C2, offset: 0x306DB0, size: 0x8, addend: 0x0, symName: __ZNSt3__142__uninitialized_allocator_move_if_noexceptB8ue170006INS_9allocatorINS_12basic_stringIcNS_11char_traitsIcEENS1_IcEEEEEEPS6_S8_S8_EET2_RT_T0_T1_S9_, symObjAddr: 0x81AC, symBinAddr: 0x1000436A4, symSize: 0x7C }
  - { offsetInCU: 0x263DF, offset: 0x308ACD, size: 0x8, addend: 0x0, symName: __ZNSt3__114__thread_proxyB8ue170006INS_5tupleIJNS_10unique_ptrINS_15__thread_structENS_14default_deleteIS3_EEEEPFbNS_12basic_stringIcNS_11char_traitsIcEENS_9allocatorIcEEEEESC_EEEEEPvSG_, symObjAddr: 0x17608, symBinAddr: 0x1000448D4, symSize: 0xC8 }
  - { offsetInCU: 0x2D0F5, offset: 0x30F7E3, size: 0x8, addend: 0x0, symName: __ZNSt3__16vectorINS_12basic_stringIcNS_11char_traitsIcEENS_9allocatorIcEEEENS4_IS6_EEE26__swap_out_circular_bufferERNS_14__split_bufferIS6_RS7_EEPS6_, symObjAddr: 0x7F0C, symBinAddr: 0x10004345C, symSize: 0xB0 }
  - { offsetInCU: 0x2D32C, offset: 0x30FA1A, size: 0x8, addend: 0x0, symName: __ZNSt3__16vectorINS_12basic_stringIcNS_11char_traitsIcEENS_9allocatorIcEEEENS4_IS6_EEE26__swap_out_circular_bufferERNS_14__split_bufferIS6_RS7_EE, symObjAddr: 0x8DD4, symBinAddr: 0x100044144, symSize: 0x74 }
  - { offsetInCU: 0x2F82B, offset: 0x311F19, size: 0x8, addend: 0x0, symName: __Z13download_fileNSt3__112basic_stringIcNS_11char_traitsIcEENS_9allocatorIcEEEE, symObjAddr: 0x0, symBinAddr: 0x10003D830, symSize: 0x74 }
  - { offsetInCU: 0x2FC0B, offset: 0x3122F9, size: 0x8, addend: 0x0, symName: __Z13WriteCallbackPvmmPNSt3__112basic_stringIcNS0_11char_traitsIcEENS0_9allocatorIcEEEE, symObjAddr: 0x74, symBinAddr: 0x10003D8A4, symSize: 0x34 }
  - { offsetInCU: 0x2FE05, offset: 0x3124F3, size: 0x8, addend: 0x0, symName: __Z18https_post_requestRNSt3__112basic_stringIcNS_11char_traitsIcEENS_9allocatorIcEEEERKS5_S8_, symObjAddr: 0xA8, symBinAddr: 0x10003D8D8, symSize: 0x2B8 }
  - { offsetInCU: 0x30928, offset: 0x313016, size: 0x8, addend: 0x0, symName: __Z18https_get_request2RNSt3__112basic_stringIcNS_11char_traitsIcEENS_9allocatorIcEEEERKS5_, symObjAddr: 0x3F0, symBinAddr: 0x10003DB90, symSize: 0x220 }
  - { offsetInCU: 0x313D4, offset: 0x313AC2, size: 0x8, addend: 0x0, symName: __Z17https_get_requestRNSt3__112basic_stringIcNS_11char_traitsIcEENS_9allocatorIcEEEERKS5_, symObjAddr: 0x610, symBinAddr: 0x10003DDB0, symSize: 0x270 }
  - { offsetInCU: 0x3200F, offset: 0x3146FD, size: 0x8, addend: 0x0, symName: __Z4readNSt3__112basic_stringIcNS_11char_traitsIcEENS_9allocatorIcEEEE, symObjAddr: 0x8A8, symBinAddr: 0x10003E020, symSize: 0x620 }
  - { offsetInCU: 0x344EC, offset: 0x316BDA, size: 0x8, addend: 0x0, symName: __ZNSt3__114basic_ifstreamIcNS_11char_traitsIcEEE4openERKNS_12basic_stringIcS2_NS_9allocatorIcEEEEj, symObjAddr: 0xEC8, symBinAddr: 0x10003E640, symSize: 0x5C }
  - { offsetInCU: 0x34667, offset: 0x316D55, size: 0x8, addend: 0x0, symName: __ZNSt3__118basic_stringstreamIcNS_11char_traitsIcEENS_9allocatorIcEEEC1B8ue170006Ev, symObjAddr: 0xF24, symBinAddr: 0x10003E69C, symSize: 0xE8 }
  - { offsetInCU: 0x34746, offset: 0x316E34, size: 0x8, addend: 0x0, symName: __ZNKSt3__115basic_stringbufIcNS_11char_traitsIcEENS_9allocatorIcEEE3strB8ue170006IS4_EENS_12basic_stringIcS2_T_EERKS8_, symObjAddr: 0x17424, symBinAddr: 0x1000446F0, symSize: 0x8C }
  - { offsetInCU: 0x34AE9, offset: 0x3171D7, size: 0x8, addend: 0x0, symName: __ZNKSt3__115basic_stringbufIcNS_11char_traitsIcEENS_9allocatorIcEEE4viewB8ue170006Ev, symObjAddr: 0x174B0, symBinAddr: 0x10004477C, symSize: 0x4C }
  - { offsetInCU: 0x34C1D, offset: 0x31730B, size: 0x8, addend: 0x0, symName: __ZNSt3__114basic_ifstreamIcNS_11char_traitsIcEEED1Ev, symObjAddr: 0x10A0, symBinAddr: 0x10003E784, symSize: 0x60 }
  - { offsetInCU: 0x35AA6, offset: 0x318194, size: 0x8, addend: 0x0, symName: __ZN6Replay12EvalStmtListENSt3__112basic_stringIcNS0_11char_traitsIcEENS0_9allocatorIcEEEES6_, symObjAddr: 0x1100, symBinAddr: 0x10003E7E4, symSize: 0x294 }
  - { offsetInCU: 0x36D2A, offset: 0x319418, size: 0x8, addend: 0x0, symName: __ZN13ReplayContextC2ENSt3__112basic_stringIcNS0_11char_traitsIcEENS0_9allocatorIcEEEE, symObjAddr: 0x309C, symBinAddr: 0x10003F164, symSize: 0x1A0 }
  - { offsetInCU: 0x3763B, offset: 0x319D29, size: 0x8, addend: 0x0, symName: __ZN9CodeBlock15CompileStmtListEv, symObjAddr: 0x1394, symBinAddr: 0x10003EA78, symSize: 0x90 }
  - { offsetInCU: 0x37959, offset: 0x31A047, size: 0x8, addend: 0x0, symName: __ZN9CodeBlock4ExecEv, symObjAddr: 0x1424, symBinAddr: 0x10003EB08, symSize: 0x6C }
  - { offsetInCU: 0x37C78, offset: 0x31A366, size: 0x8, addend: 0x0, symName: __ZN9CodeBlockD2Ev, symObjAddr: 0x16554, symBinAddr: 0x100044650, symSize: 0x40 }
  - { offsetInCU: 0x37DFB, offset: 0x31A4E9, size: 0x8, addend: 0x0, symName: __ZNSt3__16__treeINS_12__value_typeINS_12basic_stringIcNS_11char_traitsIcEENS_9allocatorIcEEEES7_EENS_19__map_value_compareIS7_S8_NS_4lessIS7_EELb1EEENS5_IS8_EEE7destroyEPNS_11__tree_nodeIS8_PvEE, symObjAddr: 0x5290, symBinAddr: 0x100040B60, symSize: 0x48 }
  - { offsetInCU: 0x37F94, offset: 0x31A682, size: 0x8, addend: 0x0, symName: __ZNSt3__16__treeINS_12__value_typeI19PredicateIdentifierP16DatalogPredicateEENS_19__map_value_compareIS2_S5_NS_4lessIS2_EELb1EEENS_9allocatorIS5_EEE7destroyEPNS_11__tree_nodeIS5_PvEE, symObjAddr: 0x52D8, symBinAddr: 0x100040BA8, symSize: 0x50 }
  - { offsetInCU: 0x382F5, offset: 0x31A9E3, size: 0x8, addend: 0x0, symName: __ZN13ReplayContextD1Ev, symObjAddr: 0x1490, symBinAddr: 0x10003EB74, symSize: 0x98 }
  - { offsetInCU: 0x389FE, offset: 0x31B0EC, size: 0x8, addend: 0x0, symName: __ZN8AST_exec3runEP8AST_node, symObjAddr: 0x163A4, symBinAddr: 0x10004451C, symSize: 0x134 }
  - { offsetInCU: 0x3939A, offset: 0x31BA88, size: 0x8, addend: 0x0, symName: __ZN6Replay4callENSt3__112basic_stringIcNS0_11char_traitsIcEENS0_9allocatorIcEEEE, symObjAddr: 0x1528, symBinAddr: 0x10003EC0C, symSize: 0xA8 }
  - { offsetInCU: 0x397A7, offset: 0x31BE95, size: 0x8, addend: 0x0, symName: __ZL4callNSt3__112basic_stringIcNS_11char_traitsIcEENS_9allocatorIcEEEE, symObjAddr: 0x15D0, symBinAddr: 0x10003ECB4, symSize: 0x198 }
  - { offsetInCU: 0x3A417, offset: 0x31CB05, size: 0x8, addend: 0x0, symName: __ZN6Replay5spawnENSt3__112basic_stringIcNS0_11char_traitsIcEENS0_9allocatorIcEEEE, symObjAddr: 0x1768, symBinAddr: 0x10003EE4C, symSize: 0x8C }
  - { offsetInCU: 0x3A549, offset: 0x31CC37, size: 0x8, addend: 0x0, symName: __ZNSt3__16threadC2IRFbNS_12basic_stringIcNS_11char_traitsIcEENS_9allocatorIcEEEEEJRS7_EvEEOT_DpOT0_, symObjAddr: 0x174FC, symBinAddr: 0x1000447C8, symSize: 0x10C }
  - { offsetInCU: 0x3AA00, offset: 0x31D0EE, size: 0x8, addend: 0x0, symName: __ZN6Replay7JsonRpcENSt3__112basic_stringIcNS0_11char_traitsIcEENS0_9allocatorIcEEEEN8nlohmann16json_abi_v3_11_210basic_jsonINS0_3mapENS0_6vectorES6_bxydS4_NS8_14adl_serializerENSB_IhNS4_IhEEEEvEE, symObjAddr: 0x17F8, symBinAddr: 0x10003EED8, symSize: 0x164 }
  - { offsetInCU: 0x3C08D, offset: 0x31E77B, size: 0x8, addend: 0x0, symName: __ZTv0_n24_NSt3__114basic_ifstreamIcNS_11char_traitsIcEEED1Ev, symObjAddr: 0x23C8, symBinAddr: 0x10003F03C, symSize: 0x60 }
  - { offsetInCU: 0x3C11D, offset: 0x31E80B, size: 0x8, addend: 0x0, symName: __ZNSt3__114basic_ifstreamIcNS_11char_traitsIcEEED0Ev, symObjAddr: 0x2428, symBinAddr: 0x10003F09C, symSize: 0x60 }
  - { offsetInCU: 0x3C1CE, offset: 0x31E8BC, size: 0x8, addend: 0x0, symName: __ZTv0_n24_NSt3__114basic_ifstreamIcNS_11char_traitsIcEEED0Ev, symObjAddr: 0x2488, symBinAddr: 0x10003F0FC, symSize: 0x68 }
  - { offsetInCU: 0x3C864, offset: 0x31EF52, size: 0x8, addend: 0x0, symName: __ZN13HeapNamespaceC2ENSt3__112basic_stringIcNS0_11char_traitsIcEENS0_9allocatorIcEEEE, symObjAddr: 0x49C8, symBinAddr: 0x1000404C4, symSize: 0xD8 }
  - { offsetInCU: 0x3CD17, offset: 0x31F405, size: 0x8, addend: 0x0, symName: __ZNKSt3__16vectorIP9NamespaceNS_9allocatorIS2_EEE20__throw_length_errorB8ue170006Ev, symObjAddr: 0x5248, symBinAddr: 0x100040B18, symSize: 0x14 }
  - { offsetInCU: 0x3CD41, offset: 0x31F42F, size: 0x8, addend: 0x0, symName: __ZNSt3__119__allocate_at_leastB8ue170006INS_9allocatorIP9NamespaceEEEENS_19__allocation_resultINS_16allocator_traitsIT_E7pointerEEERS7_m, symObjAddr: 0x525C, symBinAddr: 0x100040B2C, symSize: 0x34 }
  - { offsetInCU: 0x3CD4C, offset: 0x31F43A, size: 0x8, addend: 0x0, symName: __ZN13HeapNamespaceD1Ev, symObjAddr: 0x323C, symBinAddr: 0x10003F304, symSize: 0x50 }
  - { offsetInCU: 0x3CF8B, offset: 0x31F679, size: 0x8, addend: 0x0, symName: __ZN14DatalogContextD2Ev, symObjAddr: 0x328C, symBinAddr: 0x10003F354, symSize: 0x54 }
  - { offsetInCU: 0x3D1C7, offset: 0x31F8B5, size: 0x8, addend: 0x0, symName: __ZN13ReplayContext12EvalFunctionENSt3__112basic_stringIcNS0_11char_traitsIcEENS0_9allocatorIcEEEEP5Stack, symObjAddr: 0x32E0, symBinAddr: 0x10003F3A8, symSize: 0x120 }
  - { offsetInCU: 0x3D6AC, offset: 0x31FD9A, size: 0x8, addend: 0x0, symName: __ZN13ReplayContext8CallFuncENSt3__112basic_stringIcNS0_11char_traitsIcEENS0_9allocatorIcEEEEP5Stack, symObjAddr: 0x5328, symBinAddr: 0x100040BF8, symSize: 0x1F74 }
  - { offsetInCU: 0x482AE, offset: 0x32A99C, size: 0x8, addend: 0x0, symName: __ZN14DatalogContext9PredicateENSt3__112basic_stringIcNS0_11char_traitsIcEENS0_9allocatorIcEEEEP5Stack, symObjAddr: 0x3400, symBinAddr: 0x10003F4C8, symSize: 0x1BC }
  - { offsetInCU: 0x48C2C, offset: 0x32B31A, size: 0x8, addend: 0x0, symName: __ZN16DatalogPredicateC2ENSt3__112basic_stringIcNS0_11char_traitsIcEENS0_9allocatorIcEEEEP5Stack, symObjAddr: 0x7A14, symBinAddr: 0x100042F64, symSize: 0x194 }
  - { offsetInCU: 0x496F1, offset: 0x32BDDF, size: 0x8, addend: 0x0, symName: __ZNSt3__16__treeINS_12__value_typeI19PredicateIdentifierP16DatalogPredicateEENS_19__map_value_compareIS2_S5_NS_4lessIS2_EELb1EEENS_9allocatorIS5_EEE25__emplace_unique_key_argsIS2_JRKNS_21piecewise_construct_tENS_5tupleIJRKS2_EEENSH_IJEEEEEENS_4pairINS_15__tree_iteratorIS5_PNS_11__tree_nodeIS5_PvEElEEbEERKT_DpOT0_, symObjAddr: 0x843C, symBinAddr: 0x100043820, symSize: 0x94 }
  - { offsetInCU: 0x49B66, offset: 0x32C254, size: 0x8, addend: 0x0, symName: __ZN14DatalogContext10AssertFactENSt3__112basic_stringIcNS0_11char_traitsIcEENS0_9allocatorIcEEEEP5Stack, symObjAddr: 0x35BC, symBinAddr: 0x10003F684, symSize: 0x4B4 }
  - { offsetInCU: 0x4BFAB, offset: 0x32E699, size: 0x8, addend: 0x0, symName: __ZN14DatalogContext9PredicateENSt3__112basic_stringIcNS0_11char_traitsIcEENS0_9allocatorIcEEEEm, symObjAddr: 0x88A8, symBinAddr: 0x100043C18, symSize: 0x1B8 }
  - { offsetInCU: 0x4C933, offset: 0x32F021, size: 0x8, addend: 0x0, symName: __ZN16DatalogPredicate7ColumnsEv, symObjAddr: 0x8A60, symBinAddr: 0x100043DD0, symSize: 0x108 }
  - { offsetInCU: 0x4D1E2, offset: 0x32F8D0, size: 0x8, addend: 0x0, symName: __ZN14DatalogContext9QueryFactENSt3__112basic_stringIcNS0_11char_traitsIcEENS0_9allocatorIcEEEEP5Stacki, symObjAddr: 0x3A70, symBinAddr: 0x10003FB38, symSize: 0x5CC }
  - { offsetInCU: 0x4FD58, offset: 0x332446, size: 0x8, addend: 0x0, symName: __ZN14DatalogContext11WhereClauseEP5StackP16DatalogPredicate, symObjAddr: 0x8E48, symBinAddr: 0x1000441B8, symSize: 0x2AC }
  - { offsetInCU: 0x511CA, offset: 0x3338B8, size: 0x8, addend: 0x0, symName: __ZN4ParmC2E9PARM_TYPEi, symObjAddr: 0x9220, symBinAddr: 0x100044464, symSize: 0x64 }
  - { offsetInCU: 0x5168E, offset: 0x333D7C, size: 0x8, addend: 0x0, symName: __ZN4ParmC2E9PARM_TYPEi, symObjAddr: 0x9220, symBinAddr: 0x100044464, symSize: 0x64 }
  - { offsetInCU: 0x51699, offset: 0x333D87, size: 0x8, addend: 0x0, symName: __ZN14DatalogContext11RetractFactENSt3__112basic_stringIcNS0_11char_traitsIcEENS0_9allocatorIcEEEEP5Stack, symObjAddr: 0x403C, symBinAddr: 0x100040104, symSize: 0x31C }
  - { offsetInCU: 0x52EDE, offset: 0x3355CC, size: 0x8, addend: 0x0, symName: __ZN14DatalogContext12EvalFunctionENSt3__112basic_stringIcNS0_11char_traitsIcEENS0_9allocatorIcEEEEP5Stack, symObjAddr: 0x4924, symBinAddr: 0x100040420, symSize: 0xA4 }
  - { offsetInCU: 0x53371, offset: 0x335A5F, size: 0x8, addend: 0x0, symName: __ZN13HeapNamespace6GetValER4Parm, symObjAddr: 0x4AA0, symBinAddr: 0x10004059C, symSize: 0x100 }
  - { offsetInCU: 0x53794, offset: 0x335E82, size: 0x8, addend: 0x0, symName: __ZN13HeapNamespace6GetValENSt3__112basic_stringIcNS0_11char_traitsIcEENS0_9allocatorIcEEEE, symObjAddr: 0x4CE8, symBinAddr: 0x1000407E4, symSize: 0x90 }
  - { offsetInCU: 0x53976, offset: 0x336064, size: 0x8, addend: 0x0, symName: __ZN13HeapNamespace6SetValER4ParmNSt3__112basic_stringIcNS2_11char_traitsIcEENS2_9allocatorIcEEEE, symObjAddr: 0x4BA0, symBinAddr: 0x10004069C, symSize: 0x148 }
  - { offsetInCU: 0x53C13, offset: 0x336301, size: 0x8, addend: 0x0, symName: __ZNSt3__16__treeINS_12__value_typeINS_12basic_stringIcNS_11char_traitsIcEENS_9allocatorIcEEEES7_EENS_19__map_value_compareIS7_S8_NS_4lessIS7_EELb1EEENS5_IS8_EEE25__emplace_unique_key_argsIS7_JRKNS_21piecewise_construct_tENS_5tupleIJOS7_EEENSJ_IJEEEEEENS_4pairINS_15__tree_iteratorIS8_PNS_11__tree_nodeIS8_PvEElEEbEERKT_DpOT0_, symObjAddr: 0x4E88, symBinAddr: 0x1000408F0, symSize: 0xBC }
  - { offsetInCU: 0x54160, offset: 0x33684E, size: 0x8, addend: 0x0, symName: __ZNSt3__16__treeINS_12__value_typeINS_12basic_stringIcNS_11char_traitsIcEENS_9allocatorIcEEEES7_EENS_19__map_value_compareIS7_S8_NS_4lessIS7_EELb1EEENS5_IS8_EEE4findIS7_EENS_15__tree_iteratorIS8_PNS_11__tree_nodeIS8_PvEElEERKT_, symObjAddr: 0x4D78, symBinAddr: 0x100040874, symSize: 0x7C }
  - { offsetInCU: 0x5480C, offset: 0x336EFA, size: 0x8, addend: 0x0, symName: __ZNSt3__16__treeINS_12__value_typeINS_12basic_stringIcNS_11char_traitsIcEENS_9allocatorIcEEEES7_EENS_19__map_value_compareIS7_S8_NS_4lessIS7_EELb1EEENS5_IS8_EEE12__find_equalIS7_EERPNS_16__tree_node_baseIPvEERPNS_15__tree_end_nodeISJ_EERKT_, symObjAddr: 0x4F44, symBinAddr: 0x1000409AC, symSize: 0x90 }
  - { offsetInCU: 0x54997, offset: 0x337085, size: 0x8, addend: 0x0, symName: __ZNSt3__16__treeINS_12__value_typeINS_12basic_stringIcNS_11char_traitsIcEENS_9allocatorIcEEEES7_EENS_19__map_value_compareIS7_S8_NS_4lessIS7_EELb1EEENS5_IS8_EEE16__insert_node_atEPNS_15__tree_end_nodeIPNS_16__tree_node_baseIPvEEEERSJ_SJ_, symObjAddr: 0x4FD4, symBinAddr: 0x100040A3C, symSize: 0x54 }
  - { offsetInCU: 0x549FE, offset: 0x3370EC, size: 0x8, addend: 0x0, symName: __ZNSt3__110unique_ptrINS_11__tree_nodeINS_12__value_typeINS_12basic_stringIcNS_11char_traitsIcEENS_9allocatorIcEEEES8_EEPvEENS_22__tree_node_destructorINS6_ISB_EEEEE5resetB8ue170006EPSB_, symObjAddr: 0x51C0, symBinAddr: 0x100040A90, symSize: 0x44 }
  - { offsetInCU: 0x57ADC, offset: 0x33A1CA, size: 0x8, addend: 0x0, symName: __ZN13ReplayContext4SlewENSt3__112basic_stringIcNS0_11char_traitsIcEENS0_9allocatorIcEEEE, symObjAddr: 0x729C, symBinAddr: 0x100042B6C, symSize: 0x19C }
  - { offsetInCU: 0x5812B, offset: 0x33A819, size: 0x8, addend: 0x0, symName: __ZN13ReplayContext6dropitE5POINT, symObjAddr: 0x7438, symBinAddr: 0x100042D08, symSize: 0x25C }
  - { offsetInCU: 0x5980F, offset: 0x33BEFD, size: 0x8, addend: 0x0, symName: __ZNSt3__16vectorINS_12basic_stringIcNS_11char_traitsIcEENS_9allocatorIcEEEENS4_IS6_EEE6insertENS_11__wrap_iterIPKS6_EEOS6_, symObjAddr: 0x7BA8, symBinAddr: 0x1000430F8, symSize: 0x184 }
  - { offsetInCU: 0x59FEF, offset: 0x33C6DD, size: 0x8, addend: 0x0, symName: __ZNSt3__16vectorINS_12basic_stringIcNS_11char_traitsIcEENS_9allocatorIcEEEENS4_IS6_EEE12__move_rangeEPS6_S9_S9_, symObjAddr: 0x7D2C, symBinAddr: 0x10004327C, symSize: 0x6C }
  - { offsetInCU: 0x5A286, offset: 0x33C974, size: 0x8, addend: 0x0, symName: __ZNSt3__114__split_bufferINS_12basic_stringIcNS_11char_traitsIcEENS_9allocatorIcEEEERNS4_IS6_EEE9push_backEOS6_, symObjAddr: 0x7D98, symBinAddr: 0x1000432E8, symSize: 0x174 }
  - { offsetInCU: 0x5A878, offset: 0x33CF66, size: 0x8, addend: 0x0, symName: __ZNSt3__114__split_bufferINS_12basic_stringIcNS_11char_traitsIcEENS_9allocatorIcEEEERNS4_IS6_EEED2Ev, symObjAddr: 0x8320, symBinAddr: 0x100043798, symSize: 0x34 }
  - { offsetInCU: 0x5A9D8, offset: 0x33D0C6, size: 0x8, addend: 0x0, symName: __ZNKSt3__120__move_backward_loopINS_17_ClassicAlgPolicyEEclB8ue170006IPNS_12basic_stringIcNS_11char_traitsIcEENS_9allocatorIcEEEESA_SA_EENS_4pairIT_T1_EESC_T0_SD_, symObjAddr: 0x7FBC, symBinAddr: 0x10004350C, symSize: 0x8C }
  - { offsetInCU: 0x5ACBA, offset: 0x33D3A8, size: 0x8, addend: 0x0, symName: __ZNKSt3__111__move_loopINS_17_ClassicAlgPolicyEEclB8ue170006IPNS_12basic_stringIcNS_11char_traitsIcEENS_9allocatorIcEEEESA_SA_EENS_4pairIT_T1_EESC_T0_SD_, symObjAddr: 0x80A0, symBinAddr: 0x100043598, symSize: 0x70 }
  - { offsetInCU: 0x5AF76, offset: 0x33D664, size: 0x8, addend: 0x0, symName: __ZNSt3__128__exception_guard_exceptionsINS_29_AllocatorDestroyRangeReverseINS_9allocatorINS_12basic_stringIcNS_11char_traitsIcEENS2_IcEEEEEENS_16reverse_iteratorIPS7_EEEEED2B8ue170006Ev, symObjAddr: 0x8228, symBinAddr: 0x100043720, symSize: 0x34 }
  - { offsetInCU: 0x5B016, offset: 0x33D704, size: 0x8, addend: 0x0, symName: __ZNKSt3__129_AllocatorDestroyRangeReverseINS_9allocatorINS_12basic_stringIcNS_11char_traitsIcEENS1_IcEEEEEENS_16reverse_iteratorIPS6_EEEclB8ue170006Ev, symObjAddr: 0x825C, symBinAddr: 0x100043754, symSize: 0x44 }
  - { offsetInCU: 0x5B413, offset: 0x33DB01, size: 0x8, addend: 0x0, symName: __ZNSt3__114__split_bufferINS_12basic_stringIcNS_11char_traitsIcEENS_9allocatorIcEEEERNS4_IS6_EEE17__destruct_at_endB8ue170006EPS6_, symObjAddr: 0x8354, symBinAddr: 0x1000437CC, symSize: 0x54 }
  - { offsetInCU: 0x5B73C, offset: 0x33DE2A, size: 0x8, addend: 0x0, symName: __ZNSt3__16__treeINS_12__value_typeI19PredicateIdentifierP16DatalogPredicateEENS_19__map_value_compareIS2_S5_NS_4lessIS2_EELb1EEENS_9allocatorIS5_EEE12__find_equalIS2_EERPNS_16__tree_node_baseIPvEERPNS_15__tree_end_nodeISH_EERKT_, symObjAddr: 0x84D0, symBinAddr: 0x1000438B4, symSize: 0x90 }
  - { offsetInCU: 0x5B8C7, offset: 0x33DFB5, size: 0x8, addend: 0x0, symName: __ZNSt3__16__treeINS_12__value_typeI19PredicateIdentifierP16DatalogPredicateEENS_19__map_value_compareIS2_S5_NS_4lessIS2_EELb1EEENS_9allocatorIS5_EEE16__construct_nodeIJRKNS_21piecewise_construct_tENS_5tupleIJRKS2_EEENSH_IJEEEEEENS_10unique_ptrINS_11__tree_nodeIS5_PvEENS_22__tree_node_destructorINSA_ISP_EEEEEEDpOT_, symObjAddr: 0x8560, symBinAddr: 0x100043944, symSize: 0x80 }
  - { offsetInCU: 0x5BBAD, offset: 0x33E29B, size: 0x8, addend: 0x0, symName: __ZNSt3__16__treeINS_12__value_typeI19PredicateIdentifierP16DatalogPredicateEENS_19__map_value_compareIS2_S5_NS_4lessIS2_EELb1EEENS_9allocatorIS5_EEE16__insert_node_atEPNS_15__tree_end_nodeIPNS_16__tree_node_baseIPvEEEERSH_SH_, symObjAddr: 0x85E0, symBinAddr: 0x1000439C4, symSize: 0x54 }
  - { offsetInCU: 0x5BCA8, offset: 0x33E396, size: 0x8, addend: 0x0, symName: __ZNK19PredicateIdentifierltERKS_, symObjAddr: 0x8634, symBinAddr: 0x100043A18, symSize: 0x15C }
  - { offsetInCU: 0x5CA86, offset: 0x33F174, size: 0x8, addend: 0x0, symName: __ZNSt3__14pairIK19PredicateIdentifierP16DatalogPredicateEC1B8ue170006IJRS2_EJEEENS_21piecewise_construct_tENS_5tupleIJDpT_EEENS9_IJDpT0_EEE, symObjAddr: 0x8804, symBinAddr: 0x100043B74, symSize: 0x58 }
  - { offsetInCU: 0x5CBDA, offset: 0x33F2C8, size: 0x8, addend: 0x0, symName: __ZNSt3__122__tree_node_destructorINS_9allocatorINS_11__tree_nodeINS_12__value_typeI19PredicateIdentifierP16DatalogPredicateEEPvEEEEEclB8ue170006EPS9_, symObjAddr: 0x885C, symBinAddr: 0x100043BCC, symSize: 0x4C }
  - { offsetInCU: 0x5D0EC, offset: 0x33F7DA, size: 0x8, addend: 0x0, symName: __ZN16DatalogPredicateC2ENSt3__112basic_stringIcNS0_11char_traitsIcEENS0_9allocatorIcEEEEm, symObjAddr: 0x8B68, symBinAddr: 0x100043ED8, symSize: 0x26C }
  - { offsetInCU: 0x5DFF4, offset: 0x3406E2, size: 0x8, addend: 0x0, symName: __ZN4Parm5valueEi, symObjAddr: 0x9284, symBinAddr: 0x1000444C8, symSize: 0x54 }
  - { offsetInCU: 0x60E86, offset: 0x343574, size: 0x8, addend: 0x0, symName: __ZN8AST_nodeD2Ev, symObjAddr: 0x16594, symBinAddr: 0x100044690, symSize: 0x60 }
  - { offsetInCU: 0x61EF1, offset: 0x3445DF, size: 0x8, addend: 0x0, symName: __ZNKSt3__115basic_stringbufIcNS_11char_traitsIcEENS_9allocatorIcEEE4viewB8ue170006Ev, symObjAddr: 0x174B0, symBinAddr: 0x10004477C, symSize: 0x4C }
  - { offsetInCU: 0x623B1, offset: 0x344A9F, size: 0x8, addend: 0x0, symName: __ZNSt3__112__tuple_implINS_15__tuple_indicesIJLm0ELm1ELm2EEEEJNS_10unique_ptrINS_15__thread_structENS_14default_deleteIS4_EEEEPFbNS_12basic_stringIcNS_11char_traitsIcEENS_9allocatorIcEEEEESD_EEC2B8ue170006IJLm0ELm1ELm2EEJS7_SF_SD_EJEJEJS7_RSE_RSD_EEENS1_IJXspT_EEEENS_13__tuple_typesIJDpT0_EEENS1_IJXspT1_EEEENSL_IJDpT2_EEEDpOT3_, symObjAddr: 0x176D0, symBinAddr: 0x10004499C, symSize: 0x68 }
  - { offsetInCU: 0x62712, offset: 0x344E00, size: 0x8, addend: 0x0, symName: __ZNKSt3__114default_deleteINS_5tupleIJNS_10unique_ptrINS_15__thread_structENS0_IS3_EEEEPFbNS_12basic_stringIcNS_11char_traitsIcEENS_9allocatorIcEEEEESB_EEEEclB8ue170006EPSE_, symObjAddr: 0x17738, symBinAddr: 0x100044A04, symSize: 0x44 }
  - { offsetInCU: 0x62CD0, offset: 0x3453BE, size: 0x8, addend: 0x0, symName: __ZNSt3__110unique_ptrINS_15__thread_structENS_14default_deleteIS1_EEE5resetB8ue170006EPS1_, symObjAddr: 0x1777C, symBinAddr: 0x100044A48, symSize: 0x2C }
  - { offsetInCU: 0x40, offset: 0x3455DD, size: 0x8, addend: 0x0, symName: __ZL14__local_player, symObjAddr: 0x221388, symBinAddr: 0x100458360, symSize: 0x0 }
  - { offsetInCU: 0x115C1, offset: 0x356B5E, size: 0x8, addend: 0x0, symName: __ZNSt3__121__unwrap_and_dispatchB8ue170006INS_10__overloadINS_11__move_loopINS_17_ClassicAlgPolicyEEENS_14__move_trivialEEEP6PLAYERS8_S8_Li0EEENS_4pairIT0_T2_EESA_T1_SB_, symObjAddr: 0x6318, symBinAddr: 0x10004B000, symSize: 0x5C }
  - { offsetInCU: 0x116A4, offset: 0x356C41, size: 0x8, addend: 0x0, symName: __ZNSt3__112__destroy_atB8ue170006I6PLAYERLi0EEEvPT_, symObjAddr: 0x5B74, symBinAddr: 0x10004AA44, symSize: 0x74 }
  - { offsetInCU: 0x121C0, offset: 0x35775D, size: 0x8, addend: 0x0, symName: __ZNSt3__119__allocate_at_leastB8ue170006INS_9allocatorI6PLAYEREEEENS_19__allocation_resultINS_16allocator_traitsIT_E7pointerEEERS6_m, symObjAddr: 0x61B4, symBinAddr: 0x10004AE9C, symSize: 0x44 }
  - { offsetInCU: 0x12268, offset: 0x357805, size: 0x8, addend: 0x0, symName: __ZNSt3__142__uninitialized_allocator_move_if_noexceptB8ue170006INS_9allocatorI6PLAYEREENS_16reverse_iteratorIPS2_EES6_S6_EET2_RT_T0_T1_S7_, symObjAddr: 0x61F8, symBinAddr: 0x10004AEE0, symSize: 0xD4 }
  - { offsetInCU: 0x122C2, offset: 0x35785F, size: 0x8, addend: 0x0, symName: __ZNSt3__142__uninitialized_allocator_move_if_noexceptB8ue170006INS_9allocatorI6PLAYEREENS_16reverse_iteratorIPS2_EES6_S6_EET2_RT_T0_T1_S7_, symObjAddr: 0x61F8, symBinAddr: 0x10004AEE0, symSize: 0xD4 }
  - { offsetInCU: 0x18073, offset: 0x35D610, size: 0x8, addend: 0x0, symName: _local_player, symObjAddr: 0x18F70, symBinAddr: 0x10031C950, symSize: 0x0 }
  - { offsetInCU: 0x1808C, offset: 0x35D629, size: 0x8, addend: 0x0, symName: __ZL14__other_player, symObjAddr: 0x221478, symBinAddr: 0x100458450, symSize: 0x0 }
  - { offsetInCU: 0x180D1, offset: 0x35D66E, size: 0x8, addend: 0x0, symName: _other_player, symObjAddr: 0x18F78, symBinAddr: 0x10031C958, symSize: 0x0 }
  - { offsetInCU: 0x180EB, offset: 0x35D688, size: 0x8, addend: 0x0, symName: _g_view, symObjAddr: 0x221530, symBinAddr: 0x100326D90, symSize: 0x0 }
  - { offsetInCU: 0x1AEC0, offset: 0x36045D, size: 0x8, addend: 0x0, symName: _gdbt_players, symObjAddr: 0x221538, symBinAddr: 0x100326D98, symSize: 0x0 }
  - { offsetInCU: 0x1C567, offset: 0x361B04, size: 0x8, addend: 0x0, symName: __ZN8nlohmann16json_abi_v3_11_26detail9from_jsonINS0_10basic_jsonINSt3__13mapENS4_6vectorENS4_12basic_stringIcNS4_11char_traitsIcEENS4_9allocatorIcEEEEbxydSA_NS0_14adl_serializerENS6_IhNSA_IhEEEEvEEtLi0EEEvRKT_RT0_, symObjAddr: 0x11F1C, symBinAddr: 0x10004BD44, symSize: 0x110 }
  - { offsetInCU: 0x20FF1, offset: 0x36658E, size: 0x8, addend: 0x0, symName: __ZN8nlohmann16json_abi_v3_11_26detail9from_jsonINS0_10basic_jsonINSt3__13mapENS4_6vectorENS4_12basic_stringIcNS4_11char_traitsIcEENS4_9allocatorIcEEEEbxydSA_NS0_14adl_serializerENS6_IhNSA_IhEEEEvEEiLi0EEEvRKT_RT0_, symObjAddr: 0x14DE8, symBinAddr: 0x10004C6F8, symSize: 0x110 }
  - { offsetInCU: 0x23AAF, offset: 0x36904C, size: 0x8, addend: 0x0, symName: __ZNSt3__16vectorI6PLAYERNS_9allocatorIS1_EEE26__swap_out_circular_bufferERNS_14__split_bufferIS1_RS3_EE, symObjAddr: 0x612C, symBinAddr: 0x10004AE14, symSize: 0x74 }
  - { offsetInCU: 0x25BDE, offset: 0x36B17B, size: 0x8, addend: 0x0, symName: __ZN12LOCAL_PLAYERD1Ev, symObjAddr: 0x0, symBinAddr: 0x100044F8C, symSize: 0x4 }
  - { offsetInCU: 0x25C0D, offset: 0x36B1AA, size: 0x8, addend: 0x0, symName: __ZN12LOCAL_PLAYERD1Ev, symObjAddr: 0x0, symBinAddr: 0x100044F8C, symSize: 0x4 }
  - { offsetInCU: 0x25C20, offset: 0x36B1BD, size: 0x8, addend: 0x0, symName: __ZN12LOCAL_PLAYERD2Ev, symObjAddr: 0x5A68, symBinAddr: 0x10004A944, symSize: 0x90 }
  - { offsetInCU: 0x266C7, offset: 0x36BC64, size: 0x8, addend: 0x0, symName: __ZN12OTHER_PLAYERD1Ev, symObjAddr: 0x4, symBinAddr: 0x100044F90, symSize: 0x70 }
  - { offsetInCU: 0x26E5C, offset: 0x36C3F9, size: 0x8, addend: 0x0, symName: __ZN12GDBT_PLAYERSD1Ev, symObjAddr: 0x74, symBinAddr: 0x100045000, symSize: 0x48 }
  - { offsetInCU: 0x26F4A, offset: 0x36C4E7, size: 0x8, addend: 0x0, symName: __ZNSt3__16vectorI6PLAYERNS_9allocatorIS1_EEE16__destroy_vectorclB8ue170006Ev, symObjAddr: 0x5B04, symBinAddr: 0x10004A9D4, symSize: 0x70 }
  - { offsetInCU: 0x272B1, offset: 0x36C84E, size: 0x8, addend: 0x0, symName: __ZN12GDBT_PLAYERS13GetPlayerNameERKNSt3__112basic_stringIcNS0_11char_traitsIcEENS0_9allocatorIcEEEERS6_i, symObjAddr: 0xBC, symBinAddr: 0x100045048, symSize: 0x138 }
  - { offsetInCU: 0x2767F, offset: 0x36CC1C, size: 0x8, addend: 0x0, symName: __ZN12GDBT_PLAYERS3GetERKNSt3__112basic_stringIcNS0_11char_traitsIcEENS0_9allocatorIcEEEE, symObjAddr: 0x378, symBinAddr: 0x100045304, symSize: 0x84 }
  - { offsetInCU: 0x27857, offset: 0x36CDF4, size: 0x8, addend: 0x0, symName: __ZN12GDBT_PLAYERS13GetNextByViewENSt3__112basic_stringIcNS0_11char_traitsIcEENS0_9allocatorIcEEEEPi, symObjAddr: 0x1F4, symBinAddr: 0x100045180, symSize: 0x184 }
  - { offsetInCU: 0x27DCC, offset: 0x36D369, size: 0x8, addend: 0x0, symName: __ZN6PLAYERC2ENSt3__112basic_stringIcNS0_11char_traitsIcEENS0_9allocatorIcEEEE, symObjAddr: 0x5DD0, symBinAddr: 0x10004AAB8, symSize: 0xA0 }
  - { offsetInCU: 0x27DF2, offset: 0x36D38F, size: 0x8, addend: 0x0, symName: __ZN12GDBT_PLAYERS9GetByNameEPc, symObjAddr: 0x3FC, symBinAddr: 0x100045388, symSize: 0x80 }
  - { offsetInCU: 0x27F0F, offset: 0x36D4AC, size: 0x8, addend: 0x0, symName: __ZN12GDBT_PLAYERS13GetByTouchingENSt3__112basic_stringIcNS0_11char_traitsIcEENS0_9allocatorIcEEEE5POINT, symObjAddr: 0x47C, symBinAddr: 0x100045408, symSize: 0x17C }
  - { offsetInCU: 0x28512, offset: 0x36DAAF, size: 0x8, addend: 0x0, symName: __ZN12GDBT_PLAYERS12SendIntimateERKNSt3__112basic_stringIcNS0_11char_traitsIcEENS0_9allocatorIcEEEEb, symObjAddr: 0x5F8, symBinAddr: 0x100045584, symSize: 0x16C }
  - { offsetInCU: 0x28F29, offset: 0x36E4C6, size: 0x8, addend: 0x0, symName: __ZN7FREQOUT7to_jsonEv, symObjAddr: 0x6548, symBinAddr: 0x10004B190, symSize: 0x4A4 }
  - { offsetInCU: 0x28F92, offset: 0x36E52F, size: 0x8, addend: 0x0, symName: __ZN16SET_INTIMATE_PKT7to_jsonEv, symObjAddr: 0x39C4, symBinAddr: 0x1000488A0, symSize: 0xA8 }
  - { offsetInCU: 0x298DE, offset: 0x36EE7B, size: 0x8, addend: 0x0, symName: __ZN12GDBT_PLAYERS9AddPlayerERKNSt3__112basic_stringIcNS0_11char_traitsIcEENS0_9allocatorIcEEEES8_b, symObjAddr: 0x764, symBinAddr: 0x1000456F0, symSize: 0x204 }
  - { offsetInCU: 0x2A729, offset: 0x36FCC6, size: 0x8, addend: 0x0, symName: __ZN6PLAYERC2ENSt3__112basic_stringIcNS0_11char_traitsIcEENS0_9allocatorIcEEEE, symObjAddr: 0x5DD0, symBinAddr: 0x10004AAB8, symSize: 0xA0 }
  - { offsetInCU: 0x2AACE, offset: 0x37006B, size: 0x8, addend: 0x0, symName: __ZNSt3__16vectorI6PLAYERNS_9allocatorIS1_EEE9push_backB8ue170006ERKS1_, symObjAddr: 0x5E70, symBinAddr: 0x10004AB58, symSize: 0x118 }
  - { offsetInCU: 0x2AEE6, offset: 0x370483, size: 0x8, addend: 0x0, symName: __ZN6PLAYERD1Ev, symObjAddr: 0xA10, symBinAddr: 0x1000458F4, symSize: 0x70 }
  - { offsetInCU: 0x2B62A, offset: 0x370BC7, size: 0x8, addend: 0x0, symName: __ZN12GDBT_PLAYERS9DelPlayerERKNSt3__112basic_stringIcNS0_11char_traitsIcEENS0_9allocatorIcEEEE, symObjAddr: 0xA80, symBinAddr: 0x100045964, symSize: 0x178 }
  - { offsetInCU: 0x2BCFB, offset: 0x371298, size: 0x8, addend: 0x0, symName: __ZN12GDBT_PLAYERS6DeleteERKNSt3__112basic_stringIcNS0_11char_traitsIcEENS0_9allocatorIcEEEE, symObjAddr: 0xBF8, symBinAddr: 0x100045ADC, symSize: 0xF0 }
  - { offsetInCU: 0x2C315, offset: 0x3718B2, size: 0x8, addend: 0x0, symName: __ZN12GDBT_PLAYERS15SendStartupInfoERKNSt3__112basic_stringIcNS0_11char_traitsIcEENS0_9allocatorIcEEEEb, symObjAddr: 0xCE8, symBinAddr: 0x100045BCC, symSize: 0x378 }
  - { offsetInCU: 0x2D9D2, offset: 0x372F6F, size: 0x8, addend: 0x0, symName: __ZN11StartupInfo7to_jsonEv, symObjAddr: 0x1060, symBinAddr: 0x100045F44, symSize: 0x810 }
  - { offsetInCU: 0x3267F, offset: 0x377C1C, size: 0x8, addend: 0x0, symName: __ZN11StartupInfoD1Ev, symObjAddr: 0x1870, symBinAddr: 0x100046754, symSize: 0x70 }
  - { offsetInCU: 0x32DC3, offset: 0x378360, size: 0x8, addend: 0x0, symName: __ZN7FREQOUT7to_jsonEv, symObjAddr: 0x6548, symBinAddr: 0x10004B190, symSize: 0x4A4 }
  - { offsetInCU: 0x35F28, offset: 0x37B4C5, size: 0x8, addend: 0x0, symName: __ZN12GDBT_PLAYERS13ReceiveUpdateERKNSt3__112basic_stringIcNS0_11char_traitsIcEENS0_9allocatorIcEEEES8_R9XPLAY_PKT, symObjAddr: 0x18E0, symBinAddr: 0x1000467C4, symSize: 0xB88 }
  - { offsetInCU: 0x39631, offset: 0x37EBCE, size: 0x8, addend: 0x0, symName: __ZN11DETAILS_PKTC2ERKNSt3__112basic_stringIcNS0_11char_traitsIcEENS0_9allocatorIcEEEE, symObjAddr: 0x14EF8, symBinAddr: 0x10004C808, symSize: 0x214 }
  - { offsetInCU: 0x39F0E, offset: 0x37F4AB, size: 0x8, addend: 0x0, symName: __ZN7POS_PKTC2ERKNSt3__112basic_stringIcNS0_11char_traitsIcEENS0_9allocatorIcEEEE, symObjAddr: 0x14C0C, symBinAddr: 0x10004C51C, symSize: 0x1DC }
  - { offsetInCU: 0x3A5B4, offset: 0x37FB51, size: 0x8, addend: 0x0, symName: __ZN6PLAYER8MoveHandEv, symObjAddr: 0x279C, symBinAddr: 0x100047678, symSize: 0xB4 }
  - { offsetInCU: 0x3A8E9, offset: 0x37FE86, size: 0x8, addend: 0x0, symName: __ZN16SET_INTIMATE_PKTC2ERKNSt3__112basic_stringIcNS0_11char_traitsIcEENS0_9allocatorIcEEEE, symObjAddr: 0x152D4, symBinAddr: 0x10004CBE4, symSize: 0x188 }
  - { offsetInCU: 0x3AD3C, offset: 0x3802D9, size: 0x8, addend: 0x0, symName: __ZN12LOCAL_PLAYER19SendIntimateDetailsERKNSt3__112basic_stringIcNS0_11char_traitsIcEENS0_9allocatorIcEEEE, symObjAddr: 0x2850, symBinAddr: 0x10004772C, symSize: 0x128 }
  - { offsetInCU: 0x3B70F, offset: 0x380CAC, size: 0x8, addend: 0x0, symName: __ZN20INTIMATE_DETAILS_PKTC2ERKNSt3__112basic_stringIcNS0_11char_traitsIcEENS0_9allocatorIcEEEE, symObjAddr: 0x1545C, symBinAddr: 0x10004CD6C, symSize: 0x60 }
  - { offsetInCU: 0x3B8E4, offset: 0x380E81, size: 0x8, addend: 0x0, symName: __ZN9EMOTE_PKTC2ERKNSt3__112basic_stringIcNS0_11char_traitsIcEENS0_9allocatorIcEEEE, symObjAddr: 0x15818, symBinAddr: 0x10004D128, symSize: 0x1C8 }
  - { offsetInCU: 0x3BFF5, offset: 0x381592, size: 0x8, addend: 0x0, symName: __ZN11StartupInfoC2ERKNSt3__112basic_stringIcNS0_11char_traitsIcEENS0_9allocatorIcEEEE, symObjAddr: 0x69EC, symBinAddr: 0x10004B634, symSize: 0x3F8 }
  - { offsetInCU: 0x3D69A, offset: 0x382C37, size: 0x8, addend: 0x0, symName: __ZN13ADDPLAYER_PKTC2ERKNSt3__112basic_stringIcNS0_11char_traitsIcEENS0_9allocatorIcEEEE, symObjAddr: 0x14544, symBinAddr: 0x10004BE54, symSize: 0x84 }
  - { offsetInCU: 0x3D8A8, offset: 0x382E45, size: 0x8, addend: 0x0, symName: __ZN11SETVIEW_PKTC2ERKNSt3__112basic_stringIcNS0_11char_traitsIcEENS0_9allocatorIcEEEE, symObjAddr: 0x149F8, symBinAddr: 0x10004C308, symSize: 0x214 }
  - { offsetInCU: 0x3E185, offset: 0x383722, size: 0x8, addend: 0x0, symName: __ZN14SET_OBJECT_PKTC2ERKNSt3__112basic_stringIcNS0_11char_traitsIcEENS0_9allocatorIcEEEE, symObjAddr: 0x1510C, symBinAddr: 0x10004CA1C, symSize: 0x1C8 }
  - { offsetInCU: 0x3E896, offset: 0x383E33, size: 0x8, addend: 0x0, symName: __ZN6PLAYER7SetViewENSt3__112basic_stringIcNS0_11char_traitsIcEENS0_9allocatorIcEEEE, symObjAddr: 0x2468, symBinAddr: 0x10004734C, symSize: 0x2D0 }
  - { offsetInCU: 0x3F349, offset: 0x3848E6, size: 0x8, addend: 0x0, symName: __ZN13ADDPLAYER_PKTD1Ev, symObjAddr: 0x2738, symBinAddr: 0x10004761C, symSize: 0x5C }
  - { offsetInCU: 0x3F732, offset: 0x384CCF, size: 0x8, addend: 0x0, symName: __ZN12LOCAL_PLAYER11SendDetailsERKNSt3__112basic_stringIcNS0_11char_traitsIcEENS0_9allocatorIcEEEEt, symObjAddr: 0x2978, symBinAddr: 0x100047854, symSize: 0x108 }
  - { offsetInCU: 0x40036, offset: 0x3855D3, size: 0x8, addend: 0x0, symName: __ZN15INTIMATE_PLAYER13SetDetailsPktER20INTIMATE_DETAILS_PKT, symObjAddr: 0x3ACC, symBinAddr: 0x1000489A8, symSize: 0x6C }
  - { offsetInCU: 0x40070, offset: 0x38560D, size: 0x8, addend: 0x0, symName: __ZN20INTIMATE_DETAILS_PKT7to_jsonEv, symObjAddr: 0x3CEC, symBinAddr: 0x100048BC8, symSize: 0xA04 }
  - { offsetInCU: 0x463F1, offset: 0x38B98E, size: 0x8, addend: 0x0, symName: __ZN11DETAILS_PKT7to_jsonEv, symObjAddr: 0x37A4, symBinAddr: 0x100048680, symSize: 0x220 }
  - { offsetInCU: 0x47778, offset: 0x38CD15, size: 0x8, addend: 0x0, symName: __ZN12LOCAL_PLAYER8SendViewERKNSt3__112basic_stringIcNS0_11char_traitsIcEENS0_9allocatorIcEEEEt, symObjAddr: 0x2A80, symBinAddr: 0x10004795C, symSize: 0x10C }
  - { offsetInCU: 0x480A0, offset: 0x38D63D, size: 0x8, addend: 0x0, symName: __ZN11SETVIEW_PKT7to_jsonEv, symObjAddr: 0x2B8C, symBinAddr: 0x100047A68, symSize: 0x220 }
  - { offsetInCU: 0x493BB, offset: 0x38E958, size: 0x8, addend: 0x0, symName: __ZN12LOCAL_PLAYER7SetViewENSt3__112basic_stringIcNS0_11char_traitsIcEENS0_9allocatorIcEEEE, symObjAddr: 0x2DAC, symBinAddr: 0x100047C88, symSize: 0x27C }
  - { offsetInCU: 0x4A136, offset: 0x38F6D3, size: 0x8, addend: 0x0, symName: __ZN12LOCAL_PLAYER9SetOffsetE5POINT, symObjAddr: 0x3028, symBinAddr: 0x100047F04, symSize: 0x14C }
  - { offsetInCU: 0x4A646, offset: 0x38FBE3, size: 0x8, addend: 0x0, symName: __ZN12LOCAL_PLAYER6SetPosE5POINT, symObjAddr: 0x3174, symBinAddr: 0x100048050, symSize: 0x1C }
  - { offsetInCU: 0x4A66F, offset: 0x38FC0C, size: 0x8, addend: 0x0, symName: __ZN12LOCAL_PLAYER7SetNameERKNSt3__112basic_stringIcNS0_11char_traitsIcEENS0_9allocatorIcEEEE, symObjAddr: 0x3190, symBinAddr: 0x10004806C, symSize: 0xE8 }
  - { offsetInCU: 0x4AA86, offset: 0x390023, size: 0x8, addend: 0x0, symName: __ZN12LOCAL_PLAYER7ReflectEv, symObjAddr: 0x3278, symBinAddr: 0x100048154, symSize: 0x144 }
  - { offsetInCU: 0x4B2F4, offset: 0x390891, size: 0x8, addend: 0x0, symName: __ZN7POS_PKT7to_jsonEv, symObjAddr: 0x33BC, symBinAddr: 0x100048298, symSize: 0x274 }
  - { offsetInCU: 0x4CA4D, offset: 0x391FEA, size: 0x8, addend: 0x0, symName: __ZN12LOCAL_PLAYER9SetObjectENSt3__112basic_stringIcNS0_11char_traitsIcEENS0_9allocatorIcEEEE, symObjAddr: 0x3630, symBinAddr: 0x10004850C, symSize: 0x174 }
  - { offsetInCU: 0x4D94E, offset: 0x392EEB, size: 0x8, addend: 0x0, symName: __ZN14SET_OBJECT_PKT7to_jsonEv, symObjAddr: 0x159E0, symBinAddr: 0x10004D2F0, symSize: 0x90 }
  - { offsetInCU: 0x4DCA7, offset: 0x393244, size: 0x8, addend: 0x0, symName: __ZN15INTIMATE_PLAYER13GetDetailsPktER20INTIMATE_DETAILS_PKT, symObjAddr: 0x3A6C, symBinAddr: 0x100048948, symSize: 0x60 }
  - { offsetInCU: 0x4DD4A, offset: 0x3932E7, size: 0x8, addend: 0x0, symName: __ZN12LOCAL_PLAYER9SendEmoteENSt3__112basic_stringIcNS0_11char_traitsIcEENS0_9allocatorIcEEEE, symObjAddr: 0x3B38, symBinAddr: 0x100048A14, symSize: 0x124 }
  - { offsetInCU: 0x4E91D, offset: 0x393EBA, size: 0x8, addend: 0x0, symName: __ZN9EMOTE_PKT7to_jsonEv, symObjAddr: 0x3C5C, symBinAddr: 0x100048B38, symSize: 0x90 }
  - { offsetInCU: 0x4EC76, offset: 0x394213, size: 0x8, addend: 0x0, symName: __ZN12LOCAL_PLAYER4SaveERKNSt3__112basic_stringIcNS0_11char_traitsIcEENS0_9allocatorIcEEEE, symObjAddr: 0x46F0, symBinAddr: 0x1000495CC, symSize: 0xCD0 }
  - { offsetInCU: 0x56A6C, offset: 0x39C009, size: 0x8, addend: 0x0, symName: __ZN12LOCAL_PLAYER4LoadERKNSt3__112basic_stringIcNS0_11char_traitsIcEENS0_9allocatorIcEEEE, symObjAddr: 0x53C0, symBinAddr: 0x10004A29C, symSize: 0x378 }
  - { offsetInCU: 0x57E00, offset: 0x39D39D, size: 0x8, addend: 0x0, symName: __ZN12LOCAL_PLAYER8WriteEnvENSt3__112basic_stringIcNS0_11char_traitsIcEENS0_9allocatorIcEEEES6_, symObjAddr: 0x5738, symBinAddr: 0x10004A614, symSize: 0x2A4 }
  - { offsetInCU: 0x592F0, offset: 0x39E88D, size: 0x8, addend: 0x0, symName: __ZN15INTIMATE_PLAYERC2Ev, symObjAddr: 0x59DC, symBinAddr: 0x10004A8B8, symSize: 0x8C }
  - { offsetInCU: 0x59B8D, offset: 0x39F12A, size: 0x8, addend: 0x0, symName: __ZN6PLAYERC2ERKS_, symObjAddr: 0x5F88, symBinAddr: 0x10004AC70, symSize: 0x1A4 }
  - { offsetInCU: 0x5A38D, offset: 0x39F92A, size: 0x8, addend: 0x0, symName: __ZNSt3__114__split_bufferI6PLAYERRNS_9allocatorIS1_EEED2Ev, symObjAddr: 0x62CC, symBinAddr: 0x10004AFB4, symSize: 0x4C }
  - { offsetInCU: 0x5A52A, offset: 0x39FAC7, size: 0x8, addend: 0x0, symName: __ZNKSt3__16vectorI6PLAYERNS_9allocatorIS1_EEE20__throw_length_errorB8ue170006Ev, symObjAddr: 0x61A0, symBinAddr: 0x10004AE88, symSize: 0x14 }
  - { offsetInCU: 0x5A554, offset: 0x39FAF1, size: 0x8, addend: 0x0, symName: __ZNSt3__119__allocate_at_leastB8ue170006INS_9allocatorI6PLAYEREEEENS_19__allocation_resultINS_16allocator_traitsIT_E7pointerEEERS6_m, symObjAddr: 0x61B4, symBinAddr: 0x10004AE9C, symSize: 0x44 }
  - { offsetInCU: 0x5A74E, offset: 0x39FCEB, size: 0x8, addend: 0x0, symName: __ZN6PLAYERaSEOS_, symObjAddr: 0x6374, symBinAddr: 0x10004B05C, symSize: 0x134 }
  - { offsetInCU: 0x5B800, offset: 0x3A0D9D, size: 0x8, addend: 0x0, symName: __ZNK8nlohmann16json_abi_v3_11_210basic_jsonINSt3__13mapENS2_6vectorENS2_12basic_stringIcNS2_11char_traitsIcEENS2_9allocatorIcEEEEbxydS8_NS0_14adl_serializerENS4_IhNS8_IhEEEEvE8get_implIbLi0EEET_NS0_6detail12priority_tagILj0EEE, symObjAddr: 0x11ADC, symBinAddr: 0x10004BC10, symSize: 0x134 }
  - { offsetInCU: 0x5C374, offset: 0x3A1911, size: 0x8, addend: 0x0, symName: __ZN7FREQOUT9from_jsonERKNSt3__112basic_stringIcNS0_11char_traitsIcEENS0_9allocatorIcEEEE, symObjAddr: 0x71B4, symBinAddr: 0x10004BA2C, symSize: 0x1E4 }
  - { offsetInCU: 0x7974A, offset: 0x3BECE7, size: 0x8, addend: 0x0, symName: __ZN13ADDPLAYER_PKT9from_jsonERKNSt3__112basic_stringIcNS0_11char_traitsIcEENS0_9allocatorIcEEEE, symObjAddr: 0x145C8, symBinAddr: 0x10004BED8, symSize: 0x228 }
  - { offsetInCU: 0x7A022, offset: 0x3BF5BF, size: 0x8, addend: 0x0, symName: __ZN13ADDPLAYER_PKTC2ERKNSt3__112basic_stringIcNS0_11char_traitsIcEENS0_9allocatorIcEEEE.cold.1, symObjAddr: 0x1687C, symBinAddr: 0x10024F780, symSize: 0x48 }
  - { offsetInCU: 0x7A10A, offset: 0x3BF6A7, size: 0x8, addend: 0x0, symName: __ZN13ADDPLAYER_PKT7to_jsonEv, symObjAddr: 0x147F0, symBinAddr: 0x10004C100, symSize: 0x208 }
  - { offsetInCU: 0x7B341, offset: 0x3C08DE, size: 0x8, addend: 0x0, symName: __ZN20INTIMATE_DETAILS_PKT9from_jsonERKNSt3__112basic_stringIcNS0_11char_traitsIcEENS0_9allocatorIcEEEE, symObjAddr: 0x154BC, symBinAddr: 0x10004CDCC, symSize: 0x35C }
  - { offsetInCU: 0x26, offset: 0x3C1869, size: 0x8, addend: 0x0, symName: __ZN10SCROLLVIEWC2Ei, symObjAddr: 0x0, symBinAddr: 0x10004D42C, symSize: 0x10C }
  - { offsetInCU: 0x11B8C, offset: 0x3D33CF, size: 0x8, addend: 0x0, symName: __ZN10SCROLLVIEWC2Ei, symObjAddr: 0x0, symBinAddr: 0x10004D42C, symSize: 0x10C }
  - { offsetInCU: 0x11DD0, offset: 0x3D3613, size: 0x8, addend: 0x0, symName: __ZN10SCROLLVIEWC1Ei, symObjAddr: 0x10C, symBinAddr: 0x10004D538, symSize: 0x4 }
  - { offsetInCU: 0x11E0C, offset: 0x3D364F, size: 0x8, addend: 0x0, symName: __ZN10SCROLLVIEWC1Ei, symObjAddr: 0x10C, symBinAddr: 0x10004D538, symSize: 0x4 }
  - { offsetInCU: 0x11E6F, offset: 0x3D36B2, size: 0x8, addend: 0x0, symName: __ZN10SCROLLVIEW7SlewRelEll, symObjAddr: 0x110, symBinAddr: 0x10004D53C, symSize: 0xBC }
  - { offsetInCU: 0x11EFE, offset: 0x3D3741, size: 0x8, addend: 0x0, symName: __ZN10SCROLLVIEW6SlewToEtt, symObjAddr: 0x1CC, symBinAddr: 0x10004D5F8, symSize: 0x50 }
  - { offsetInCU: 0x11F51, offset: 0x3D3794, size: 0x8, addend: 0x0, symName: __ZN10SCROLLVIEW6ActionEii, symObjAddr: 0x21C, symBinAddr: 0x10004D648, symSize: 0x15C }
  - { offsetInCU: 0x11FDA, offset: 0x3D381D, size: 0x8, addend: 0x0, symName: __ZN10SCROLLVIEW11QueryCursorE4RECT, symObjAddr: 0x378, symBinAddr: 0x10004D7A4, symSize: 0x12C }
  - { offsetInCU: 0x120D5, offset: 0x3D3918, size: 0x8, addend: 0x0, symName: __ZN10SCROLLVIEW6KeycmdEii, symObjAddr: 0x4A4, symBinAddr: 0x10004D8D0, symSize: 0xC0 }
  - { offsetInCU: 0x12138, offset: 0x3D397B, size: 0x8, addend: 0x0, symName: __ZN10SCROLLVIEWD1Ev, symObjAddr: 0x564, symBinAddr: 0x10004D990, symSize: 0x4 }
  - { offsetInCU: 0x1215C, offset: 0x3D399F, size: 0x8, addend: 0x0, symName: __ZN10SCROLLVIEWD1Ev, symObjAddr: 0x564, symBinAddr: 0x10004D990, symSize: 0x4 }
  - { offsetInCU: 0x12193, offset: 0x3D39D6, size: 0x8, addend: 0x0, symName: __ZN10SCROLLVIEWD0Ev, symObjAddr: 0x568, symBinAddr: 0x10004D994, symSize: 0x14 }
  - { offsetInCU: 0x26, offset: 0x3D3A62, size: 0x8, addend: 0x0, symName: __Z10dump_factsv, symObjAddr: 0x0, symBinAddr: 0x10004D9A8, symSize: 0xBC }
  - { offsetInCU: 0x3F, offset: 0x3D3A7B, size: 0x8, addend: 0x0, symName: _map_ops, symObjAddr: 0x21F48, symBinAddr: 0x100326DC0, symSize: 0x0 }
  - { offsetInCU: 0x3A58, offset: 0x3D7494, size: 0x8, addend: 0x0, symName: _tbl_object_ops, symObjAddr: 0x21F50, symBinAddr: 0x100326DC8, symSize: 0x0 }
  - { offsetInCU: 0x5A1B, offset: 0x3D9457, size: 0x8, addend: 0x0, symName: __Z10dump_factsv, symObjAddr: 0x0, symBinAddr: 0x10004D9A8, symSize: 0xBC }
  - { offsetInCU: 0x6047, offset: 0x3D9A83, size: 0x8, addend: 0x0, symName: __ZN7MAP_OPS4DumpENSt3__112basic_stringIcNS0_11char_traitsIcEENS0_9allocatorIcEEEE, symObjAddr: 0xBC, symBinAddr: 0x10004DA64, symSize: 0x398 }
  - { offsetInCU: 0x7C47, offset: 0x3DB683, size: 0x8, addend: 0x0, symName: __ZN7B_TABLEI9OBJECT_OPNSt3__112basic_stringIcNS1_11char_traitsIcEENS1_9allocatorIcEEEES7_S7_EC2Ei, symObjAddr: 0xC94, symBinAddr: 0x10004E4A0, symSize: 0xB8 }
  - { offsetInCU: 0x7C7F, offset: 0x3DB6BB, size: 0x8, addend: 0x0, symName: __Z10load_factsv, symObjAddr: 0x454, symBinAddr: 0x10004DDFC, symSize: 0xD0 }
  - { offsetInCU: 0x805C, offset: 0x3DBA98, size: 0x8, addend: 0x0, symName: __ZN7MAP_OPS4LoadENSt3__112basic_stringIcNS0_11char_traitsIcEENS0_9allocatorIcEEEE, symObjAddr: 0x524, symBinAddr: 0x10004DECC, symSize: 0x3F8 }
  - { offsetInCU: 0x9707, offset: 0x3DD143, size: 0x8, addend: 0x0, symName: __ZN7B_TABLEI9OBJECT_OPNSt3__112basic_stringIcNS1_11char_traitsIcEENS1_9allocatorIcEEEES7_S7_EC2Ei, symObjAddr: 0xC94, symBinAddr: 0x10004E4A0, symSize: 0xB8 }
  - { offsetInCU: 0x996A, offset: 0x3DD3A6, size: 0x8, addend: 0x0, symName: __ZN7B_TABLEI9OBJECT_OPNSt3__112basic_stringIcNS1_11char_traitsIcEENS1_9allocatorIcEEEES7_S7_E6InsertEPS0_, symObjAddr: 0x91C, symBinAddr: 0x10004E2C4, symSize: 0x18C }
  - { offsetInCU: 0x9FFB, offset: 0x3DDA37, size: 0x8, addend: 0x0, symName: __ZN9OBJECT_OPD1Ev, symObjAddr: 0xAA8, symBinAddr: 0x10004E450, symSize: 0x50 }
  - { offsetInCU: 0xA670, offset: 0x3DE0AC, size: 0x8, addend: 0x0, symName: __ZN7B_TABLEI9OBJECT_OPNSt3__112basic_stringIcNS1_11char_traitsIcEENS1_9allocatorIcEEEES7_S7_E17GetInsertPositionES7_Pi, symObjAddr: 0xE08, symBinAddr: 0x10004E558, symSize: 0xD0 }
  - { offsetInCU: 0x58, offset: 0x3DE5F8, size: 0x8, addend: 0x0, symName: _gamePath, symObjAddr: 0x2D00, symBinAddr: 0x10031C960, symSize: 0x0 }
  - { offsetInCU: 0x6D, offset: 0x3DE60D, size: 0x8, addend: 0x0, symName: _ViewsPath, symObjAddr: 0xAB950, symBinAddr: 0x100326DD0, symSize: 0x0 }
  - { offsetInCU: 0x90, offset: 0x3DE630, size: 0x8, addend: 0x0, symName: _ObjectsPath, symObjAddr: 0xABD50, symBinAddr: 0x1003271D0, symSize: 0x0 }
  - { offsetInCU: 0xA5, offset: 0x3DE645, size: 0x8, addend: 0x0, symName: _PalettesPath, symObjAddr: 0xAC150, symBinAddr: 0x1003275D0, symSize: 0x0 }
  - { offsetInCU: 0xBA, offset: 0x3DE65A, size: 0x8, addend: 0x0, symName: _MasksPath, symObjAddr: 0xAC550, symBinAddr: 0x1003279D0, symSize: 0x0 }
  - { offsetInCU: 0xCF, offset: 0x3DE66F, size: 0x8, addend: 0x0, symName: _EffectsPath, symObjAddr: 0xAC950, symBinAddr: 0x100327DD0, symSize: 0x0 }
  - { offsetInCU: 0xE4, offset: 0x3DE684, size: 0x8, addend: 0x0, symName: _MusicPath, symObjAddr: 0xACD50, symBinAddr: 0x1003281D0, symSize: 0x0 }
  - { offsetInCU: 0xF9, offset: 0x3DE699, size: 0x8, addend: 0x0, symName: _AltViewsPath, symObjAddr: 0xAD150, symBinAddr: 0x1003285D0, symSize: 0x0 }
  - { offsetInCU: 0x10E, offset: 0x3DE6AE, size: 0x8, addend: 0x0, symName: _AltObjectsPath, symObjAddr: 0xAD550, symBinAddr: 0x1003289D0, symSize: 0x0 }
  - { offsetInCU: 0x123, offset: 0x3DE6C3, size: 0x8, addend: 0x0, symName: _AltPalettesPath, symObjAddr: 0xAD950, symBinAddr: 0x100328DD0, symSize: 0x0 }
  - { offsetInCU: 0x138, offset: 0x3DE6D8, size: 0x8, addend: 0x0, symName: _AltMasksPath, symObjAddr: 0xADD50, symBinAddr: 0x1003291D0, symSize: 0x0 }
  - { offsetInCU: 0x14D, offset: 0x3DE6ED, size: 0x8, addend: 0x0, symName: _gameman, symObjAddr: 0xAE150, symBinAddr: 0x1003295D0, symSize: 0x0 }
  - { offsetInCU: 0xB910, offset: 0x3E9EB0, size: 0x8, addend: 0x0, symName: __ZN4Game7c_ownerE, symObjAddr: 0xAE158, symBinAddr: 0x1003295D8, symSize: 0x0 }
  - { offsetInCU: 0xB924, offset: 0x3E9EC4, size: 0x8, addend: 0x0, symName: __ZN4Game9sfxVolumeE, symObjAddr: 0x2D10, symBinAddr: 0x10031C968, symSize: 0x0 }
  - { offsetInCU: 0xB938, offset: 0x3E9ED8, size: 0x8, addend: 0x0, symName: __ZN4Game11musicVolumeE, symObjAddr: 0x2D14, symBinAddr: 0x10031C96C, symSize: 0x0 }
  - { offsetInCU: 0xB94C, offset: 0x3E9EEC, size: 0x8, addend: 0x0, symName: __ZN4Game8gameNameE, symObjAddr: 0xAE170, symBinAddr: 0x1003295F0, symSize: 0x0 }
  - { offsetInCU: 0xB966, offset: 0x3E9F06, size: 0x8, addend: 0x0, symName: __ZL16m_last_poll_time, symObjAddr: 0xAE188, symBinAddr: 0x100458508, symSize: 0x0 }
  - { offsetInCU: 0xB980, offset: 0x3E9F20, size: 0x8, addend: 0x0, symName: __ZL18m_last_agenda_time, symObjAddr: 0xAE190, symBinAddr: 0x100458510, symSize: 0x0 }
  - { offsetInCU: 0xB99A, offset: 0x3E9F3A, size: 0x8, addend: 0x0, symName: __ZL16m_last_view_time, symObjAddr: 0xAE198, symBinAddr: 0x100458518, symSize: 0x0 }
  - { offsetInCU: 0xF52B, offset: 0x3EDACB, size: 0x8, addend: 0x0, symName: __ZN4GameD1Ev, symObjAddr: 0x0, symBinAddr: 0x10004E628, symSize: 0x4 }
  - { offsetInCU: 0xF559, offset: 0x3EDAF9, size: 0x8, addend: 0x0, symName: __ZN4GameD1Ev, symObjAddr: 0x0, symBinAddr: 0x10004E628, symSize: 0x4 }
  - { offsetInCU: 0xF56C, offset: 0x3EDB0C, size: 0x8, addend: 0x0, symName: __ZN4GameD2Ev, symObjAddr: 0x240, symBinAddr: 0x10004E868, symSize: 0xDC }
  - { offsetInCU: 0xF8FD, offset: 0x3EDE9D, size: 0x8, addend: 0x0, symName: __ZN4Game9InitPathsEPKcS1_, symObjAddr: 0x4, symBinAddr: 0x10004E62C, symSize: 0x23C }
  - { offsetInCU: 0x1038D, offset: 0x3EE92D, size: 0x8, addend: 0x0, symName: __ZN4Game7SaveEnvEv, symObjAddr: 0x328, symBinAddr: 0x10004E944, symSize: 0x444 }
  - { offsetInCU: 0x12A31, offset: 0x3F0FD1, size: 0x8, addend: 0x0, symName: __Z8WriteEnvNSt3__112basic_stringIcNS_11char_traitsIcEENS_9allocatorIcEEEES5_S5_, symObjAddr: 0x7A4, symBinAddr: 0x10004EDC0, symSize: 0x2A4 }
  - { offsetInCU: 0x13EF7, offset: 0x3F2497, size: 0x8, addend: 0x0, symName: __ZN4Game14SetMusicVolumeEi, symObjAddr: 0x76C, symBinAddr: 0x10004ED88, symSize: 0x2C }
  - { offsetInCU: 0x13F16, offset: 0x3F24B6, size: 0x8, addend: 0x0, symName: __ZN4Game12SetSfxVolumeEi, symObjAddr: 0x798, symBinAddr: 0x10004EDB4, symSize: 0xC }
  - { offsetInCU: 0x145B2, offset: 0x3F2B52, size: 0x8, addend: 0x0, symName: __ZN4Game7LoadEnvEv, symObjAddr: 0xA48, symBinAddr: 0x10004F064, symSize: 0x934 }
  - { offsetInCU: 0x19310, offset: 0x3F78B0, size: 0x8, addend: 0x0, symName: __ZL6GetEnvNSt3__112basic_stringIcNS_11char_traitsIcEENS_9allocatorIcEEEES5_S5_, symObjAddr: 0x137C, symBinAddr: 0x10004F998, symSize: 0x240 }
  - { offsetInCU: 0x1A1ED, offset: 0x3F878D, size: 0x8, addend: 0x0, symName: __ZN10EthKeyPairD1Ev, symObjAddr: 0x15BC, symBinAddr: 0x10004FBD8, symSize: 0x60 }
  - { offsetInCU: 0x1A985, offset: 0x3F8F25, size: 0x8, addend: 0x0, symName: __ZN4Game4InitEv, symObjAddr: 0x16E0, symBinAddr: 0x10004FC38, symSize: 0x184 }
  - { offsetInCU: 0x1DB99, offset: 0x3FC139, size: 0x8, addend: 0x0, symName: __ZN4Game14RestoreDisplayEv, symObjAddr: 0x1874, symBinAddr: 0x10004FDBC, symSize: 0x24 }
  - { offsetInCU: 0x1DBC6, offset: 0x3FC166, size: 0x8, addend: 0x0, symName: __ZN4Game14RestoreDisplayEv, symObjAddr: 0x1874, symBinAddr: 0x10004FDBC, symSize: 0x24 }
  - { offsetInCU: 0x1DBE4, offset: 0x3FC184, size: 0x8, addend: 0x0, symName: __ZN4Game4TickEb, symObjAddr: 0x1898, symBinAddr: 0x10004FDE0, symSize: 0x110 }
  - { offsetInCU: 0x1DC91, offset: 0x3FC231, size: 0x8, addend: 0x0, symName: __ZN4Game11CheckCursorEv, symObjAddr: 0x19A8, symBinAddr: 0x10004FEF0, symSize: 0xF0 }
  - { offsetInCU: 0x1DDC7, offset: 0x3FC367, size: 0x8, addend: 0x0, symName: __ZN4Game9AddPlayerERKNSt3__112basic_stringIcNS0_11char_traitsIcEENS0_9allocatorIcEEEES8_b, symObjAddr: 0x1A98, symBinAddr: 0x10004FFE0, symSize: 0x54 }
  - { offsetInCU: 0x1DE99, offset: 0x3FC439, size: 0x8, addend: 0x0, symName: __ZN4Game9DelPlayerERKNSt3__112basic_stringIcNS0_11char_traitsIcEENS0_9allocatorIcEEEE, symObjAddr: 0x1AEC, symBinAddr: 0x100050034, symSize: 0x13C }
  - { offsetInCU: 0x1E1BA, offset: 0x3FC75A, size: 0x8, addend: 0x0, symName: __ZN4Game11SessionLostEv, symObjAddr: 0x1C28, symBinAddr: 0x100050170, symSize: 0x94 }
  - { offsetInCU: 0x1E4F8, offset: 0x3FCA98, size: 0x8, addend: 0x0, symName: __ZN4Game9SendStateERKNSt3__112basic_stringIcNS0_11char_traitsIcEENS0_9allocatorIcEEEE, symObjAddr: 0x1CC0, symBinAddr: 0x100050204, symSize: 0x54 }
  - { offsetInCU: 0x1E5AA, offset: 0x3FCB4A, size: 0x8, addend: 0x0, symName: __ZN4Game11KeyReleasedEi, symObjAddr: 0x1D14, symBinAddr: 0x100050258, symSize: 0x74 }
  - { offsetInCU: 0x1E625, offset: 0x3FCBC5, size: 0x8, addend: 0x0, symName: __ZN4Game10KeyPressedEi, symObjAddr: 0x1D88, symBinAddr: 0x1000502CC, symSize: 0x74 }
  - { offsetInCU: 0x1E6A0, offset: 0x3FCC40, size: 0x8, addend: 0x0, symName: __ZN4Game9MouseMoveE5POINT, symObjAddr: 0x1E0C, symBinAddr: 0x100050340, symSize: 0x4 }
  - { offsetInCU: 0x1E6EF, offset: 0x3FCC8F, size: 0x8, addend: 0x0, symName: __ZN4Game11LButtonDownE5POINT, symObjAddr: 0x1E10, symBinAddr: 0x100050344, symSize: 0x27C }
  - { offsetInCU: 0x1F219, offset: 0x3FD7B9, size: 0x8, addend: 0x0, symName: __ZN4Game9LButtonUpE5POINT, symObjAddr: 0x208C, symBinAddr: 0x1000505C0, symSize: 0x238 }
  - { offsetInCU: 0x1FAFE, offset: 0x3FE09E, size: 0x8, addend: 0x0, symName: __ZN4Game11RButtonDownE5POINT, symObjAddr: 0x22C4, symBinAddr: 0x1000507F8, symSize: 0x4 }
  - { offsetInCU: 0x1FB37, offset: 0x3FE0D7, size: 0x8, addend: 0x0, symName: __ZN4Game9RButtonUpE5POINT, symObjAddr: 0x22C8, symBinAddr: 0x1000507FC, symSize: 0x4 }
  - { offsetInCU: 0x1FB70, offset: 0x3FE110, size: 0x8, addend: 0x0, symName: __ZN4Game11GetGameNameEv, symObjAddr: 0x22CC, symBinAddr: 0x100050800, symSize: 0xC }
  - { offsetInCU: 0x1FBAB, offset: 0x3FE14B, size: 0x8, addend: 0x0, symName: __ZN4Game11SetGameNameEPKc, symObjAddr: 0x22D8, symBinAddr: 0x10005080C, symSize: 0x50 }
  - { offsetInCU: 0x1FC62, offset: 0x3FE202, size: 0x8, addend: 0x0, symName: __ZN4Game13SaveGameStateEPKc, symObjAddr: 0x2328, symBinAddr: 0x10005085C, symSize: 0x8C }
  - { offsetInCU: 0x1FF54, offset: 0x3FE4F4, size: 0x8, addend: 0x0, symName: __ZN4Game13LoadGameStateEPKc, symObjAddr: 0x23B4, symBinAddr: 0x1000508E8, symSize: 0x78 }
  - { offsetInCU: 0x20232, offset: 0x3FE7D2, size: 0x8, addend: 0x0, symName: __ZN4Game3NewEv, symObjAddr: 0x242C, symBinAddr: 0x100050960, symSize: 0xC8 }
  - { offsetInCU: 0x2BF1, offset: 0x40195D, size: 0x8, addend: 0x0, symName: __ZL15app_http_tls_cbP6bio_stPvii, symObjAddr: 0x1340, symBinAddr: 0x100050A8C, symSize: 0xF4 }
  - { offsetInCU: 0x2E43, offset: 0x401BAF, size: 0x8, addend: 0x0, symName: __ZL18app_http_tls_closeP6bio_stS0_, symObjAddr: 0x16B4, symBinAddr: 0x100050E00, symSize: 0x118 }
  - { offsetInCU: 0x3035, offset: 0x401DA1, size: 0x8, addend: 0x0, symName: __Z17openssl_load_filePPcPmPKc, symObjAddr: 0x1434, symBinAddr: 0x100050B80, symSize: 0x280 }
  - { offsetInCU: 0x3A, offset: 0x40229F, size: 0x8, addend: 0x0, symName: __ZN6CFGNET12lastProviderE, symObjAddr: 0xAC828, symBinAddr: 0x100329608, symSize: 0x0 }
  - { offsetInCU: 0x1272B, offset: 0x414990, size: 0x8, addend: 0x0, symName: __ZN6CFGNET10EnumThreadEPS_, symObjAddr: 0x0, symBinAddr: 0x100050F18, symSize: 0x68 }
  - { offsetInCU: 0x13095, offset: 0x4152FA, size: 0x8, addend: 0x0, symName: __ZN6CFGNET15CloseEnumThreadEv, symObjAddr: 0xA4, symBinAddr: 0x100050F80, symSize: 0x80 }
  - { offsetInCU: 0x1344E, offset: 0x4156B3, size: 0x8, addend: 0x0, symName: __ZN6CFGNETC2Ei, symObjAddr: 0x124, symBinAddr: 0x100051000, symSize: 0xEFC }
  - { offsetInCU: 0x1A98B, offset: 0x41CBF0, size: 0x8, addend: 0x0, symName: __ZL11provStringsi, symObjAddr: 0x1020, symBinAddr: 0x100051EFC, symSize: 0x10 }
  - { offsetInCU: 0x1A9D0, offset: 0x41CC35, size: 0x8, addend: 0x0, symName: __ZL10sesStringsi, symObjAddr: 0x1030, symBinAddr: 0x100051F0C, symSize: 0x24 }
  - { offsetInCU: 0x1AA6A, offset: 0x41CCCF, size: 0x8, addend: 0x0, symName: __ZN6CFGNETC1Ei, symObjAddr: 0x1054, symBinAddr: 0x100051F30, symSize: 0x4 }
  - { offsetInCU: 0x1AAA6, offset: 0x41CD0B, size: 0x8, addend: 0x0, symName: __ZN6CFGNETC1Ei, symObjAddr: 0x1054, symBinAddr: 0x100051F30, symSize: 0x4 }
  - { offsetInCU: 0x1AAD6, offset: 0x41CD3B, size: 0x8, addend: 0x0, symName: __ZN6CFGNETD2Ev, symObjAddr: 0x1058, symBinAddr: 0x100051F34, symSize: 0x54 }
  - { offsetInCU: 0x1AB6D, offset: 0x41CDD2, size: 0x8, addend: 0x0, symName: __ZN6CFGNETD1Ev, symObjAddr: 0x10B8, symBinAddr: 0x100051F88, symSize: 0x4 }
  - { offsetInCU: 0x1AB91, offset: 0x41CDF6, size: 0x8, addend: 0x0, symName: __ZN6CFGNETD1Ev, symObjAddr: 0x10B8, symBinAddr: 0x100051F88, symSize: 0x4 }
  - { offsetInCU: 0x1ABC0, offset: 0x41CE25, size: 0x8, addend: 0x0, symName: __ZN6CFGNETD0Ev, symObjAddr: 0x10BC, symBinAddr: 0x100051F8C, symSize: 0x14 }
  - { offsetInCU: 0x1B15F, offset: 0x41D3C4, size: 0x8, addend: 0x0, symName: __ZN6CFGNET7OnEventENSt3__112basic_stringIcNS0_11char_traitsIcEENS0_9allocatorIcEEEEi, symObjAddr: 0x10D0, symBinAddr: 0x100051FA0, symSize: 0x67C }
  - { offsetInCU: 0x1D191, offset: 0x41F3F6, size: 0x8, addend: 0x0, symName: __ZL6Reportl, symObjAddr: 0x174C, symBinAddr: 0x10005261C, symSize: 0x84 }
  - { offsetInCU: 0x26, offset: 0x420173, size: 0x8, addend: 0x0, symName: __ZN7TBL_ISA4DumpEv, symObjAddr: 0x0, symBinAddr: 0x1000526A0, symSize: 0x44C }
  - { offsetInCU: 0x3F, offset: 0x42018C, size: 0x8, addend: 0x0, symName: _tbl_isa, symObjAddr: 0x21080, symBinAddr: 0x100329610, symSize: 0x0 }
  - { offsetInCU: 0x5CC2, offset: 0x425E0F, size: 0x8, addend: 0x0, symName: __ZN7TBL_ISA4DumpEv, symObjAddr: 0x0, symBinAddr: 0x1000526A0, symSize: 0x44C }
  - { offsetInCU: 0x7FF9, offset: 0x428146, size: 0x8, addend: 0x0, symName: __ZN7TBL_ISAC2ENSt3__112basic_stringIcNS0_11char_traitsIcEENS0_9allocatorIcEEEEi, symObjAddr: 0xBB0, symBinAddr: 0x100053038, symSize: 0x54 }
  - { offsetInCU: 0x80C6, offset: 0x428213, size: 0x8, addend: 0x0, symName: __ZN7TBL_ISA4LoadENSt3__112basic_stringIcNS0_11char_traitsIcEENS0_9allocatorIcEEEE, symObjAddr: 0x44C, symBinAddr: 0x100052AEC, symSize: 0x394 }
  - { offsetInCU: 0x96F4, offset: 0x429841, size: 0x8, addend: 0x0, symName: __ZN7TBL_ISAC2ENSt3__112basic_stringIcNS0_11char_traitsIcEENS0_9allocatorIcEEEEi, symObjAddr: 0xBB0, symBinAddr: 0x100053038, symSize: 0x54 }
  - { offsetInCU: 0x9829, offset: 0x429976, size: 0x8, addend: 0x0, symName: __ZN7B_TABLEI3ISANSt3__112basic_stringIcNS1_11char_traitsIcEENS1_9allocatorIcEEEES7_S7_E6InsertEPS0_, symObjAddr: 0x7E0, symBinAddr: 0x100052E80, symSize: 0x178 }
  - { offsetInCU: 0x9EA8, offset: 0x429FF5, size: 0x8, addend: 0x0, symName: __ZN3ISAD1Ev, symObjAddr: 0x958, symBinAddr: 0x100052FF8, symSize: 0x40 }
  - { offsetInCU: 0xA18A, offset: 0x42A2D7, size: 0x8, addend: 0x0, symName: __ZN7B_TABLEI3ISANSt3__112basic_stringIcNS1_11char_traitsIcEENS1_9allocatorIcEEEES7_S7_E17GetInsertPositionES7_Pi, symObjAddr: 0xCB4, symBinAddr: 0x10005313C, symSize: 0xD0 }
  - { offsetInCU: 0xA51F, offset: 0x42A66C, size: 0x8, addend: 0x0, symName: __ZN7B_TABLEI3ISANSt3__112basic_stringIcNS1_11char_traitsIcEENS1_9allocatorIcEEEES7_S7_EC2Ei, symObjAddr: 0xC04, symBinAddr: 0x10005308C, symSize: 0xB0 }
  - { offsetInCU: 0x1B105, offset: 0x44590A, size: 0x8, addend: 0x0, symName: __Z12json_extractNSt3__112basic_stringIcNS_11char_traitsIcEENS_9allocatorIcEEEES5_RS5_, symObjAddr: 0x0, symBinAddr: 0x10005320C, symSize: 0x324 }
  - { offsetInCU: 0x26, offset: 0x464BAE, size: 0x8, addend: 0x0, symName: __ZN8SURROUND8RecenterEv, symObjAddr: 0x0, symBinAddr: 0x100053530, symSize: 0x40 }
  - { offsetInCU: 0x11C71, offset: 0x4767F9, size: 0x8, addend: 0x0, symName: __ZN8SURROUND8RecenterEv, symObjAddr: 0x0, symBinAddr: 0x100053530, symSize: 0x40 }
  - { offsetInCU: 0x11C9B, offset: 0x476823, size: 0x8, addend: 0x0, symName: __ZN8SURROUND8RecenterEv, symObjAddr: 0x0, symBinAddr: 0x100053530, symSize: 0x40 }
  - { offsetInCU: 0x121A2, offset: 0x476D2A, size: 0x8, addend: 0x0, symName: __ZN8SURROUND6ActionEii, symObjAddr: 0x40, symBinAddr: 0x100053570, symSize: 0x1E4 }
  - { offsetInCU: 0x12A2A, offset: 0x4775B2, size: 0x8, addend: 0x0, symName: __ZN8SURROUND6KeycmdEii, symObjAddr: 0x224, symBinAddr: 0x100053754, symSize: 0xB4 }
  - { offsetInCU: 0x12AB3, offset: 0x47763B, size: 0x8, addend: 0x0, symName: __ZL8Cardinaliibb, symObjAddr: 0x2D8, symBinAddr: 0x100053808, symSize: 0x8C }
  - { offsetInCU: 0x12BC4, offset: 0x47774C, size: 0x8, addend: 0x0, symName: __ZN8SURROUND11QueryCursorE4RECT, symObjAddr: 0x364, symBinAddr: 0x100053894, symSize: 0x204 }
  - { offsetInCU: 0x12D20, offset: 0x4778A8, size: 0x8, addend: 0x0, symName: __ZN8SURROUND5PaintEii, symObjAddr: 0x568, symBinAddr: 0x100053A98, symSize: 0x4 }
  - { offsetInCU: 0x12D84, offset: 0x47790C, size: 0x8, addend: 0x0, symName: __ZN8SURROUNDD1Ev, symObjAddr: 0x570, symBinAddr: 0x100053A9C, symSize: 0x4 }
  - { offsetInCU: 0x12DA8, offset: 0x477930, size: 0x8, addend: 0x0, symName: __ZN8SURROUNDD1Ev, symObjAddr: 0x570, symBinAddr: 0x100053A9C, symSize: 0x4 }
  - { offsetInCU: 0x12DDF, offset: 0x477967, size: 0x8, addend: 0x0, symName: __ZN8SURROUNDD0Ev, symObjAddr: 0x574, symBinAddr: 0x100053AA0, symSize: 0x14 }
  - { offsetInCU: 0x12EE8, offset: 0x477A70, size: 0x8, addend: 0x0, symName: __ZN8SURROUNDC2Ei, symObjAddr: 0x588, symBinAddr: 0x100053AB4, symSize: 0x124 }
  - { offsetInCU: 0x130ED, offset: 0x477C75, size: 0x8, addend: 0x0, symName: __ZN8SURROUNDC1Ei, symObjAddr: 0x6AC, symBinAddr: 0x100053BD8, symSize: 0x4 }
  - { offsetInCU: 0x13129, offset: 0x477CB1, size: 0x8, addend: 0x0, symName: __ZN8SURROUNDC1Ei, symObjAddr: 0x6AC, symBinAddr: 0x100053BD8, symSize: 0x4 }
  - { offsetInCU: 0x13143, offset: 0x477CCB, size: 0x8, addend: 0x0, symName: __ZN8SURROUND14GetCanvasWidthEv, symObjAddr: 0x6B0, symBinAddr: 0x100053BDC, symSize: 0x8 }
  - { offsetInCU: 0x1316D, offset: 0x477CF5, size: 0x8, addend: 0x0, symName: __ZN8SURROUND14GetCanvasWidthEv, symObjAddr: 0x6B0, symBinAddr: 0x100053BDC, symSize: 0x8 }
  - { offsetInCU: 0x131A1, offset: 0x477D29, size: 0x8, addend: 0x0, symName: __ZN8SURROUND15GetCanvasHeightEv, symObjAddr: 0x6B8, symBinAddr: 0x100053BE4, symSize: 0x8 }
  - { offsetInCU: 0x131CB, offset: 0x477D53, size: 0x8, addend: 0x0, symName: __ZN8SURROUND15GetCanvasHeightEv, symObjAddr: 0x6B8, symBinAddr: 0x100053BE4, symSize: 0x8 }
  - { offsetInCU: 0x53, offset: 0x477F73, size: 0x8, addend: 0x0, symName: __ZL11all_players, symObjAddr: 0x1A9768, symBinAddr: 0x100458520, symSize: 0x0 }
  - { offsetInCU: 0x13C48, offset: 0x48BB68, size: 0x8, addend: 0x0, symName: _color_freq, symObjAddr: 0x11188, symBinAddr: 0x10031C970, symSize: 0x0 }
  - { offsetInCU: 0x13C70, offset: 0x48BB90, size: 0x8, addend: 0x0, symName: _gdbt_messages, symObjAddr: 0x1A9780, symBinAddr: 0x100329618, symSize: 0x0 }
  - { offsetInCU: 0x13E38, offset: 0x48BD58, size: 0x8, addend: 0x0, symName: __ZN13GDBT_MESSAGES3c_mE, symObjAddr: 0x1119C, symBinAddr: 0x10031C984, symSize: 0x0 }
  - { offsetInCU: 0x13E4C, offset: 0x48BD6C, size: 0x8, addend: 0x0, symName: __ZN8TELETYPE10c_teletypeE, symObjAddr: 0x1A9790, symBinAddr: 0x100329628, symSize: 0x0 }
  - { offsetInCU: 0x1738E, offset: 0x48F2AE, size: 0x8, addend: 0x0, symName: __ZN8TELETYPE6c_freqE, symObjAddr: 0x1A9798, symBinAddr: 0x100329630, symSize: 0x0 }
  - { offsetInCU: 0x173A2, offset: 0x48F2C2, size: 0x8, addend: 0x0, symName: __ZN8TELETYPE6c_langE, symObjAddr: 0x1A9799, symBinAddr: 0x100329631, symSize: 0x0 }
  - { offsetInCU: 0x173B6, offset: 0x48F2D6, size: 0x8, addend: 0x0, symName: __ZN8TELETYPE7c_pitchE, symObjAddr: 0x1A979A, symBinAddr: 0x100329632, symSize: 0x0 }
  - { offsetInCU: 0x178C9, offset: 0x48F7E9, size: 0x8, addend: 0x0, symName: __ZN8nlohmann16json_abi_v3_11_26detail9from_jsonINS0_10basic_jsonINSt3__13mapENS4_6vectorENS4_12basic_stringIcNS4_11char_traitsIcEENS4_9allocatorIcEEEEbxydSA_NS0_14adl_serializerENS6_IhNSA_IhEEEEvEEhLi0EEEvRKT_RT0_, symObjAddr: 0xDC24, symBinAddr: 0x100055FDC, symSize: 0x108 }
  - { offsetInCU: 0x1FC1E, offset: 0x497B3E, size: 0x8, addend: 0x0, symName: __ZN13GDBT_MESSAGESD1Ev, symObjAddr: 0x0, symBinAddr: 0x100053BEC, symSize: 0x4 }
  - { offsetInCU: 0x1FC4C, offset: 0x497B6C, size: 0x8, addend: 0x0, symName: __ZN13GDBT_MESSAGESD1Ev, symObjAddr: 0x0, symBinAddr: 0x100053BEC, symSize: 0x4 }
  - { offsetInCU: 0x20037, offset: 0x497F57, size: 0x8, addend: 0x0, symName: __ZN8TELETYPEC2Ei, symObjAddr: 0x4, symBinAddr: 0x100053BF0, symSize: 0x474 }
  - { offsetInCU: 0x21D22, offset: 0x499C42, size: 0x8, addend: 0x0, symName: __ZN5CFONTC2EP3ONENSt3__112basic_stringIcNS2_11char_traitsIcEENS2_9allocatorIcEEEE, symObjAddr: 0x25DC, symBinAddr: 0x100055A0C, symSize: 0xBC }
  - { offsetInCU: 0x22064, offset: 0x499F84, size: 0x8, addend: 0x0, symName: __ZN12TELE_MESSAGED1Ev, symObjAddr: 0x478, symBinAddr: 0x100054064, symSize: 0x50 }
  - { offsetInCU: 0x226F8, offset: 0x49A618, size: 0x8, addend: 0x0, symName: __ZN8TELETYPEC1Ei, symObjAddr: 0x4FC, symBinAddr: 0x1000540B4, symSize: 0x4 }
  - { offsetInCU: 0x22734, offset: 0x49A654, size: 0x8, addend: 0x0, symName: __ZN8TELETYPEC1Ei, symObjAddr: 0x4FC, symBinAddr: 0x1000540B4, symSize: 0x4 }
  - { offsetInCU: 0x22784, offset: 0x49A6A4, size: 0x8, addend: 0x0, symName: __ZN8TELETYPED2Ev, symObjAddr: 0x500, symBinAddr: 0x1000540B8, symSize: 0x134 }
  - { offsetInCU: 0x22FA0, offset: 0x49AEC0, size: 0x8, addend: 0x0, symName: __ZN5CFONTD2Ev, symObjAddr: 0x272C, symBinAddr: 0x100055AC8, symSize: 0x30 }
  - { offsetInCU: 0x22FCB, offset: 0x49AEEB, size: 0x8, addend: 0x0, symName: __ZN8TELETYPED1Ev, symObjAddr: 0x634, symBinAddr: 0x1000541EC, symSize: 0x4 }
  - { offsetInCU: 0x22FEF, offset: 0x49AF0F, size: 0x8, addend: 0x0, symName: __ZN8TELETYPED1Ev, symObjAddr: 0x634, symBinAddr: 0x1000541EC, symSize: 0x4 }
  - { offsetInCU: 0x2301E, offset: 0x49AF3E, size: 0x8, addend: 0x0, symName: __ZN8TELETYPED0Ev, symObjAddr: 0x638, symBinAddr: 0x1000541F0, symSize: 0x14 }
  - { offsetInCU: 0x2312C, offset: 0x49B04C, size: 0x8, addend: 0x0, symName: __ZN8TELETYPE11QueryCursorE4RECT, symObjAddr: 0x64C, symBinAddr: 0x100054204, symSize: 0x84 }
  - { offsetInCU: 0x232F6, offset: 0x49B216, size: 0x8, addend: 0x0, symName: __ZN8TELETYPE4GrabE5POINTbPS0_, symObjAddr: 0x6D0, symBinAddr: 0x100054288, symSize: 0x128 }
  - { offsetInCU: 0x23C6E, offset: 0x49BB8E, size: 0x8, addend: 0x0, symName: __ZN8TELETYPE5PaintEii, symObjAddr: 0x7F8, symBinAddr: 0x1000543B0, symSize: 0x46C }
  - { offsetInCU: 0x24F24, offset: 0x49CE44, size: 0x8, addend: 0x0, symName: __ZN5CFONT5PrintEP3ONEPKcj, symObjAddr: 0xC64, symBinAddr: 0x10005481C, symSize: 0xC4 }
  - { offsetInCU: 0x252E8, offset: 0x49D208, size: 0x8, addend: 0x0, symName: __ZN6SPIRIT7TextOutEiiNSt3__112basic_stringIcNS0_11char_traitsIcEENS0_9allocatorIcEEEE, symObjAddr: 0x275C, symBinAddr: 0x100055AF8, symSize: 0xAC }
  - { offsetInCU: 0x256BA, offset: 0x49D5DA, size: 0x8, addend: 0x0, symName: __ZN8TELETYPE3MsgEii, symObjAddr: 0xD28, symBinAddr: 0x1000548E0, symSize: 0x110 }
  - { offsetInCU: 0x25839, offset: 0x49D759, size: 0x8, addend: 0x0, symName: __ZN13GDBT_MESSAGES12SendFreqDataEt, symObjAddr: 0xE38, symBinAddr: 0x1000549F0, symSize: 0x150 }
  - { offsetInCU: 0x26562, offset: 0x49E482, size: 0x8, addend: 0x0, symName: __ZNSt3__16vectorINS_12basic_stringIcNS_11char_traitsIcEENS_9allocatorIcEEEENS4_IS6_EEE22__construct_one_at_endB8ue170006IJRKS6_EEEvDpOT_, symObjAddr: 0x290C, symBinAddr: 0x100055BA4, symSize: 0x5C }
  - { offsetInCU: 0x27CFC, offset: 0x49FC1C, size: 0x8, addend: 0x0, symName: __ZN8TELETYPE6KeycmdEii, symObjAddr: 0xF88, symBinAddr: 0x100054B40, symSize: 0x350 }
  - { offsetInCU: 0x284CA, offset: 0x4A03EA, size: 0x8, addend: 0x0, symName: __ZN8TELETYPE4_CmdENSt3__112basic_stringIcNS0_11char_traitsIcEENS0_9allocatorIcEEEE, symObjAddr: 0x12D8, symBinAddr: 0x100054E90, symSize: 0x154 }
  - { offsetInCU: 0x28AF1, offset: 0x4A0A11, size: 0x8, addend: 0x0, symName: __ZN8TELETYPE14_AppendMessageERKNSt3__112basic_stringIcNS0_11char_traitsIcEENS0_9allocatorIcEEEES8_hh, symObjAddr: 0x142C, symBinAddr: 0x100054FE4, symSize: 0xDC }
  - { offsetInCU: 0x28C1B, offset: 0x4A0B3B, size: 0x8, addend: 0x0, symName: __ZN13GDBT_MESSAGES11SendMessageERKNSt3__112basic_stringIcNS0_11char_traitsIcEENS0_9allocatorIcEEEEhh, symObjAddr: 0x1508, symBinAddr: 0x1000550C0, symSize: 0x164 }
  - { offsetInCU: 0x296C7, offset: 0x4A15E7, size: 0x8, addend: 0x0, symName: __ZNSt3__16vectorINS_12basic_stringIcNS_11char_traitsIcEENS_9allocatorIcEEEENS4_IS6_EEE22__construct_one_at_endB8ue170006IJRKS6_EEEvDpOT_, symObjAddr: 0x290C, symBinAddr: 0x100055BA4, symSize: 0x5C }
  - { offsetInCU: 0x298BF, offset: 0x4A17DF, size: 0x8, addend: 0x0, symName: __ZNSt3__16vectorINS_12basic_stringIcNS_11char_traitsIcEENS_9allocatorIcEEEENS4_IS6_EEE21__push_back_slow_pathIRKS6_EEvOT_, symObjAddr: 0x2968, symBinAddr: 0x100055C00, symSize: 0x114 }
  - { offsetInCU: 0x29C39, offset: 0x4A1B59, size: 0x8, addend: 0x0, symName: __ZN12TELE_MESSAGE7to_jsonEv, symObjAddr: 0x17B8, symBinAddr: 0x1000552E8, symSize: 0x3F4 }
  - { offsetInCU: 0x2C0CA, offset: 0x4A3FEA, size: 0x8, addend: 0x0, symName: __ZN8TELETYPE3MsgERKNSt3__112basic_stringIcNS0_11char_traitsIcEENS0_9allocatorIcEEEEPKcz, symObjAddr: 0x16F4, symBinAddr: 0x100055224, symSize: 0xC4 }
  - { offsetInCU: 0x2C5A4, offset: 0x4A44C4, size: 0x8, addend: 0x0, symName: __ZN13GDBT_MESSAGES13ReceiveUpdateERKNSt3__112basic_stringIcNS0_11char_traitsIcEENS0_9allocatorIcEEEES8_R9XPLAY_PKT, symObjAddr: 0x2050, symBinAddr: 0x1000556DC, symSize: 0x1C8 }
  - { offsetInCU: 0x2D219, offset: 0x4A5139, size: 0x8, addend: 0x0, symName: __ZN12TELE_MESSAGEC2ERKNSt3__112basic_stringIcNS0_11char_traitsIcEENS0_9allocatorIcEEEE, symObjAddr: 0x2CE4, symBinAddr: 0x100055D14, symSize: 0x2C8 }
  - { offsetInCU: 0x2E0C2, offset: 0x4A5FE2, size: 0x8, addend: 0x0, symName: __ZN7FREQOUTC2ERKNSt3__112basic_stringIcNS0_11char_traitsIcEENS0_9allocatorIcEEEE, symObjAddr: 0xDD2C, symBinAddr: 0x1000560E4, symSize: 0x54 }
  - { offsetInCU: 0x2E297, offset: 0x4A61B7, size: 0x8, addend: 0x0, symName: __ZN8TELETYPE10_DelPlayerERKNSt3__112basic_stringIcNS0_11char_traitsIcEENS0_9allocatorIcEEEE, symObjAddr: 0x2218, symBinAddr: 0x1000558A4, symSize: 0x168 }
  - { offsetInCU: 0xE6E5, offset: 0x4D0B7D, size: 0x8, addend: 0x0, symName: __ZN16DatalogPredicate10AssertFactENSt3__16vectorINS0_12basic_stringIcNS0_11char_traitsIcEENS0_9allocatorIcEEEENS5_IS7_EEEE, symObjAddr: 0x0, symBinAddr: 0x1000561B4, symSize: 0x484 }
  - { offsetInCU: 0x10D35, offset: 0x4D31CD, size: 0x8, addend: 0x0, symName: __ZN16DatalogPredicate11CreateTableEv, symObjAddr: 0x58C, symBinAddr: 0x100056638, symSize: 0x3DC }
  - { offsetInCU: 0x12F9F, offset: 0x4D5437, size: 0x8, addend: 0x0, symName: __ZN16DatalogPredicate4DropEv, symObjAddr: 0x968, symBinAddr: 0x100056A14, symSize: 0xC4 }
  - { offsetInCU: 0x135BF, offset: 0x4D5A57, size: 0x8, addend: 0x0, symName: __ZN7Datalog10AssertFactEP16DatalogPredicateNSt3__112basic_stringIcNS2_11char_traitsIcEENS2_9allocatorIcEEEE, symObjAddr: 0xA2C, symBinAddr: 0x100056AD8, symSize: 0x1AC }
  - { offsetInCU: 0x141CC, offset: 0x4D6664, size: 0x8, addend: 0x0, symName: __ZN7Datalog9QueryFactENSt3__112basic_stringIcNS0_11char_traitsIcEENS0_9allocatorIcEEEES6_P5StackRNS0_6vectorIS6_NS4_IS6_EEEE, symObjAddr: 0xBD8, symBinAddr: 0x100056C84, symSize: 0x290 }
  - { offsetInCU: 0x15363, offset: 0x4D77FB, size: 0x8, addend: 0x0, symName: __ZNKSt3__16vectorI4ParmNS_9allocatorIS1_EEE20__throw_out_of_rangeB8ue170006Ev, symObjAddr: 0x1838, symBinAddr: 0x1000573CC, symSize: 0x14 }
  - { offsetInCU: 0x15398, offset: 0x4D7830, size: 0x8, addend: 0x0, symName: __ZN7Datalog11RetractFactENSt3__112basic_stringIcNS0_11char_traitsIcEENS0_9allocatorIcEEEES6_, symObjAddr: 0xE68, symBinAddr: 0x100056F14, symSize: 0x8C }
  - { offsetInCU: 0x159D7, offset: 0x4D7E6F, size: 0x8, addend: 0x0, symName: __Z19sql_create_from_csvNSt3__112basic_stringIcNS_11char_traitsIcEENS_9allocatorIcEEEES5_c, symObjAddr: 0xEF4, symBinAddr: 0x100056FA0, symSize: 0x42C }
  - { offsetInCU: 0x54, offset: 0x4DB289, size: 0x8, addend: 0x0, symName: _bIsActive, symObjAddr: 0x64F51, symBinAddr: 0x100329635, symSize: 0x0 }
  - { offsetInCU: 0x69, offset: 0x4DB29E, size: 0x8, addend: 0x0, symName: _bPaused, symObjAddr: 0x64F52, symBinAddr: 0x100329636, symSize: 0x0 }
  - { offsetInCU: 0x7E, offset: 0x4DB2B3, size: 0x8, addend: 0x0, symName: _bPlayingVideo, symObjAddr: 0x64F53, symBinAddr: 0x100329637, symSize: 0x0 }
  - { offsetInCU: 0x93, offset: 0x4DB2C8, size: 0x8, addend: 0x0, symName: _bPostQuitMessage, symObjAddr: 0x64F54, symBinAddr: 0x100329638, symSize: 0x0 }
  - { offsetInCU: 0x9C01, offset: 0x4E4E36, size: 0x8, addend: 0x0, symName: __Z7WinMainPKcS0_, symObjAddr: 0x8, symBinAddr: 0x1000573E0, symSize: 0xFC }
  - { offsetInCU: 0x9C9C, offset: 0x4E4ED1, size: 0x8, addend: 0x0, symName: __ZL18MissingFileMessagei, symObjAddr: 0x104, symBinAddr: 0x1000574DC, symSize: 0x88 }
  - { offsetInCU: 0x9D09, offset: 0x4E4F3E, size: 0x8, addend: 0x0, symName: __Z7WinLoopv, symObjAddr: 0x18C, symBinAddr: 0x100057564, symSize: 0x6C }
  - { offsetInCU: 0x9D3D, offset: 0x4E4F72, size: 0x8, addend: 0x0, symName: __Z7WinLoopv.cold.1, symObjAddr: 0x6D8, symBinAddr: 0x10024F7C8, symSize: 0x64 }
  - { offsetInCU: 0x9D66, offset: 0x4E4F9B, size: 0x8, addend: 0x0, symName: __Z10mapKeyCodeP17SDL_KeyboardEvent, symObjAddr: 0x394, symBinAddr: 0x1000575D0, symSize: 0x5C }
  - { offsetInCU: 0x9DD4, offset: 0x4E5009, size: 0x8, addend: 0x0, symName: __Z15HandleGameEventR9SDL_Eventff, symObjAddr: 0x3F0, symBinAddr: 0x10005762C, symSize: 0x164 }
  - { offsetInCU: 0xA00E, offset: 0x4E5243, size: 0x8, addend: 0x0, symName: __Z9sdl2_mainv, symObjAddr: 0x554, symBinAddr: 0x100057790, symSize: 0x8C }
  - { offsetInCU: 0xA15A, offset: 0x4E538F, size: 0x8, addend: 0x0, symName: _main, symObjAddr: 0x5E0, symBinAddr: 0x10005781C, symSize: 0xF8 }
  - { offsetInCU: 0x26, offset: 0x4E5874, size: 0x8, addend: 0x0, symName: __ZN13TBL_CONSTANTS4DumpEv, symObjAddr: 0x0, symBinAddr: 0x100057914, symSize: 0x3B4 }
  - { offsetInCU: 0x5548, offset: 0x4EAD96, size: 0x8, addend: 0x0, symName: __ZN13TBL_CONSTANTS4DumpEv, symObjAddr: 0x0, symBinAddr: 0x100057914, symSize: 0x3B4 }
  - { offsetInCU: 0x76B5, offset: 0x4ECF03, size: 0x8, addend: 0x0, symName: __ZN13TBL_CONSTANTS4LoadENSt3__112basic_stringIcNS0_11char_traitsIcEENS0_9allocatorIcEEEEi, symObjAddr: 0x3B4, symBinAddr: 0x100057CC8, symSize: 0x504 }
  - { offsetInCU: 0x53, offset: 0x4EF0B3, size: 0x8, addend: 0x0, symName: _type_names, symObjAddr: 0x64280, symBinAddr: 0x100329640, symSize: 0x0 }
  - { offsetInCU: 0xA18A, offset: 0x4F91EA, size: 0x8, addend: 0x0, symName: __Z5tointNSt3__112basic_stringIcNS_11char_traitsIcEENS_9allocatorIcEEEEPi, symObjAddr: 0x0, symBinAddr: 0x1000581CC, symSize: 0x9C }
  - { offsetInCU: 0xA485, offset: 0x4F94E5, size: 0x8, addend: 0x0, symName: __Z5tointNSt3__112basic_stringIcNS_11char_traitsIcEENS_9allocatorIcEEEE, symObjAddr: 0x9C, symBinAddr: 0x100058268, symSize: 0x100 }
  - { offsetInCU: 0x12E8C, offset: 0x50CCC4, size: 0x8, addend: 0x0, symName: __ZN7CFGPLYRC2Ei, symObjAddr: 0x0, symBinAddr: 0x10005845C, symSize: 0x1158 }
  - { offsetInCU: 0x1ADCC, offset: 0x514C04, size: 0x8, addend: 0x0, symName: __ZN7CFGPLYR6CfgDirEiPcS0_, symObjAddr: 0x1158, symBinAddr: 0x1000595B4, symSize: 0x148 }
  - { offsetInCU: 0x1C113, offset: 0x515F4B, size: 0x8, addend: 0x0, symName: __ZN7CFGPLYRC1Ei, symObjAddr: 0x12A0, symBinAddr: 0x1000596FC, symSize: 0x4 }
  - { offsetInCU: 0x1C14F, offset: 0x515F87, size: 0x8, addend: 0x0, symName: __ZN7CFGPLYRC1Ei, symObjAddr: 0x12A0, symBinAddr: 0x1000596FC, symSize: 0x4 }
  - { offsetInCU: 0x1C575, offset: 0x5163AD, size: 0x8, addend: 0x0, symName: __ZN7CFGPLYR7OnEventENSt3__112basic_stringIcNS0_11char_traitsIcEENS0_9allocatorIcEEEEi, symObjAddr: 0x12A4, symBinAddr: 0x100059700, symSize: 0x834 }
  - { offsetInCU: 0x1EDE8, offset: 0x518C20, size: 0x8, addend: 0x0, symName: __ZN12LOCAL_PLAYER6SetSexEt, symObjAddr: 0x1AD8, symBinAddr: 0x100059F34, symSize: 0x80 }
  - { offsetInCU: 0x1F0E7, offset: 0x518F1F, size: 0x8, addend: 0x0, symName: __ZN7CFGPLYRD1Ev, symObjAddr: 0x1B58, symBinAddr: 0x100059FB4, symSize: 0x4 }
  - { offsetInCU: 0x1F10B, offset: 0x518F43, size: 0x8, addend: 0x0, symName: __ZN7CFGPLYRD1Ev, symObjAddr: 0x1B58, symBinAddr: 0x100059FB4, symSize: 0x4 }
  - { offsetInCU: 0x1F128, offset: 0x518F60, size: 0x8, addend: 0x0, symName: __ZN7CFGPLYRD1Ev, symObjAddr: 0x1B58, symBinAddr: 0x100059FB4, symSize: 0x4 }
  - { offsetInCU: 0x1F147, offset: 0x518F7F, size: 0x8, addend: 0x0, symName: __ZN7CFGPLYRD1Ev, symObjAddr: 0x1B58, symBinAddr: 0x100059FB4, symSize: 0x4 }
  - { offsetInCU: 0x1F176, offset: 0x518FAE, size: 0x8, addend: 0x0, symName: __ZN7CFGPLYRD0Ev, symObjAddr: 0x1B5C, symBinAddr: 0x100059FB8, symSize: 0x14 }
  - { offsetInCU: 0x3A, offset: 0x519C07, size: 0x8, addend: 0x0, symName: __ZN9PLYR_VIEW6mynameE, symObjAddr: 0xA5308, symBinAddr: 0x1003296B8, symSize: 0x0 }
  - { offsetInCU: 0xFA95, offset: 0x529662, size: 0x8, addend: 0x0, symName: __ZN9PLYR_VIEW8yournameE, symObjAddr: 0xA5310, symBinAddr: 0x1003296C0, symSize: 0x0 }
  - { offsetInCU: 0x13E44, offset: 0x52DA11, size: 0x8, addend: 0x0, symName: __ZN9PLYR_VIEWC2Ei, symObjAddr: 0x0, symBinAddr: 0x100059FCC, symSize: 0x880 }
  - { offsetInCU: 0x17DB2, offset: 0x53197F, size: 0x8, addend: 0x0, symName: __ZL10PlayerNamei, symObjAddr: 0x880, symBinAddr: 0x10005A84C, symSize: 0x3C }
  - { offsetInCU: 0x17DEF, offset: 0x5319BC, size: 0x8, addend: 0x0, symName: __ZL10PlayerNamei, symObjAddr: 0x880, symBinAddr: 0x10005A84C, symSize: 0x3C }
  - { offsetInCU: 0x17E16, offset: 0x5319E3, size: 0x8, addend: 0x0, symName: __ZL10PlayerNamei, symObjAddr: 0x880, symBinAddr: 0x10005A84C, symSize: 0x3C }
  - { offsetInCU: 0x17EF1, offset: 0x531ABE, size: 0x8, addend: 0x0, symName: __ZN9PLYR_VIEWC1Ei, symObjAddr: 0x8BC, symBinAddr: 0x10005A888, symSize: 0x4 }
  - { offsetInCU: 0x17F2D, offset: 0x531AFA, size: 0x8, addend: 0x0, symName: __ZN9PLYR_VIEWC1Ei, symObjAddr: 0x8BC, symBinAddr: 0x10005A888, symSize: 0x4 }
  - { offsetInCU: 0x17F47, offset: 0x531B14, size: 0x8, addend: 0x0, symName: __ZN9PLYR_VIEWD2Ev, symObjAddr: 0x8C0, symBinAddr: 0x10005A88C, symSize: 0x4C }
  - { offsetInCU: 0x17FA9, offset: 0x531B76, size: 0x8, addend: 0x0, symName: __ZN9PLYR_VIEWD1Ev, symObjAddr: 0x918, symBinAddr: 0x10005A8D8, symSize: 0x4 }
  - { offsetInCU: 0x17FCD, offset: 0x531B9A, size: 0x8, addend: 0x0, symName: __ZN9PLYR_VIEWD1Ev, symObjAddr: 0x918, symBinAddr: 0x10005A8D8, symSize: 0x4 }
  - { offsetInCU: 0x17FFC, offset: 0x531BC9, size: 0x8, addend: 0x0, symName: __ZN9PLYR_VIEWD0Ev, symObjAddr: 0x91C, symBinAddr: 0x10005A8DC, symSize: 0x14 }
  - { offsetInCU: 0x1805A, offset: 0x531C27, size: 0x8, addend: 0x0, symName: __ZN9PLYR_VIEW7SetNameERKNSt3__112basic_stringIcNS0_11char_traitsIcEENS0_9allocatorIcEEEE, symObjAddr: 0x930, symBinAddr: 0x10005A8F0, symSize: 0x104 }
  - { offsetInCU: 0x1855C, offset: 0x532129, size: 0x8, addend: 0x0, symName: __ZN9PLYR_VIEW7OnEventENSt3__112basic_stringIcNS0_11char_traitsIcEENS0_9allocatorIcEEEEi, symObjAddr: 0xA34, symBinAddr: 0x10005A9F4, symSize: 0x4 }
  - { offsetInCU: 0x18597, offset: 0x532164, size: 0x8, addend: 0x0, symName: __ZN9PLYR_VIEW5PaintEii, symObjAddr: 0xA38, symBinAddr: 0x10005A9F8, symSize: 0xA4 }
  - { offsetInCU: 0x26, offset: 0x533050, size: 0x8, addend: 0x0, symName: __ZN5Music4InitEPKc, symObjAddr: 0x0, symBinAddr: 0x10005AA9C, symSize: 0xD8 }
  - { offsetInCU: 0x39, offset: 0x533063, size: 0x8, addend: 0x0, symName: __ZN5Music14waveBackgroundE, symObjAddr: 0x6EC0, symBinAddr: 0x1003296C8, symSize: 0x0 }
  - { offsetInCU: 0x124, offset: 0x53314E, size: 0x8, addend: 0x0, symName: __ZL15backgroundMusic, symObjAddr: 0x1C0, symBinAddr: 0x1002C59D0, symSize: 0x0 }
  - { offsetInCU: 0x150, offset: 0x53317A, size: 0x8, addend: 0x0, symName: __ZL9c_current, symObjAddr: 0x412, symBinAddr: 0x10031C986, symSize: 0x0 }
  - { offsetInCU: 0x2AE5, offset: 0x535B0F, size: 0x8, addend: 0x0, symName: __ZN5Music4InitEPKc, symObjAddr: 0x0, symBinAddr: 0x10005AA9C, symSize: 0xD8 }
  - { offsetInCU: 0x2B75, offset: 0x535B9F, size: 0x8, addend: 0x0, symName: __ZN5Music8SetTrackEt, symObjAddr: 0x11C, symBinAddr: 0x10005AB74, symSize: 0x68 }
  - { offsetInCU: 0x2B9C, offset: 0x535BC6, size: 0x8, addend: 0x0, symName: __ZN5Music9SetVolumeEi, symObjAddr: 0x184, symBinAddr: 0x10005ABDC, symSize: 0x20 }
  - { offsetInCU: 0x4B, offset: 0x535C46, size: 0x8, addend: 0x0, symName: __ZL8casepathPKcPc, symObjAddr: 0xB4, symBinAddr: 0x10005ABFC, symSize: 0x1D4 }
  - { offsetInCU: 0x33E, offset: 0x535F39, size: 0x8, addend: 0x0, symName: _caseopen, symObjAddr: 0x288, symBinAddr: 0x10005ADD0, symSize: 0xCC }
  - { offsetInCU: 0xF160, offset: 0x5451A7, size: 0x8, addend: 0x0, symName: __Z14createUserFileNSt3__112basic_stringIcNS_11char_traitsIcEENS_9allocatorIcEEEES5_, symObjAddr: 0x0, symBinAddr: 0x10005AE9C, symSize: 0x1B8 }
  - { offsetInCU: 0x10001, offset: 0x546048, size: 0x8, addend: 0x0, symName: __Z10getUserDirNSt3__112basic_stringIcNS_11char_traitsIcEENS_9allocatorIcEEEE, symObjAddr: 0x1B8, symBinAddr: 0x10005B054, symSize: 0x1B4 }
  - { offsetInCU: 0x10DC0, offset: 0x546E07, size: 0x8, addend: 0x0, symName: __Z10getHomeDirv, symObjAddr: 0x528, symBinAddr: 0x10005B208, symSize: 0x2C }
  - { offsetInCU: 0x10E38, offset: 0x546E7F, size: 0x8, addend: 0x0, symName: __Z7mkpathsNSt3__112basic_stringIcNS_11char_traitsIcEENS_9allocatorIcEEEE, symObjAddr: 0x554, symBinAddr: 0x10005B234, symSize: 0xD0 }
  - { offsetInCU: 0x115C2, offset: 0x547609, size: 0x8, addend: 0x0, symName: __ZNSt3__14__fs10filesystem4pathC2B8ue170006INS_12basic_stringIcNS_11char_traitsIcEENS_9allocatorIcEEEEvEERKT_NS2_6formatE, symObjAddr: 0xB74, symBinAddr: 0x10005B5A8, symSize: 0x64 }
  - { offsetInCU: 0x1168A, offset: 0x5476D1, size: 0x8, addend: 0x0, symName: __ZNSt3__14__fs10filesystem4pathC2B8ue170006INS_12basic_stringIcNS_11char_traitsIcEENS_9allocatorIcEEEEvEERKT_NS2_6formatE, symObjAddr: 0xB74, symBinAddr: 0x10005B5A8, symSize: 0x64 }
  - { offsetInCU: 0x119DC, offset: 0x547A23, size: 0x8, addend: 0x0, symName: __Z14getAzariaCdDirNSt3__112basic_stringIcNS_11char_traitsIcEENS_9allocatorIcEEEE, symObjAddr: 0x6C0, symBinAddr: 0x10005B304, symSize: 0x1B4 }
  - { offsetInCU: 0x12789, offset: 0x5487D0, size: 0x8, addend: 0x0, symName: __Z15getDatabasePathv, symObjAddr: 0x874, symBinAddr: 0x10005B4B8, symSize: 0x84 }
  - { offsetInCU: 0x12AEE, offset: 0x548B35, size: 0x8, addend: 0x0, symName: __Z14getUserDumpDirv, symObjAddr: 0x8F8, symBinAddr: 0x10005B53C, symSize: 0x6C }
  - { offsetInCU: 0x130B4, offset: 0x5490FB, size: 0x8, addend: 0x0, symName: __ZNSt3__112basic_stringIcNS_11char_traitsIcEENS_9allocatorIcEEE6appendB8ue170006IPKcLi0EEERS5_T_SA_, symObjAddr: 0xBD8, symBinAddr: 0x10005B60C, symSize: 0x174 }
  - { offsetInCU: 0x13A09, offset: 0x549A50, size: 0x8, addend: 0x0, symName: __ZNSt3__112basic_stringIcNS_11char_traitsIcEENS_9allocatorIcEEE16__init_with_sizeB8ue170006IPKcS8_EEvT_T0_m, symObjAddr: 0xD4C, symBinAddr: 0x10005B780, symSize: 0x94 }
  - { offsetInCU: 0x26, offset: 0x54A03B, size: 0x8, addend: 0x0, symName: __Z7SetRectP4RECTiiii, symObjAddr: 0x0, symBinAddr: 0x10005B814, symSize: 0xC }
  - { offsetInCU: 0xEE72, offset: 0x558E87, size: 0x8, addend: 0x0, symName: __Z7SetRectP4RECTiiii, symObjAddr: 0x0, symBinAddr: 0x10005B814, symSize: 0xC }
  - { offsetInCU: 0x11C6F, offset: 0x55BC84, size: 0x8, addend: 0x0, symName: __ZN7CONTROLC2EP4VIEWNSt3__112basic_stringIcNS2_11char_traitsIcEENS2_9allocatorIcEEEES8_ii, symObjAddr: 0xC, symBinAddr: 0x10005B820, symSize: 0x198 }
  - { offsetInCU: 0x124BD, offset: 0x55C4D2, size: 0x8, addend: 0x0, symName: __ZN7CONTROL7RefreshEv, symObjAddr: 0x1A8, symBinAddr: 0x10005B9B8, symSize: 0x8 }
  - { offsetInCU: 0x124E0, offset: 0x55C4F5, size: 0x8, addend: 0x0, symName: __ZN7CONTROL11SetStrValueENSt3__112basic_stringIcNS0_11char_traitsIcEENS0_9allocatorIcEEEE, symObjAddr: 0x1B0, symBinAddr: 0x10005B9C0, symSize: 0x30 }
  - { offsetInCU: 0x12631, offset: 0x55C646, size: 0x8, addend: 0x0, symName: __ZN6BUTTONC2EP4VIEWNSt3__112basic_stringIcNS2_11char_traitsIcEENS2_9allocatorIcEEEEiiS8_S8_, symObjAddr: 0x1E0, symBinAddr: 0x10005B9F0, symSize: 0x218 }
  - { offsetInCU: 0x13254, offset: 0x55D269, size: 0x8, addend: 0x0, symName: __ZN6BUTTON12LoadBtnImageEP3ONEiNSt3__112basic_stringIcNS2_11char_traitsIcEENS2_9allocatorIcEEEEii, symObjAddr: 0x3F8, symBinAddr: 0x10005BC08, symSize: 0xEC }
  - { offsetInCU: 0x13605, offset: 0x55D61A, size: 0x8, addend: 0x0, symName: __ZN7CONTROLD2Ev, symObjAddr: 0x4E4, symBinAddr: 0x10005BCF4, symSize: 0x64 }
  - { offsetInCU: 0x138A0, offset: 0x55D8B5, size: 0x8, addend: 0x0, symName: __ZN6BUTTONC1EP4VIEWNSt3__112basic_stringIcNS2_11char_traitsIcEENS2_9allocatorIcEEEEiiS8_S8_, symObjAddr: 0x548, symBinAddr: 0x10005BD58, symSize: 0x4 }
  - { offsetInCU: 0x138F7, offset: 0x55D90C, size: 0x8, addend: 0x0, symName: __ZN6BUTTONC1EP4VIEWNSt3__112basic_stringIcNS2_11char_traitsIcEENS2_9allocatorIcEEEEiiS8_S8_, symObjAddr: 0x548, symBinAddr: 0x10005BD58, symSize: 0x4 }
  - { offsetInCU: 0x13934, offset: 0x55D949, size: 0x8, addend: 0x0, symName: __ZN6BUTTOND2Ev, symObjAddr: 0x54C, symBinAddr: 0x10005BD5C, symSize: 0x4C }
  - { offsetInCU: 0x13976, offset: 0x55D98B, size: 0x8, addend: 0x0, symName: __ZN6BUTTOND1Ev, symObjAddr: 0x598, symBinAddr: 0x10005BDA8, symSize: 0x4 }
  - { offsetInCU: 0x1399A, offset: 0x55D9AF, size: 0x8, addend: 0x0, symName: __ZN6BUTTOND1Ev, symObjAddr: 0x598, symBinAddr: 0x10005BDA8, symSize: 0x4 }
  - { offsetInCU: 0x139CE, offset: 0x55D9E3, size: 0x8, addend: 0x0, symName: __ZN6BUTTOND0Ev, symObjAddr: 0x59C, symBinAddr: 0x10005BDAC, symSize: 0x14 }
  - { offsetInCU: 0x13A2C, offset: 0x55DA41, size: 0x8, addend: 0x0, symName: __ZN6BUTTON5ClickE5POINT, symObjAddr: 0x5B0, symBinAddr: 0x10005BDC0, symSize: 0xA0 }
  - { offsetInCU: 0x13D6F, offset: 0x55DD84, size: 0x8, addend: 0x0, symName: __ZN6BUTTON7RefreshEv, symObjAddr: 0x650, symBinAddr: 0x10005BE60, symSize: 0x8 }
  - { offsetInCU: 0x13D9B, offset: 0x55DDB0, size: 0x8, addend: 0x0, symName: __ZN6BUTTON7RefreshEv, symObjAddr: 0x650, symBinAddr: 0x10005BE60, symSize: 0x8 }
  - { offsetInCU: 0x13DB8, offset: 0x55DDCD, size: 0x8, addend: 0x0, symName: __ZN6BUTTON8SetFocusE5POINTb, symObjAddr: 0x658, symBinAddr: 0x10005BE68, symSize: 0x48 }
  - { offsetInCU: 0x13EAE, offset: 0x55DEC3, size: 0x8, addend: 0x0, symName: __ZN8CHECKBOXC2EP4VIEWNSt3__112basic_stringIcNS2_11char_traitsIcEENS2_9allocatorIcEEEEiiS8_S8_, symObjAddr: 0x6A0, symBinAddr: 0x10005BEB0, symSize: 0x170 }
  - { offsetInCU: 0x148A4, offset: 0x55E8B9, size: 0x8, addend: 0x0, symName: __ZN8CHECKBOXC1EP4VIEWNSt3__112basic_stringIcNS2_11char_traitsIcEENS2_9allocatorIcEEEEiiS8_S8_, symObjAddr: 0x810, symBinAddr: 0x10005C020, symSize: 0x4 }
  - { offsetInCU: 0x14929, offset: 0x55E93E, size: 0x8, addend: 0x0, symName: __ZN8CHECKBOXC1EP4VIEWNSt3__112basic_stringIcNS2_11char_traitsIcEENS2_9allocatorIcEEEEiiS8_S8_, symObjAddr: 0x810, symBinAddr: 0x10005C020, symSize: 0x4 }
  - { offsetInCU: 0x14966, offset: 0x55E97B, size: 0x8, addend: 0x0, symName: __ZN8CHECKBOX8SetFocusE5POINTb, symObjAddr: 0x814, symBinAddr: 0x10005C024, symSize: 0x10 }
  - { offsetInCU: 0x149BF, offset: 0x55E9D4, size: 0x8, addend: 0x0, symName: __ZN8CHECKBOX10SetCheckedEb, symObjAddr: 0x824, symBinAddr: 0x10005C034, symSize: 0x50 }
  - { offsetInCU: 0x14A11, offset: 0x55EA26, size: 0x8, addend: 0x0, symName: __ZN8CHECKBOX5ClickE5POINT, symObjAddr: 0x874, symBinAddr: 0x10005C084, symSize: 0xB4 }
  - { offsetInCU: 0x15218, offset: 0x55F22D, size: 0x8, addend: 0x0, symName: __ZN7LISTBOXC2EP8CTRLVIEWNSt3__112basic_stringIcNS2_11char_traitsIcEENS2_9allocatorIcEEEES8_iiiiiPFPKciE, symObjAddr: 0x928, symBinAddr: 0x10005C138, symSize: 0x1EC }
  - { offsetInCU: 0x1619B, offset: 0x5601B0, size: 0x8, addend: 0x0, symName: __ZN7LISTBOX9ChangeSelEi, symObjAddr: 0xB94, symBinAddr: 0x10005C374, symSize: 0x64 }
  - { offsetInCU: 0x162B6, offset: 0x5602CB, size: 0x8, addend: 0x0, symName: __ZN7LISTBOXC1EP8CTRLVIEWNSt3__112basic_stringIcNS2_11char_traitsIcEENS2_9allocatorIcEEEES8_iiiiiPFPKciE, symObjAddr: 0xB44, symBinAddr: 0x10005C324, symSize: 0x14 }
  - { offsetInCU: 0x163AA, offset: 0x5603BF, size: 0x8, addend: 0x0, symName: __ZN7LISTBOX5ClickE5POINT, symObjAddr: 0xB58, symBinAddr: 0x10005C338, symSize: 0x3C }
  - { offsetInCU: 0x16472, offset: 0x560487, size: 0x8, addend: 0x0, symName: __ZN7LISTBOX5WriteEij, symObjAddr: 0xBF8, symBinAddr: 0x10005C3D8, symSize: 0xB0 }
  - { offsetInCU: 0x166BE, offset: 0x5606D3, size: 0x8, addend: 0x0, symName: __ZN5CFONT7TextOutEP3ONEjiiPKc, symObjAddr: 0xCA8, symBinAddr: 0x10005C488, symSize: 0xCC }
  - { offsetInCU: 0x16C8E, offset: 0x560CA3, size: 0x8, addend: 0x0, symName: __ZN7LISTBOX6KeycmdEii, symObjAddr: 0xD74, symBinAddr: 0x10005C554, symSize: 0x88 }
  - { offsetInCU: 0x16CEB, offset: 0x560D00, size: 0x8, addend: 0x0, symName: __ZN7LISTBOX7RefreshEv, symObjAddr: 0xDFC, symBinAddr: 0x10005C5DC, symSize: 0x7C }
  - { offsetInCU: 0x16E4F, offset: 0x560E64, size: 0x8, addend: 0x0, symName: __ZN5LABELC2EP4VIEWNSt3__112basic_stringIcNS2_11char_traitsIcEENS2_9allocatorIcEEEEiiS8_S8_S8_j, symObjAddr: 0xE78, symBinAddr: 0x10005C658, symSize: 0x284 }
  - { offsetInCU: 0x17CF0, offset: 0x561D05, size: 0x8, addend: 0x0, symName: __ZN5LABEL5WriteENSt3__112basic_stringIcNS0_11char_traitsIcEENS0_9allocatorIcEEEE, symObjAddr: 0x10FC, symBinAddr: 0x10005C8DC, symSize: 0x9C }
  - { offsetInCU: 0x1804E, offset: 0x562063, size: 0x8, addend: 0x0, symName: __ZN5LABELC1EP4VIEWNSt3__112basic_stringIcNS2_11char_traitsIcEENS2_9allocatorIcEEEEiiS8_S8_S8_j, symObjAddr: 0x1198, symBinAddr: 0x10005C978, symSize: 0xC }
  - { offsetInCU: 0x1813E, offset: 0x562153, size: 0x8, addend: 0x0, symName: __ZN5LABEL7RefreshEv, symObjAddr: 0x1250, symBinAddr: 0x10005C984, symSize: 0x90 }
  - { offsetInCU: 0x185C1, offset: 0x5625D6, size: 0x8, addend: 0x0, symName: __ZN7EDITBOXC2EP4VIEWNSt3__112basic_stringIcNS2_11char_traitsIcEENS2_9allocatorIcEEEES8_iiiiS8_S8_ji, symObjAddr: 0x12E0, symBinAddr: 0x10005CA14, symSize: 0x278 }
  - { offsetInCU: 0x19318, offset: 0x56332D, size: 0x8, addend: 0x0, symName: __ZN7EDITBOX5WriteENSt3__112basic_stringIcNS0_11char_traitsIcEENS0_9allocatorIcEEEE, symObjAddr: 0x1558, symBinAddr: 0x10005CC8C, symSize: 0x9C }
  - { offsetInCU: 0x19676, offset: 0x56368B, size: 0x8, addend: 0x0, symName: __ZN7EDITBOXC1EP4VIEWNSt3__112basic_stringIcNS2_11char_traitsIcEENS2_9allocatorIcEEEES8_iiiiS8_S8_ji, symObjAddr: 0x15F4, symBinAddr: 0x10005CD28, symSize: 0x14 }
  - { offsetInCU: 0x198F0, offset: 0x563905, size: 0x8, addend: 0x0, symName: __ZN7EDITBOX6KeycmdEii, symObjAddr: 0x1608, symBinAddr: 0x10005CD3C, symSize: 0x160 }
  - { offsetInCU: 0x19E21, offset: 0x563E36, size: 0x8, addend: 0x0, symName: __ZN7EDITBOX7RefreshEv, symObjAddr: 0x1768, symBinAddr: 0x10005CE9C, symSize: 0x90 }
  - { offsetInCU: 0x1A376, offset: 0x56438B, size: 0x8, addend: 0x0, symName: __ZN6SLIDERC2EP4VIEWNSt3__112basic_stringIcNS2_11char_traitsIcEENS2_9allocatorIcEEEEiiiiiiiS8_S8_, symObjAddr: 0x17F8, symBinAddr: 0x10005CF2C, symSize: 0x3F0 }
  - { offsetInCU: 0x1C05C, offset: 0x566071, size: 0x8, addend: 0x0, symName: __ZN6SLIDERC1EP4VIEWNSt3__112basic_stringIcNS2_11char_traitsIcEENS2_9allocatorIcEEEEiiiiiiiS8_S8_, symObjAddr: 0x1BE8, symBinAddr: 0x10005D31C, symSize: 0x14 }
  - { offsetInCU: 0x1C1BD, offset: 0x5661D2, size: 0x8, addend: 0x0, symName: __ZN6SLIDER5ClickE5POINT, symObjAddr: 0x1BFC, symBinAddr: 0x10005D330, symSize: 0x16C }
  - { offsetInCU: 0x1C586, offset: 0x56659B, size: 0x8, addend: 0x0, symName: __ZN7CONTROL8PtInRectE5POINT, symObjAddr: 0x1D68, symBinAddr: 0x10005D49C, symSize: 0x44 }
  - { offsetInCU: 0x1C5F9, offset: 0x56660E, size: 0x8, addend: 0x0, symName: __ZN6SLIDER8SetFocusE5POINTb, symObjAddr: 0x1DAC, symBinAddr: 0x10005D4E0, symSize: 0x9C }
  - { offsetInCU: 0x1C6B3, offset: 0x5666C8, size: 0x8, addend: 0x0, symName: __ZN7CONTROLD1Ev, symObjAddr: 0x1E48, symBinAddr: 0x10005D57C, symSize: 0x4 }
  - { offsetInCU: 0x1C6D7, offset: 0x5666EC, size: 0x8, addend: 0x0, symName: __ZN7CONTROLD1Ev, symObjAddr: 0x1E48, symBinAddr: 0x10005D57C, symSize: 0x4 }
  - { offsetInCU: 0x1C704, offset: 0x566719, size: 0x8, addend: 0x0, symName: __ZN7CONTROLD0Ev, symObjAddr: 0x1E4C, symBinAddr: 0x10005D580, symSize: 0x14 }
  - { offsetInCU: 0x1C760, offset: 0x566775, size: 0x8, addend: 0x0, symName: __ZN7CONTROL6KeycmdEii, symObjAddr: 0x1E60, symBinAddr: 0x10005D594, symSize: 0x8 }
  - { offsetInCU: 0x1C7A5, offset: 0x5667BA, size: 0x8, addend: 0x0, symName: __ZN7CONTROL5ClickE5POINT, symObjAddr: 0x1E68, symBinAddr: 0x10005D59C, symSize: 0x4 }
  - { offsetInCU: 0x1C7DA, offset: 0x5667EF, size: 0x8, addend: 0x0, symName: __ZN7CONTROL8SetFocusE5POINTb, symObjAddr: 0x1E6C, symBinAddr: 0x10005D5A0, symSize: 0x4 }
  - { offsetInCU: 0x1C822, offset: 0x566837, size: 0x8, addend: 0x0, symName: __ZN7CONTROL11GetStrValueEv, symObjAddr: 0x1E70, symBinAddr: 0x10005D5A4, symSize: 0x2C }
  - { offsetInCU: 0x1C87B, offset: 0x566890, size: 0x8, addend: 0x0, symName: __ZN7CONTROL11GetStrValueEv, symObjAddr: 0x1E70, symBinAddr: 0x10005D5A4, symSize: 0x2C }
  - { offsetInCU: 0x1C8CE, offset: 0x5668E3, size: 0x8, addend: 0x0, symName: __ZN7LISTBOXD1Ev, symObjAddr: 0x1E9C, symBinAddr: 0x10005D5D0, symSize: 0x30 }
  - { offsetInCU: 0x1C96C, offset: 0x566981, size: 0x8, addend: 0x0, symName: __ZN7LISTBOXD0Ev, symObjAddr: 0x1ECC, symBinAddr: 0x10005D600, symSize: 0x34 }
  - { offsetInCU: 0x1CA32, offset: 0x566A47, size: 0x8, addend: 0x0, symName: __ZN7EDITBOXD1Ev, symObjAddr: 0x1F00, symBinAddr: 0x10005D634, symSize: 0x4 }
  - { offsetInCU: 0x1CA56, offset: 0x566A6B, size: 0x8, addend: 0x0, symName: __ZN7EDITBOXD1Ev, symObjAddr: 0x1F00, symBinAddr: 0x10005D634, symSize: 0x4 }
  - { offsetInCU: 0x1CA74, offset: 0x566A89, size: 0x8, addend: 0x0, symName: __ZN7EDITBOXD1Ev, symObjAddr: 0x1F00, symBinAddr: 0x10005D634, symSize: 0x4 }
  - { offsetInCU: 0x1CAA1, offset: 0x566AB6, size: 0x8, addend: 0x0, symName: __ZN7EDITBOXD0Ev, symObjAddr: 0x1F04, symBinAddr: 0x10005D638, symSize: 0x14 }
  - { offsetInCU: 0x1CB1B, offset: 0x566B30, size: 0x8, addend: 0x0, symName: __ZN7EDITBOX8SetFocusE5POINTb, symObjAddr: 0x1F18, symBinAddr: 0x10005D64C, symSize: 0x4 }
  - { offsetInCU: 0x1CB84, offset: 0x566B99, size: 0x8, addend: 0x0, symName: __ZN8CHECKBOXD1Ev, symObjAddr: 0x1F1C, symBinAddr: 0x10005D650, symSize: 0x4 }
  - { offsetInCU: 0x1CBA8, offset: 0x566BBD, size: 0x8, addend: 0x0, symName: __ZN8CHECKBOXD1Ev, symObjAddr: 0x1F1C, symBinAddr: 0x10005D650, symSize: 0x4 }
  - { offsetInCU: 0x1CBC6, offset: 0x566BDB, size: 0x8, addend: 0x0, symName: __ZN8CHECKBOXD1Ev, symObjAddr: 0x1F1C, symBinAddr: 0x10005D650, symSize: 0x4 }
  - { offsetInCU: 0x1CBF5, offset: 0x566C0A, size: 0x8, addend: 0x0, symName: __ZN8CHECKBOXD0Ev, symObjAddr: 0x1F20, symBinAddr: 0x10005D654, symSize: 0x14 }
  - { offsetInCU: 0x1CC92, offset: 0x566CA7, size: 0x8, addend: 0x0, symName: __ZN5LABELD1Ev, symObjAddr: 0x1F34, symBinAddr: 0x10005D668, symSize: 0x3C }
  - { offsetInCU: 0x1CE44, offset: 0x566E59, size: 0x8, addend: 0x0, symName: __ZN5LABELD0Ev, symObjAddr: 0x1F70, symBinAddr: 0x10005D6A4, symSize: 0x40 }
  - { offsetInCU: 0x1D020, offset: 0x567035, size: 0x8, addend: 0x0, symName: __ZN6SLIDERD1Ev, symObjAddr: 0x1FB0, symBinAddr: 0x10005D6E4, symSize: 0x48 }
  - { offsetInCU: 0x1D0F9, offset: 0x56710E, size: 0x8, addend: 0x0, symName: __ZN6SLIDERD0Ev, symObjAddr: 0x1FF8, symBinAddr: 0x10005D72C, symSize: 0x4C }
  - { offsetInCU: 0x1D1DB, offset: 0x5671F0, size: 0x8, addend: 0x0, symName: __ZN6SLIDER8PtInRectE5POINT, symObjAddr: 0x2044, symBinAddr: 0x10005D778, symSize: 0x7C }
  - { offsetInCU: 0x18115, offset: 0x57F5FA, size: 0x8, addend: 0x0, symName: __Z11splitStringRKNSt3__112basic_stringIcNS_11char_traitsIcEENS_9allocatorIcEEEE, symObjAddr: 0x0, symBinAddr: 0x10005D7F4, symSize: 0x160 }
  - { offsetInCU: 0x18F4B, offset: 0x580430, size: 0x8, addend: 0x0, symName: __Z10object_isaRKNSt3__112basic_stringIcNS_11char_traitsIcEENS_9allocatorIcEEEES7_, symObjAddr: 0x160, symBinAddr: 0x10005D954, symSize: 0x30C }
  - { offsetInCU: 0x1A2F1, offset: 0x5817D6, size: 0x8, addend: 0x0, symName: __ZN7TBL_ISA4FindENSt3__112basic_stringIcNS0_11char_traitsIcEENS0_9allocatorIcEEEES6_, symObjAddr: 0x1238, symBinAddr: 0x10005E4C0, symSize: 0x16C }
  - { offsetInCU: 0x1A5B6, offset: 0x581A9B, size: 0x8, addend: 0x0, symName: __ZN10TRANSITION15MatchTransitionEhhNSt3__112basic_stringIcNS0_11char_traitsIcEENS0_9allocatorIcEEEES6_, symObjAddr: 0x46C, symBinAddr: 0x10005DC60, symSize: 0x150 }
  - { offsetInCU: 0x1AAC8, offset: 0x581FAD, size: 0x8, addend: 0x0, symName: __ZN10TRANSITION4LoadEv, symObjAddr: 0x5BC, symBinAddr: 0x10005DDB0, symSize: 0x510 }
  - { offsetInCU: 0x1CC05, offset: 0x5840EA, size: 0x8, addend: 0x0, symName: __ZN9SymbolSet6opcodeENSt3__112basic_stringIcNS0_11char_traitsIcEENS0_9allocatorIcEEEEPh, symObjAddr: 0xACC, symBinAddr: 0x10005E2C0, symSize: 0x84 }
  - { offsetInCU: 0x1CE0D, offset: 0x5842F2, size: 0x8, addend: 0x0, symName: __ZN13TblAutomatons3AddENSt3__112basic_stringIcNS0_11char_traitsIcEENS0_9allocatorIcEEEEP10TRANSITION, symObjAddr: 0xB50, symBinAddr: 0x10005E344, symSize: 0x10C }
  - { offsetInCU: 0x1DC92, offset: 0x585177, size: 0x8, addend: 0x0, symName: __ZNKSt3__16__treeINS_12__value_typeINS_12basic_stringIcNS_11char_traitsIcEENS_9allocatorIcEEEEiEENS_19__map_value_compareIS7_S8_NS_4lessIS7_EELb1EEENS5_IS8_EEE4findIS7_EENS_21__tree_const_iteratorIS8_PNS_11__tree_nodeIS8_PvEElEERKT_, symObjAddr: 0x14DC, symBinAddr: 0x10005E62C, symSize: 0x7C }
  - { offsetInCU: 0x1E8C1, offset: 0x585DA6, size: 0x8, addend: 0x0, symName: __ZN9Automaton3AddEP10TRANSITION, symObjAddr: 0x1C48, symBinAddr: 0x10005E6A8, symSize: 0x148 }
  - { offsetInCU: 0x1F423, offset: 0x586908, size: 0x8, addend: 0x0, symName: __ZN10TRANSITION4LinkEv, symObjAddr: 0xC5C, symBinAddr: 0x10005E450, symSize: 0x70 }
  - { offsetInCU: 0x40, offset: 0x58FDF0, size: 0x8, addend: 0x0, symName: __ZL6server, symObjAddr: 0x8BAA0, symBinAddr: 0x100458538, symSize: 0x0 }
  - { offsetInCU: 0x9E00, offset: 0x599BB0, size: 0x8, addend: 0x0, symName: __ZNSt3__114__thread_proxyB8ue170006INS_5tupleIJNS_10unique_ptrINS_15__thread_structENS_14default_deleteIS3_EEEEPFvRK10ServerDataES7_EEEEEPvSD_, symObjAddr: 0xA58, symBinAddr: 0x10005F0B0, symSize: 0x88 }
  - { offsetInCU: 0xA888, offset: 0x59A638, size: 0x8, addend: 0x0, symName: __ZL2t1, symObjAddr: 0x8BB78, symBinAddr: 0x100458610, symSize: 0x0 }
  - { offsetInCU: 0xE68F, offset: 0x59E43F, size: 0x8, addend: 0x0, symName: __ZN8wsServerD1Ev, symObjAddr: 0x0, symBinAddr: 0x10005E7F0, symSize: 0x3C }
  - { offsetInCU: 0xEB7B, offset: 0x59E92B, size: 0x8, addend: 0x0, symName: __Z7ws_testiNSt3__112basic_stringIcNS_11char_traitsIcEENS_9allocatorIcEEEE, symObjAddr: 0x3C, symBinAddr: 0x10005E82C, symSize: 0xAC }
  - { offsetInCU: 0xEFA1, offset: 0x59ED51, size: 0x8, addend: 0x0, symName: __ZNSt3__16threadC2IRFvRK10ServerDataEJRS2_EvEEOT_DpOT0_, symObjAddr: 0x94C, symBinAddr: 0x10005EFA4, symSize: 0x10C }
  - { offsetInCU: 0xF43F, offset: 0x59F1EF, size: 0x8, addend: 0x0, symName: __ZL13server_threadRK10ServerData, symObjAddr: 0xE8, symBinAddr: 0x10005E8D8, symSize: 0xC8 }
  - { offsetInCU: 0xF968, offset: 0x59F718, size: 0x8, addend: 0x0, symName: __ZNSt3__16threadC2IRFvRK10ServerDataEJRS2_EvEEOT_DpOT0_, symObjAddr: 0x94C, symBinAddr: 0x10005EFA4, symSize: 0x10C }
  - { offsetInCU: 0xF979, offset: 0x59F729, size: 0x8, addend: 0x0, symName: __Z8wss_sendNSt3__112basic_stringIcNS_11char_traitsIcEENS_9allocatorIcEEEE, symObjAddr: 0x1B0, symBinAddr: 0x10005E9A0, symSize: 0x4 }
  - { offsetInCU: 0xFAE8, offset: 0x59F898, size: 0x8, addend: 0x0, symName: __Z9webSocketNSt3__112basic_stringIcNS_11char_traitsIcEENS_9allocatorIcEEEES5_S5_, symObjAddr: 0x1B4, symBinAddr: 0x10005E9A4, symSize: 0x1A8 }
  - { offsetInCU: 0x104E5, offset: 0x5A0295, size: 0x8, addend: 0x0, symName: __ZL11openHandleri, symObjAddr: 0x424, symBinAddr: 0x10005EB4C, symSize: 0xF8 }
  - { offsetInCU: 0x10E3D, offset: 0x5A0BED, size: 0x8, addend: 0x0, symName: __ZL12closeHandleri, symObjAddr: 0x51C, symBinAddr: 0x10005EC44, symSize: 0x150 }
  - { offsetInCU: 0x1188A, offset: 0x5A163A, size: 0x8, addend: 0x0, symName: __ZNSt3__16vectorIhNS_9allocatorIhEEE16__init_with_sizeB8ue170006INS_11__wrap_iterIPcEES7_EEvT_T0_m, symObjAddr: 0x80C, symBinAddr: 0x10005EF34, symSize: 0x70 }
  - { offsetInCU: 0x11C22, offset: 0x5A19D2, size: 0x8, addend: 0x0, symName: __ZL14messageHandleriNSt3__112basic_stringIcNS_11char_traitsIcEENS_9allocatorIcEEEE, symObjAddr: 0x66C, symBinAddr: 0x10005ED94, symSize: 0x1A0 }
  - { offsetInCU: 0x131D9, offset: 0x5A2F89, size: 0x8, addend: 0x0, symName: __ZNSt3__112__tuple_implINS_15__tuple_indicesIJLm0ELm1ELm2EEEEJNS_10unique_ptrINS_15__thread_structENS_14default_deleteIS4_EEEEPFvRK10ServerDataES8_EEC2B8ue170006IJLm0ELm1ELm2EEJS7_SC_S8_EJEJEJS7_RSB_RS8_EEENS1_IJXspT_EEEENS_13__tuple_typesIJDpT0_EEENS1_IJXspT1_EEEENSI_IJDpT2_EEEDpOT3_, symObjAddr: 0xAE0, symBinAddr: 0x10005F138, symSize: 0x78 }
  - { offsetInCU: 0x13536, offset: 0x5A32E6, size: 0x8, addend: 0x0, symName: __ZNKSt3__114default_deleteINS_5tupleIJNS_10unique_ptrINS_15__thread_structENS0_IS3_EEEEPFvRK10ServerDataES6_EEEEclB8ue170006EPSB_, symObjAddr: 0xB58, symBinAddr: 0x10005F1B0, symSize: 0x44 }
  - { offsetInCU: 0x57C7, offset: 0x5A91AC, size: 0x8, addend: 0x0, symName: __ZN10TBL_STRMAP8getValueENSt3__112basic_stringIcNS0_11char_traitsIcEENS0_9allocatorIcEEEE, symObjAddr: 0xC8, symBinAddr: 0x10005F230, symSize: 0x194 }
  - { offsetInCU: 0x5D8A, offset: 0x5A976F, size: 0x8, addend: 0x0, symName: __ZN10TBL_STRMAP4DumpEv, symObjAddr: 0x25C, symBinAddr: 0x10005F3C4, symSize: 0x42C }
  - { offsetInCU: 0x7D63, offset: 0x5AB748, size: 0x8, addend: 0x0, symName: __ZN10TBL_STRMAP4LoadENSt3__112basic_stringIcNS0_11char_traitsIcEENS0_9allocatorIcEEEEi, symObjAddr: 0x688, symBinAddr: 0x10005F7F0, symSize: 0x458 }
  - { offsetInCU: 0x3A, offset: 0x5AD3C3, size: 0x8, addend: 0x0, symName: __ZN7MACHINE9trace_allE, symObjAddr: 0x2CA648, symBinAddr: 0x1003296E8, symSize: 0x0 }
  - { offsetInCU: 0x1571D, offset: 0x5C2AA6, size: 0x8, addend: 0x0, symName: __ZNSt3__1eqB8ue170006INS_9allocatorIcEEEEbRKNS_12basic_stringIcNS_11char_traitsIcEET_EES9_, symObjAddr: 0x6AD8, symBinAddr: 0x1000658EC, symSize: 0x9C }
  - { offsetInCU: 0x1927C, offset: 0x5C6605, size: 0x8, addend: 0x0, symName: __ZN7MACHINE6c_RandE, symObjAddr: 0x2CA650, symBinAddr: 0x1003296F0, symSize: 0x0 }
  - { offsetInCU: 0x19290, offset: 0x5C6619, size: 0x8, addend: 0x0, symName: __ZN7MACHINE5c_PidE, symObjAddr: 0x2CA678, symBinAddr: 0x100329718, symSize: 0x0 }
  - { offsetInCU: 0x192AB, offset: 0x5C6634, size: 0x8, addend: 0x0, symName: _mon_machines, symObjAddr: 0x224F8, symBinAddr: 0x10031C988, symSize: 0x0 }
  - { offsetInCU: 0x192C0, offset: 0x5C6649, size: 0x8, addend: 0x0, symName: _mon_user_mach, symObjAddr: 0x224F9, symBinAddr: 0x10031C989, symSize: 0x0 }
  - { offsetInCU: 0x192C9, offset: 0x5C6652, size: 0x8, addend: 0x0, symName: __ZN7MACHINE10_GetRegValENSt3__112basic_stringIcNS0_11char_traitsIcEENS0_9allocatorIcEEEE, symObjAddr: 0x8E4, symBinAddr: 0x1000604B8, symSize: 0x7E4 }
  - { offsetInCU: 0x192EF, offset: 0x5C6678, size: 0x8, addend: 0x0, symName: __ZZN7MACHINE10_GetRegValENSt3__112basic_stringIcNS0_11char_traitsIcEENS0_9allocatorIcEEEEE6pseudo, symObjAddr: 0x2CA690, symBinAddr: 0x100458618, symSize: 0x0 }
  - { offsetInCU: 0x1B215, offset: 0x5C859E, size: 0x8, addend: 0x0, symName: __ZL7yOffset, symObjAddr: 0x2CA6C0, symBinAddr: 0x100458648, symSize: 0x0 }
  - { offsetInCU: 0x1B22F, offset: 0x5C85B8, size: 0x8, addend: 0x0, symName: __ZL7xOffset, symObjAddr: 0x2CA6C8, symBinAddr: 0x100458650, symSize: 0x0 }
  - { offsetInCU: 0x20CCF, offset: 0x5CE058, size: 0x8, addend: 0x0, symName: __ZN4ParmD1Ev, symObjAddr: 0x0, symBinAddr: 0x10005FC48, symSize: 0x30 }
  - { offsetInCU: 0x21024, offset: 0x5CE3AD, size: 0x8, addend: 0x0, symName: __ZN7MACHINE10GetParmValE4Parm, symObjAddr: 0x30, symBinAddr: 0x10005FC78, symSize: 0x1D4 }
  - { offsetInCU: 0x21F39, offset: 0x5CF2C2, size: 0x8, addend: 0x0, symName: __ZN7MACHINE9GetStrValENSt3__112basic_stringIcNS0_11char_traitsIcEENS0_9allocatorIcEEEE, symObjAddr: 0x204, symBinAddr: 0x10005FE4C, symSize: 0x2C8 }
  - { offsetInCU: 0x22E88, offset: 0x5D0211, size: 0x8, addend: 0x0, symName: __ZN9SymbolSet11register_idENSt3__112basic_stringIcNS0_11char_traitsIcEENS0_9allocatorIcEEEEPi, symObjAddr: 0x860, symBinAddr: 0x100060434, symSize: 0x84 }
  - { offsetInCU: 0x22FA9, offset: 0x5D0332, size: 0x8, addend: 0x0, symName: __ZN9SymbolSet9intrinsicENSt3__112basic_stringIcNS0_11char_traitsIcEENS0_9allocatorIcEEEEPi, symObjAddr: 0x10C8, symBinAddr: 0x100060C9C, symSize: 0x84 }
  - { offsetInCU: 0x2325B, offset: 0x5D05E4, size: 0x8, addend: 0x0, symName: __ZN13TBL_CONSTANTS8getValueENSt3__112basic_stringIcNS0_11char_traitsIcEENS0_9allocatorIcEEEEPi, symObjAddr: 0x114C, symBinAddr: 0x100060D20, symSize: 0x40 }
  - { offsetInCU: 0x23303, offset: 0x5D068C, size: 0x8, addend: 0x0, symName: __ZN7MACHINE9GetIntValENSt3__112basic_stringIcNS0_11char_traitsIcEENS0_9allocatorIcEEEE, symObjAddr: 0x4CC, symBinAddr: 0x100060114, symSize: 0x320 }
  - { offsetInCU: 0x252F0, offset: 0x5D2679, size: 0x8, addend: 0x0, symName: __ZN13TBL_CONSTANTS8getRowidERKNSt3__112basic_stringIcNS0_11char_traitsIcEENS0_9allocatorIcEEEE, symObjAddr: 0xB58C, symBinAddr: 0x100068FD4, symSize: 0x138 }
  - { offsetInCU: 0x255E5, offset: 0x5D296E, size: 0x8, addend: 0x0, symName: __ZN13TBL_CONSTANTS8getValueEiPi, symObjAddr: 0xB6C4, symBinAddr: 0x10006910C, symSize: 0x78 }
  - { offsetInCU: 0x2565A, offset: 0x5D29E3, size: 0x8, addend: 0x0, symName: __ZN7MACHINE9GetStrValER4Parm, symObjAddr: 0x118C, symBinAddr: 0x100060D60, symSize: 0x94 }
  - { offsetInCU: 0x259AC, offset: 0x5D2D35, size: 0x8, addend: 0x0, symName: __ZN7MACHINE9GetIntValER4Parm, symObjAddr: 0x1220, symBinAddr: 0x100060DF4, symSize: 0x94 }
  - { offsetInCU: 0x25CF8, offset: 0x5D3081, size: 0x8, addend: 0x0, symName: __ZN7MACHINE13GetNonzeroValER4ParmS1_, symObjAddr: 0x12B4, symBinAddr: 0x100060E88, symSize: 0x110 }
  - { offsetInCU: 0x26232, offset: 0x5D35BB, size: 0x8, addend: 0x0, symName: __ZN7MACHINE12GetNamedParmE4ParmS0_, symObjAddr: 0x13C4, symBinAddr: 0x100060F98, symSize: 0x2C8 }
  - { offsetInCU: 0x273AF, offset: 0x5D4738, size: 0x8, addend: 0x0, symName: __ZN7MACHINE9SetRegValER4Parmi, symObjAddr: 0x173C, symBinAddr: 0x100061260, symSize: 0x78 }
  - { offsetInCU: 0x276A6, offset: 0x5D4A2F, size: 0x8, addend: 0x0, symName: __ZN7MACHINE9SetRegValER4ParmNSt3__112basic_stringIcNS2_11char_traitsIcEENS2_9allocatorIcEEEE, symObjAddr: 0x17B4, symBinAddr: 0x1000612D8, symSize: 0xEC }
  - { offsetInCU: 0x27D22, offset: 0x5D50AB, size: 0x8, addend: 0x0, symName: __ZN7MACHINE9SetRegValENSt3__112basic_stringIcNS0_11char_traitsIcEENS0_9allocatorIcEEEES6_, symObjAddr: 0x18A0, symBinAddr: 0x1000613C4, symSize: 0x5DC }
  - { offsetInCU: 0x2953C, offset: 0x5D68C5, size: 0x8, addend: 0x0, symName: __ZN12LOCAL_PLAYER8SetKarmaEt, symObjAddr: 0x1E7C, symBinAddr: 0x1000619A0, symSize: 0x70 }
  - { offsetInCU: 0x29824, offset: 0x5D6BAD, size: 0x8, addend: 0x0, symName: __ZN12LOCAL_PLAYER9SetWisdomEt, symObjAddr: 0x1F5C, symBinAddr: 0x100061A80, symSize: 0x70 }
  - { offsetInCU: 0x29E4E, offset: 0x5D71D7, size: 0x8, addend: 0x0, symName: __ZN12LOCAL_PLAYER11SetStrengthEt, symObjAddr: 0x1EEC, symBinAddr: 0x100061A10, symSize: 0x70 }
  - { offsetInCU: 0x2A136, offset: 0x5D74BF, size: 0x8, addend: 0x0, symName: __ZN12LOCAL_PLAYER9SetEnergyEt, symObjAddr: 0x1FCC, symBinAddr: 0x100061AF0, symSize: 0x70 }
  - { offsetInCU: 0x2A41E, offset: 0x5D77A7, size: 0x8, addend: 0x0, symName: __ZN7MACHINE4TickEi, symObjAddr: 0x212C, symBinAddr: 0x100061B60, symSize: 0x78 }
  - { offsetInCU: 0x2A513, offset: 0x5D789C, size: 0x8, addend: 0x0, symName: __ZN7MACHINE8DumpRegsEv, symObjAddr: 0x21E0, symBinAddr: 0x100061BD8, symSize: 0x88 }
  - { offsetInCU: 0x2E275, offset: 0x5DB5FE, size: 0x8, addend: 0x0, symName: __ZN7MACHINE12EvalFunctionEiP5Stack, symObjAddr: 0x2E4C, symBinAddr: 0x100061C60, symSize: 0x314 }
  - { offsetInCU: 0x2FB07, offset: 0x5DCE90, size: 0x8, addend: 0x0, symName: __ZN7MACHINE12EvalFunctionEi4ParmS0_P5StackiPb, symObjAddr: 0x3160, symBinAddr: 0x100061F74, symSize: 0x3890 }
  - { offsetInCU: 0x44CAA, offset: 0x5F2033, size: 0x8, addend: 0x0, symName: __ZNSt3__16__treeINS_12__value_typeINS_12basic_stringIcNS_11char_traitsIcEENS_9allocatorIcEEEEbEENS_19__map_value_compareIS7_S8_NS_4lessIS7_EELb1EEENS5_IS8_EEE25__emplace_unique_key_argsIS7_JRKNS_21piecewise_construct_tENS_5tupleIJRKS7_EEENSJ_IJEEEEEENS_4pairINS_15__tree_iteratorIS8_PNS_11__tree_nodeIS8_PvEElEEbEERKT_DpOT0_, symObjAddr: 0x1E2BC, symBinAddr: 0x10006A9FC, symSize: 0x94 }
  - { offsetInCU: 0x44E7A, offset: 0x5F2203, size: 0x8, addend: 0x0, symName: __ZN7MACHINE6SignalENSt3__112basic_stringIcNS0_11char_traitsIcEENS0_9allocatorIcEEEE, symObjAddr: 0x7040, symBinAddr: 0x100065B78, symSize: 0x31C }
  - { offsetInCU: 0x46141, offset: 0x5F34CA, size: 0x8, addend: 0x0, symName: __ZN7MAP_OPS4FindENSt3__112basic_stringIcNS0_11char_traitsIcEENS0_9allocatorIcEEEES6_, symObjAddr: 0x6CAC, symBinAddr: 0x100065988, symSize: 0x168 }
  - { offsetInCU: 0x46394, offset: 0x5F371D, size: 0x8, addend: 0x0, symName: __ZN4Game7IsOwnerERKNSt3__112basic_stringIcNS0_11char_traitsIcEENS0_9allocatorIcEEEE, symObjAddr: 0x735C, symBinAddr: 0x100065E94, symSize: 0xA8 }
  - { offsetInCU: 0x464E0, offset: 0x5F3869, size: 0x8, addend: 0x0, symName: __ZN4VIEW7SetTextENSt3__112basic_stringIcNS0_11char_traitsIcEENS0_9allocatorIcEEEES6_, symObjAddr: 0x69F0, symBinAddr: 0x100065804, symSize: 0xE8 }
  - { offsetInCU: 0x46B75, offset: 0x5F3EFE, size: 0x8, addend: 0x0, symName: __ZN9REGISTERS6SpriteENSt3__112basic_stringIcNS0_11char_traitsIcEENS0_9allocatorIcEEEE, symObjAddr: 0x6E14, symBinAddr: 0x100065AF0, symSize: 0x88 }
  - { offsetInCU: 0x47428, offset: 0x5F47B1, size: 0x8, addend: 0x0, symName: __ZN10ControlSet7SetTextENSt3__112basic_stringIcNS0_11char_traitsIcEENS0_9allocatorIcEEEES6_, symObjAddr: 0xB850, symBinAddr: 0x100069184, symSize: 0xE4 }
  - { offsetInCU: 0x47960, offset: 0x5F4CE9, size: 0x8, addend: 0x0, symName: __ZN9Automaton18FindWaitTransitionEP7MACHINENSt3__112basic_stringIcNS2_11char_traitsIcEENS2_9allocatorIcEEEES8_, symObjAddr: 0xABDC, symBinAddr: 0x100068BD8, symSize: 0x110 }
  - { offsetInCU: 0x47E51, offset: 0x5F51DA, size: 0x8, addend: 0x0, symName: __ZN7MACHINE12ChangeStatesEP10TRANSITION, symObjAddr: 0x7AA8, symBinAddr: 0x1000664B4, symSize: 0x3F8 }
  - { offsetInCU: 0x49A6C, offset: 0x5F6DF5, size: 0x8, addend: 0x0, symName: __ZN7MACHINE14AutoTransitionEi, symObjAddr: 0x7EA0, symBinAddr: 0x1000668AC, symSize: 0x4FC }
  - { offsetInCU: 0x4B43B, offset: 0x5F87C4, size: 0x8, addend: 0x0, symName: __ZN7MACHINE10TraceGraphEv, symObjAddr: 0x839C, symBinAddr: 0x100066DA8, symSize: 0x1F4 }
  - { offsetInCU: 0x4CFF7, offset: 0x5FA380, size: 0x8, addend: 0x0, symName: __ZN7MACHINE8EvalExprENSt3__112basic_stringIcNS0_11char_traitsIcEENS0_9allocatorIcEEEES6_, symObjAddr: 0x7404, symBinAddr: 0x100065F3C, symSize: 0x240 }
  - { offsetInCU: 0x4DD06, offset: 0x5FB08F, size: 0x8, addend: 0x0, symName: __ZN16AutomatonContextC2EP7MACHINE, symObjAddr: 0xBC40, symBinAddr: 0x100069268, symSize: 0x158 }
  - { offsetInCU: 0x4E428, offset: 0x5FB7B1, size: 0x8, addend: 0x0, symName: __ZN9CodeBlock11CompileExprEv, symObjAddr: 0x7644, symBinAddr: 0x10006617C, symSize: 0x90 }
  - { offsetInCU: 0x4EAF7, offset: 0x5FBE80, size: 0x8, addend: 0x0, symName: __ZN16AutomatonContextD1Ev, symObjAddr: 0x7740, symBinAddr: 0x10006620C, symSize: 0x80 }
  - { offsetInCU: 0x4F8EC, offset: 0x5FCC75, size: 0x8, addend: 0x0, symName: __ZN7MACHINE12EvalStmtListENSt3__112basic_stringIcNS0_11char_traitsIcEENS0_9allocatorIcEEEES6_, symObjAddr: 0x77C0, symBinAddr: 0x10006628C, symSize: 0x228 }
  - { offsetInCU: 0x50A1A, offset: 0x5FDDA3, size: 0x8, addend: 0x0, symName: __ZN9Automaton3GetENSt3__112basic_stringIcNS0_11char_traitsIcEENS0_9allocatorIcEEEE, symObjAddr: 0x8590, symBinAddr: 0x100066F9C, symSize: 0x16C }
  - { offsetInCU: 0x51188, offset: 0x5FE511, size: 0x8, addend: 0x0, symName: __ZN9Automaton18FindFirstAutoTransENSt3__112basic_stringIcNS0_11char_traitsIcEENS0_9allocatorIcEEEERNS0_11__wrap_iterIP10TRANSITIONEE, symObjAddr: 0x8EC8, symBinAddr: 0x10006730C, symSize: 0xCC }
  - { offsetInCU: 0x51591, offset: 0x5FE91A, size: 0x8, addend: 0x0, symName: __ZN9Automaton17FindNextAutoTransENSt3__112basic_stringIcNS0_11char_traitsIcEENS0_9allocatorIcEEEERNS0_11__wrap_iterIP10TRANSITIONEE, symObjAddr: 0x8F94, symBinAddr: 0x1000673D8, symSize: 0xDC }
  - { offsetInCU: 0x54AAE, offset: 0x601E37, size: 0x8, addend: 0x0, symName: __ZN7MACHINE6FingerEv, symObjAddr: 0x8CC4, symBinAddr: 0x100067108, symSize: 0x204 }
  - { offsetInCU: 0x55D14, offset: 0x60309D, size: 0x8, addend: 0x0, symName: __ZN9REGISTERSC2Ev, symObjAddr: 0x1CFDC, symBinAddr: 0x10006971C, symSize: 0xC0 }
  - { offsetInCU: 0x562A8, offset: 0x603631, size: 0x8, addend: 0x0, symName: __ZN9REGISTERSD2Ev, symObjAddr: 0x1DAF0, symBinAddr: 0x10006A230, symSize: 0xBC }
  - { offsetInCU: 0x57121, offset: 0x6044AA, size: 0x8, addend: 0x0, symName: __ZN7MACHINE9SendTransEtRKNSt3__112basic_stringIcNS0_11char_traitsIcEENS0_9allocatorIcEEEES6_S8_, symObjAddr: 0x94B8, symBinAddr: 0x1000674B4, symSize: 0x168 }
  - { offsetInCU: 0x57C45, offset: 0x604FCE, size: 0x8, addend: 0x0, symName: __ZN9TRANS_PKT7to_jsonEv, symObjAddr: 0x9620, symBinAddr: 0x10006761C, symSize: 0x25C }
  - { offsetInCU: 0x590CE, offset: 0x606457, size: 0x8, addend: 0x0, symName: __ZN9TRANS_PKTD1Ev, symObjAddr: 0x987C, symBinAddr: 0x100067878, symSize: 0x50 }
  - { offsetInCU: 0x594BE, offset: 0x606847, size: 0x8, addend: 0x0, symName: __ZN7MACHINE18InitiateTransitionERKNSt3__112basic_stringIcNS0_11char_traitsIcEENS0_9allocatorIcEEEES6_bb, symObjAddr: 0x98CC, symBinAddr: 0x1000678C8, symSize: 0x1F4 }
  - { offsetInCU: 0x59967, offset: 0x606CF0, size: 0x8, addend: 0x0, symName: __ZN7MACHINE4DropEPNSt3__112basic_stringIcNS0_11char_traitsIcEENS0_9allocatorIcEEEEbb, symObjAddr: 0x9AC0, symBinAddr: 0x100067ABC, symSize: 0x2E8 }
  - { offsetInCU: 0x5AAEA, offset: 0x607E73, size: 0x8, addend: 0x0, symName: __ZN9Automaton14FindTransitionEP7MACHINENSt3__112basic_stringIcNS2_11char_traitsIcEENS2_9allocatorIcEEEEihS8_, symObjAddr: 0x9DA8, symBinAddr: 0x100067DA4, symSize: 0x128 }
  - { offsetInCU: 0x5B019, offset: 0x6083A2, size: 0x8, addend: 0x0, symName: __ZN5State14FindTransitionEP7MACHINEihNSt3__112basic_stringIcNS2_11char_traitsIcEENS2_9allocatorIcEEEE, symObjAddr: 0x1DBAC, symBinAddr: 0x10006A2EC, symSize: 0x2D0 }
  - { offsetInCU: 0x5C3AD, offset: 0x609736, size: 0x8, addend: 0x0, symName: __ZN7MACHINE4GrabEbbb, symObjAddr: 0x9ED0, symBinAddr: 0x100067ECC, symSize: 0x808 }
  - { offsetInCU: 0x5F7C6, offset: 0x60CB4F, size: 0x8, addend: 0x0, symName: __ZN7MACHINE4DragEP6OBJECTbb, symObjAddr: 0xA6D8, symBinAddr: 0x1000686D4, symSize: 0x34C }
  - { offsetInCU: 0x60C65, offset: 0x60DFEE, size: 0x8, addend: 0x0, symName: __ZN7MACHINE9DragFocusEb, symObjAddr: 0xAA24, symBinAddr: 0x100068A20, symSize: 0x1B8 }
  - { offsetInCU: 0x616FF, offset: 0x60EA88, size: 0x8, addend: 0x0, symName: __ZN5State18FindWaitTransitionEP7MACHINENSt3__112basic_stringIcNS2_11char_traitsIcEENS2_9allocatorIcEEEE, symObjAddr: 0x1E010, symBinAddr: 0x10006A750, symSize: 0x2AC }
  - { offsetInCU: 0x62441, offset: 0x60F7CA, size: 0x8, addend: 0x0, symName: __ZN7MACHINE5PaintEP3ONE, symObjAddr: 0xACEC, symBinAddr: 0x100068CE8, symSize: 0x2AC }
  - { offsetInCU: 0x62B6D, offset: 0x60FEF6, size: 0x8, addend: 0x0, symName: __ZN7MACHINE5EraseEv, symObjAddr: 0xAF98, symBinAddr: 0x100068F94, symSize: 0x10 }
  - { offsetInCU: 0x62B97, offset: 0x60FF20, size: 0x8, addend: 0x0, symName: __ZN7MACHINE7ReleaseEv, symObjAddr: 0xAFA8, symBinAddr: 0x100068FA4, symSize: 0x30 }
  - { offsetInCU: 0x6494E, offset: 0x611CD7, size: 0x8, addend: 0x0, symName: __ZN16MachineNamespaceC2EP7MACHINE, symObjAddr: 0xD4E0, symBinAddr: 0x1000694EC, symSize: 0xB0 }
  - { offsetInCU: 0x64E55, offset: 0x6121DE, size: 0x8, addend: 0x0, symName: __ZN16AutomatonContext12EvalFunctionENSt3__112basic_stringIcNS0_11char_traitsIcEENS0_9allocatorIcEEEEP5Stack, symObjAddr: 0xBDEC, symBinAddr: 0x1000693C0, symSize: 0x12C }
  - { offsetInCU: 0x655A7, offset: 0x612930, size: 0x8, addend: 0x0, symName: __ZN16MachineNamespace6GetValER4Parm, symObjAddr: 0xD590, symBinAddr: 0x10006959C, symSize: 0x8 }
  - { offsetInCU: 0x655F9, offset: 0x612982, size: 0x8, addend: 0x0, symName: __ZN16MachineNamespace6SetValER4ParmNSt3__112basic_stringIcNS2_11char_traitsIcEENS2_9allocatorIcEEEE, symObjAddr: 0xD598, symBinAddr: 0x1000695A4, symSize: 0x178 }
  - { offsetInCU: 0x66734, offset: 0x613ABD, size: 0x8, addend: 0x0, symName: __ZN9REGISTERS9from_jsonERKNSt3__112basic_stringIcNS0_11char_traitsIcEENS0_9allocatorIcEEEE, symObjAddr: 0x1D09C, symBinAddr: 0x1000697DC, symSize: 0x4 }
  - { offsetInCU: 0x667CB, offset: 0x613B54, size: 0x8, addend: 0x0, symName: __ZN9REGISTERS7to_jsonEv, symObjAddr: 0x1D0A0, symBinAddr: 0x1000697E0, symSize: 0xA50 }
  - { offsetInCU: 0x6CB65, offset: 0x619EEE, size: 0x8, addend: 0x0, symName: __ZN5State19CheckGuardConditionEP7MACHINEP10TRANSITION, symObjAddr: 0x1DE7C, symBinAddr: 0x10006A5BC, symSize: 0x194 }
  - { offsetInCU: 0x6D478, offset: 0x61A801, size: 0x8, addend: 0x0, symName: __ZNSt3__16__treeINS_12__value_typeINS_12basic_stringIcNS_11char_traitsIcEENS_9allocatorIcEEEEbEENS_19__map_value_compareIS7_S8_NS_4lessIS7_EELb1EEENS5_IS8_EEE12__find_equalIS7_EERPNS_16__tree_node_baseIPvEERPNS_15__tree_end_nodeISJ_EERKT_, symObjAddr: 0x1E350, symBinAddr: 0x10006AA90, symSize: 0x90 }
  - { offsetInCU: 0x6D603, offset: 0x61A98C, size: 0x8, addend: 0x0, symName: __ZNSt3__16__treeINS_12__value_typeINS_12basic_stringIcNS_11char_traitsIcEENS_9allocatorIcEEEEbEENS_19__map_value_compareIS7_S8_NS_4lessIS7_EELb1EEENS5_IS8_EEE16__construct_nodeIJRKNS_21piecewise_construct_tENS_5tupleIJRKS7_EEENSJ_IJEEEEEENS_10unique_ptrINS_11__tree_nodeIS8_PvEENS_22__tree_node_destructorINS5_ISR_EEEEEEDpOT_, symObjAddr: 0x1E3E0, symBinAddr: 0x10006AB20, symSize: 0xA4 }
  - { offsetInCU: 0x6D9E9, offset: 0x61AD72, size: 0x8, addend: 0x0, symName: __ZNSt3__16__treeINS_12__value_typeINS_12basic_stringIcNS_11char_traitsIcEENS_9allocatorIcEEEEbEENS_19__map_value_compareIS7_S8_NS_4lessIS7_EELb1EEENS5_IS8_EEE16__insert_node_atEPNS_15__tree_end_nodeIPNS_16__tree_node_baseIPvEEEERSJ_SJ_, symObjAddr: 0x1E484, symBinAddr: 0x10006ABC4, symSize: 0x54 }
  - { offsetInCU: 0x6DE83, offset: 0x61B20C, size: 0x8, addend: 0x0, symName: __ZNSt3__122__tree_node_destructorINS_9allocatorINS_11__tree_nodeINS_12__value_typeINS_12basic_stringIcNS_11char_traitsIcEENS1_IcEEEEbEEPvEEEEEclB8ue170006EPSB_, symObjAddr: 0x1E4D8, symBinAddr: 0x10006AC18, symSize: 0x4C }
  - { offsetInCU: 0x40, offset: 0x61B621, size: 0x8, addend: 0x0, symName: __ZL6server, symObjAddr: 0x1B9BB8, symBinAddr: 0x100458658, symSize: 0x0 }
  - { offsetInCU: 0x14C2E, offset: 0x63020F, size: 0x8, addend: 0x0, symName: __ZNSt3__114__thread_proxyB8ue170006INS_5tupleIJNS_10unique_ptrINS_15__thread_structENS_14default_deleteIS3_EEEEPFviNS_12basic_stringIcNS_11char_traitsIcEENS_9allocatorIcEEEEEiSC_EEEEEPvSG_, symObjAddr: 0xEF30, symBinAddr: 0x10006BEE4, symSize: 0xCC }
  - { offsetInCU: 0x156B0, offset: 0x630C91, size: 0x8, addend: 0x0, symName: __ZNSt3__114__thread_proxyB8ue170006INS_5tupleIJNS_10unique_ptrINS_15__thread_structENS_14default_deleteIS3_EEEEPFvNS_12basic_stringIcNS_11char_traitsIcEENS_9allocatorIcEEEEESC_EEEEEPvSG_, symObjAddr: 0xF268, symBinAddr: 0x10006C174, symSize: 0xC8 }
  - { offsetInCU: 0x1E2A4, offset: 0x639885, size: 0x8, addend: 0x0, symName: __ZN8nlohmann16json_abi_v3_11_2eqERKNS0_10basic_jsonINSt3__13mapENS2_6vectorENS2_12basic_stringIcNS2_11char_traitsIcEENS2_9allocatorIcEEEEbxydS8_NS0_14adl_serializerENS4_IhNS8_IhEEEEvEESG_, symObjAddr: 0x110C, symBinAddr: 0x10006B6CC, symSize: 0x370 }
  - { offsetInCU: 0x1F8C9, offset: 0x63AEAA, size: 0x8, addend: 0x0, symName: __ZL17in8_server_thread, symObjAddr: 0x1B9C90, symBinAddr: 0x100458730, symSize: 0x0 }
  - { offsetInCU: 0x21CAA, offset: 0x63D28B, size: 0x8, addend: 0x0, symName: __Z6ws_in8NSt3__112basic_stringIcNS_11char_traitsIcEENS_9allocatorIcEEEE, symObjAddr: 0x3C, symBinAddr: 0x10006ACC4, symSize: 0x60 }
  - { offsetInCU: 0x21D30, offset: 0x63D311, size: 0x8, addend: 0x0, symName: __ZNSt3__16threadC2IRFvNS_12basic_stringIcNS_11char_traitsIcEENS_9allocatorIcEEEEEJRS7_EvEEOT_DpOT0_, symObjAddr: 0xF15C, symBinAddr: 0x10006C068, symSize: 0x10C }
  - { offsetInCU: 0x2228B, offset: 0x63D86C, size: 0x8, addend: 0x0, symName: __ZL13server_threadNSt3__112basic_stringIcNS_11char_traitsIcEENS_9allocatorIcEEEE, symObjAddr: 0x9C, symBinAddr: 0x10006AD24, symSize: 0xC0 }
  - { offsetInCU: 0x227D6, offset: 0x63DDB7, size: 0x8, addend: 0x0, symName: __ZNSt3__16threadC2IRFvNS_12basic_stringIcNS_11char_traitsIcEENS_9allocatorIcEEEEEJRS7_EvEEOT_DpOT0_, symObjAddr: 0xF15C, symBinAddr: 0x10006C068, symSize: 0x10C }
  - { offsetInCU: 0x227E7, offset: 0x63DDC8, size: 0x8, addend: 0x0, symName: __ZL11openHandleri, symObjAddr: 0x1A8, symBinAddr: 0x10006ADE4, symSize: 0x28 }
  - { offsetInCU: 0x22812, offset: 0x63DDF3, size: 0x8, addend: 0x0, symName: __ZL12closeHandleri, symObjAddr: 0x1D0, symBinAddr: 0x10006AE0C, symSize: 0x28 }
  - { offsetInCU: 0x228DA, offset: 0x63DEBB, size: 0x8, addend: 0x0, symName: __ZL14messageHandleriNSt3__112basic_stringIcNS_11char_traitsIcEENS_9allocatorIcEEEE, symObjAddr: 0x1F8, symBinAddr: 0x10006AE34, symSize: 0x7C }
  - { offsetInCU: 0x22A03, offset: 0x63DFE4, size: 0x8, addend: 0x0, symName: __ZNSt3__16threadC2IRFviNS_12basic_stringIcNS_11char_traitsIcEENS_9allocatorIcEEEEEJRiRS7_EvEEOT_DpOT0_, symObjAddr: 0xEE1C, symBinAddr: 0x10006BDD0, symSize: 0x114 }
  - { offsetInCU: 0x23133, offset: 0x63E714, size: 0x8, addend: 0x0, symName: __ZL10rpc_threadiNSt3__112basic_stringIcNS_11char_traitsIcEENS_9allocatorIcEEEE, symObjAddr: 0x274, symBinAddr: 0x10006AEB0, symSize: 0x17C }
  - { offsetInCU: 0x23C76, offset: 0x63F257, size: 0x8, addend: 0x0, symName: __ZN7JsonRpcC2ENSt3__112basic_stringIcNS0_11char_traitsIcEENS0_9allocatorIcEEEE, symObjAddr: 0x6B8, symBinAddr: 0x10006B2F4, symSize: 0xB0 }
  - { offsetInCU: 0x24090, offset: 0x63F671, size: 0x8, addend: 0x0, symName: __ZN7JsonRpc4callEv, symObjAddr: 0x3F0, symBinAddr: 0x10006B02C, symSize: 0x2C8 }
  - { offsetInCU: 0x24CBC, offset: 0x64029D, size: 0x8, addend: 0x0, symName: __ZN7JsonRpcD2Ev, symObjAddr: 0xED7C, symBinAddr: 0x10006BD30, symSize: 0xA0 }
  - { offsetInCU: 0x255A8, offset: 0x640B89, size: 0x8, addend: 0x0, symName: __ZN7JsonRpc12json_extractEv, symObjAddr: 0xDE4, symBinAddr: 0x10006B3A4, symSize: 0x328 }
  - { offsetInCU: 0x26795, offset: 0x641D76, size: 0x8, addend: 0x0, symName: __ZN7JsonRpc12json_extractEv, symObjAddr: 0xDE4, symBinAddr: 0x10006B3A4, symSize: 0x328 }
  - { offsetInCU: 0x28452, offset: 0x643A33, size: 0x8, addend: 0x0, symName: __ZN7JsonRpc15extract_elementENSt3__112basic_stringIcNS0_11char_traitsIcEENS0_9allocatorIcEEEE, symObjAddr: 0x17D0, symBinAddr: 0x10006BA3C, symSize: 0x1E0 }
  - { offsetInCU: 0x293D3, offset: 0x6449B4, size: 0x8, addend: 0x0, symName: __ZNSt3__113__tuple_equalILm3EEclB8ue170006INS_5tupleIJRKNS_6vectorIhNS_9allocatorIhEEEERKyRKbEEESE_EEbRKT_RKT0_, symObjAddr: 0xE940, symBinAddr: 0x10006BC80, symSize: 0x6C }
  - { offsetInCU: 0x29575, offset: 0x644B56, size: 0x8, addend: 0x0, symName: __ZN8nlohmann16json_abi_v3_11_210basic_jsonINSt3__13mapENS2_6vectorENS2_12basic_stringIcNS2_11char_traitsIcEENS2_9allocatorIcEEEEbxydS8_NS0_14adl_serializerENS4_IhNS8_IhEEEEvE18compares_unorderedERKSE_SG_b, symObjAddr: 0xE8DC, symBinAddr: 0x10006BC1C, symSize: 0x64 }
  - { offsetInCU: 0x295BF, offset: 0x644BA0, size: 0x8, addend: 0x0, symName: __ZN8nlohmann16json_abi_v3_11_210basic_jsonINSt3__13mapENS2_6vectorENS2_12basic_stringIcNS2_11char_traitsIcEENS2_9allocatorIcEEEEbxydS8_NS0_14adl_serializerENS4_IhNS8_IhEEEEvE18compares_unorderedERKSE_SG_b, symObjAddr: 0xE8DC, symBinAddr: 0x10006BC1C, symSize: 0x64 }
  - { offsetInCU: 0x45A5B, offset: 0x66103C, size: 0x8, addend: 0x0, symName: __ZNSt3__113__tuple_equalILm1EEclB8ue170006INS_5tupleIJRKNS_6vectorIhNS_9allocatorIhEEEERKyRKbEEESE_EEbRKT_RKT0_, symObjAddr: 0xE9AC, symBinAddr: 0x10006BCEC, symSize: 0x44 }
  - { offsetInCU: 0x467E6, offset: 0x661DC7, size: 0x8, addend: 0x0, symName: __ZNSt3__112__tuple_implINS_15__tuple_indicesIJLm0ELm1ELm2ELm3EEEEJNS_10unique_ptrINS_15__thread_structENS_14default_deleteIS4_EEEEPFviNS_12basic_stringIcNS_11char_traitsIcEENS_9allocatorIcEEEEEiSD_EEC2B8ue170006IJLm0ELm1ELm2ELm3EEJS7_SF_iSD_EJEJEJS7_RSE_RiRSD_EEENS1_IJXspT_EEEENS_13__tuple_typesIJDpT0_EEENS1_IJXspT1_EEEENSM_IJDpT2_EEEDpOT3_, symObjAddr: 0xEFFC, symBinAddr: 0x10006BFB0, symSize: 0x74 }
  - { offsetInCU: 0x46B58, offset: 0x662139, size: 0x8, addend: 0x0, symName: __ZNKSt3__114default_deleteINS_5tupleIJNS_10unique_ptrINS_15__thread_structENS0_IS3_EEEEPFviNS_12basic_stringIcNS_11char_traitsIcEENS_9allocatorIcEEEEEiSB_EEEEclB8ue170006EPSE_, symObjAddr: 0xF070, symBinAddr: 0x10006C024, symSize: 0x44 }
  - { offsetInCU: 0x47452, offset: 0x662A33, size: 0x8, addend: 0x0, symName: __ZNSt3__112__tuple_implINS_15__tuple_indicesIJLm0ELm1ELm2EEEEJNS_10unique_ptrINS_15__thread_structENS_14default_deleteIS4_EEEEPFvNS_12basic_stringIcNS_11char_traitsIcEENS_9allocatorIcEEEEESD_EEC2B8ue170006IJLm0ELm1ELm2EEJS7_SF_SD_EJEJEJS7_RSE_RSD_EEENS1_IJXspT_EEEENS_13__tuple_typesIJDpT0_EEENS1_IJXspT1_EEEENSL_IJDpT2_EEEDpOT3_, symObjAddr: 0xF330, symBinAddr: 0x10006C23C, symSize: 0x68 }
  - { offsetInCU: 0x4774A, offset: 0x662D2B, size: 0x8, addend: 0x0, symName: __ZNKSt3__114default_deleteINS_5tupleIJNS_10unique_ptrINS_15__thread_structENS0_IS3_EEEEPFvNS_12basic_stringIcNS_11char_traitsIcEENS_9allocatorIcEEEEESB_EEEEclB8ue170006EPSE_, symObjAddr: 0xF398, symBinAddr: 0x10006C2A4, symSize: 0x44 }
  - { offsetInCU: 0x53, offset: 0x6632CB, size: 0x8, addend: 0x0, symName: _tbl_syncpoints, symObjAddr: 0x7E9F8, symBinAddr: 0x100329730, symSize: 0x0 }
  - { offsetInCU: 0xCDC3, offset: 0x67003B, size: 0x8, addend: 0x0, symName: __ZNSt3__13mapINS_12basic_stringIcNS_11char_traitsIcEENS_9allocatorIcEEEEbNS_4lessIS6_EENS4_INS_4pairIKS6_bEEEEED1B8ue170006Ev, symObjAddr: 0x0, symBinAddr: 0x10006C324, symSize: 0x28 }
  - { offsetInCU: 0xCE7F, offset: 0x6700F7, size: 0x8, addend: 0x0, symName: __ZNSt3__16__treeINS_12__value_typeINS_12basic_stringIcNS_11char_traitsIcEENS_9allocatorIcEEEEbEENS_19__map_value_compareIS7_S8_NS_4lessIS7_EELb1EEENS5_IS8_EEE7destroyEPNS_11__tree_nodeIS8_PvEE, symObjAddr: 0x84C, symBinAddr: 0x10006C670, symSize: 0x50 }
  - { offsetInCU: 0xD502, offset: 0x67077A, size: 0x8, addend: 0x0, symName: __ZNSt3__13mapINS_12basic_stringIcNS_11char_traitsIcEENS_9allocatorIcEEEEbNS_4lessIS6_EENS4_INS_4pairIKS6_bEEEEEC2B8ue170006ESt16initializer_listISB_ERKS8_, symObjAddr: 0x150, symBinAddr: 0x10006C34C, symSize: 0x7C }
  - { offsetInCU: 0xD731, offset: 0x6709A9, size: 0x8, addend: 0x0, symName: __ZNSt3__16__treeINS_12__value_typeINS_12basic_stringIcNS_11char_traitsIcEENS_9allocatorIcEEEEbEENS_19__map_value_compareIS7_S8_NS_4lessIS7_EELb1EEENS5_IS8_EEE30__emplace_hint_unique_key_argsIS7_JRKNS_4pairIKS7_bEEEEENSG_INS_15__tree_iteratorIS8_PNS_11__tree_nodeIS8_PvEElEEbEENS_21__tree_const_iteratorIS8_SP_lEERKT_DpOT0_, symObjAddr: 0x1CC, symBinAddr: 0x10006C3C8, symSize: 0x80 }
  - { offsetInCU: 0xD909, offset: 0x670B81, size: 0x8, addend: 0x0, symName: __ZNSt3__16__treeINS_12__value_typeINS_12basic_stringIcNS_11char_traitsIcEENS_9allocatorIcEEEEbEENS_19__map_value_compareIS7_S8_NS_4lessIS7_EELb1EEENS5_IS8_EEE12__find_equalIS7_EERPNS_16__tree_node_baseIPvEENS_21__tree_const_iteratorIS8_PNS_11__tree_nodeIS8_SH_EElEERPNS_15__tree_end_nodeISJ_EESK_RKT_, symObjAddr: 0x24C, symBinAddr: 0x10006C448, symSize: 0x184 }
  - { offsetInCU: 0xDD61, offset: 0x670FD9, size: 0x8, addend: 0x0, symName: __ZNSt3__16__treeINS_12__value_typeINS_12basic_stringIcNS_11char_traitsIcEENS_9allocatorIcEEEEbEENS_19__map_value_compareIS7_S8_NS_4lessIS7_EELb1EEENS5_IS8_EEE16__construct_nodeIJRKNS_4pairIKS7_bEEEEENS_10unique_ptrINS_11__tree_nodeIS8_PvEENS_22__tree_node_destructorINS5_ISO_EEEEEEDpOT_, symObjAddr: 0x3D0, symBinAddr: 0x10006C5CC, symSize: 0xA4 }
  - { offsetInCU: 0x40, offset: 0x671F6F, size: 0x8, addend: 0x0, symName: _tbl_ids, symObjAddr: 0x21C18, symBinAddr: 0x100329748, symSize: 0x0 }
  - { offsetInCU: 0x4711, offset: 0x676640, size: 0x8, addend: 0x0, symName: _sprite_filenames, symObjAddr: 0x21C20, symBinAddr: 0x100329750, symSize: 0x0 }
  - { offsetInCU: 0x6C2B, offset: 0x678B5A, size: 0x8, addend: 0x0, symName: __ZN8TBL_TEXTD1Ev, symObjAddr: 0x0, symBinAddr: 0x10006C818, symSize: 0x38 }
  - { offsetInCU: 0x6EB2, offset: 0x678DE1, size: 0x8, addend: 0x0, symName: __ZN8TBL_TEXTC2Ei, symObjAddr: 0x38, symBinAddr: 0x10006C850, symSize: 0xB0 }
  - { offsetInCU: 0x70CF, offset: 0x678FFE, size: 0x8, addend: 0x0, symName: __ZNSt3__16vectorINS_12basic_stringIcNS_11char_traitsIcEENS_9allocatorIcEEEENS4_IS6_EEE7reserveEm, symObjAddr: 0xE8, symBinAddr: 0x10006C900, symSize: 0xB0 }
  - { offsetInCU: 0x26, offset: 0x679B34, size: 0x8, addend: 0x0, symName: __ZN13TBL_CARDINALS12getCardinalsEv, symObjAddr: 0x0, symBinAddr: 0x10006C9F0, symSize: 0x40 }
  - { offsetInCU: 0x39, offset: 0x679B47, size: 0x8, addend: 0x0, symName: __ZN13TBL_CARDINALS15c_tbl_cardinalsE, symObjAddr: 0x678F8, symBinAddr: 0x100329788, symSize: 0x0 }
  - { offsetInCU: 0xA3EF, offset: 0x683EFD, size: 0x8, addend: 0x0, symName: __ZN13TBL_CARDINALS12getCardinalsEv, symObjAddr: 0x0, symBinAddr: 0x10006C9F0, symSize: 0x40 }
  - { offsetInCU: 0xA422, offset: 0x683F30, size: 0x8, addend: 0x0, symName: __ZN13TBL_CARDINALS4LoadEv, symObjAddr: 0x40, symBinAddr: 0x10006CA30, symSize: 0x208 }
  - { offsetInCU: 0xAA95, offset: 0x6845A3, size: 0x8, addend: 0x0, symName: __ZN7B_TABLEI9CARDINALSiiiEC2EPS0_ii, symObjAddr: 0x530, symBinAddr: 0x10006CDF8, symSize: 0x64 }
  - { offsetInCU: 0xAB7B, offset: 0x684689, size: 0x8, addend: 0x0, symName: __ZN13TBL_CARDINALS4DumpEv, symObjAddr: 0x248, symBinAddr: 0x10006CC38, symSize: 0x16C }
  - { offsetInCU: 0xB218, offset: 0x684D26, size: 0x8, addend: 0x0, symName: __ZN13TBL_CARDINALS4FireEii, symObjAddr: 0x3B4, symBinAddr: 0x10006CDA4, symSize: 0x54 }
  - { offsetInCU: 0xB2B6, offset: 0x684DC4, size: 0x8, addend: 0x0, symName: __ZN7B_TABLEI9CARDINALSiiiE4PGetEiPi, symObjAddr: 0x62C, symBinAddr: 0x10006CEF4, symSize: 0x64 }
  - { offsetInCU: 0xB588, offset: 0x685096, size: 0x8, addend: 0x0, symName: __ZN7B_TABLEI9CARDINALSiiiE8ValidateEv, symObjAddr: 0x594, symBinAddr: 0x10006CE5C, symSize: 0x98 }
  - { offsetInCU: 0xB643, offset: 0x685151, size: 0x8, addend: 0x0, symName: __ZN7B_TABLEI9CARDINALSiiiE4PGetEiPi, symObjAddr: 0x62C, symBinAddr: 0x10006CEF4, symSize: 0x64 }
  - { offsetInCU: 0xB664, offset: 0x685172, size: 0x8, addend: 0x0, symName: __ZN7B_TABLEI9CARDINALSiiiE8ValidateEv.cold.1, symObjAddr: 0x690, symBinAddr: 0x10024F86C, symSize: 0x28 }
  - { offsetInCU: 0x54, offset: 0x6851F3, size: 0x8, addend: 0x0, symName: _enum_providers_callback, symObjAddr: 0x1F8D90, symBinAddr: 0x100329790, symSize: 0x0 }
  - { offsetInCU: 0x14521, offset: 0x6996C0, size: 0x8, addend: 0x0, symName: __ZNSt3__112__destroy_atB8ue170006INS_4pairIKNS_12basic_stringIcNS_11char_traitsIcEENS_9allocatorIcEEEE10OpenPlayerEELi0EEEvPT_, symObjAddr: 0x121EC, symBinAddr: 0x1000714E4, symSize: 0x3C }
  - { offsetInCU: 0x14A72, offset: 0x699C11, size: 0x8, addend: 0x0, symName: __ZNSt3__135__uninitialized_allocator_copy_implB8ue170006INS_9allocatorI11ipCandidateEEPS2_S4_S4_EET2_RT_T0_T1_S5_, symObjAddr: 0x133C0, symBinAddr: 0x10007233C, symSize: 0x80 }
  - { offsetInCU: 0x14CA2, offset: 0x699E41, size: 0x8, addend: 0x0, symName: __ZNSt3__112construct_atB8ue170006I11ipCandidateJRS1_EPS1_EEPT_S5_DpOT0_, symObjAddr: 0x13440, symBinAddr: 0x1000723BC, symSize: 0xE4 }
  - { offsetInCU: 0x1DF38, offset: 0x6A30D7, size: 0x8, addend: 0x0, symName: __ZL4lpdp, symObjAddr: 0x1F8D70, symBinAddr: 0x100458738, symSize: 0x0 }
  - { offsetInCU: 0x1ED85, offset: 0x6A3F24, size: 0x8, addend: 0x0, symName: __ZL14rooms_callback, symObjAddr: 0x1F8D78, symBinAddr: 0x100458740, symSize: 0x0 }
  - { offsetInCU: 0x1EDA0, offset: 0x6A3F3F, size: 0x8, addend: 0x0, symName: __ZL13rooms_context, symObjAddr: 0x1F8D80, symBinAddr: 0x100458748, symSize: 0x0 }
  - { offsetInCU: 0x1EDBB, offset: 0x6A3F5A, size: 0x8, addend: 0x0, symName: __ZL11rooms_flags, symObjAddr: 0x1F8D88, symBinAddr: 0x100458750, symSize: 0x0 }
  - { offsetInCU: 0x21251, offset: 0x6A63F0, size: 0x8, addend: 0x0, symName: __Z14OpenPlayCreateNSt3__112basic_stringIcNS_11char_traitsIcEENS_9allocatorIcEEEEPP11IDirectPlayP8IUnknown, symObjAddr: 0x0, symBinAddr: 0x10006CF58, symSize: 0x6C }
  - { offsetInCU: 0x21386, offset: 0x6A6525, size: 0x8, addend: 0x0, symName: __ZN8OpenPlayC2Ev, symObjAddr: 0x70, symBinAddr: 0x10006CFC4, symSize: 0x468 }
  - { offsetInCU: 0x238AF, offset: 0x6A8A4E, size: 0x8, addend: 0x0, symName: __ZNK11ipCandidate7to_jsonEv, symObjAddr: 0x4D8, symBinAddr: 0x10006D42C, symSize: 0x14C }
  - { offsetInCU: 0x244E8, offset: 0x6A9687, size: 0x8, addend: 0x0, symName: __ZN10PING_PARMSC2ERKNSt3__112basic_stringIcNS0_11char_traitsIcEENS0_9allocatorIcEEEE, symObjAddr: 0x124C4, symBinAddr: 0x100071740, symSize: 0xA8 }
  - { offsetInCU: 0x24724, offset: 0x6A98C3, size: 0x8, addend: 0x0, symName: __ZNSt3__16__treeINS_12__value_typeINS_12basic_stringIcNS_11char_traitsIcEENS_9allocatorIcEEEE10OpenPlayerEENS_19__map_value_compareIS7_S9_NS_4lessIS7_EELb1EEENS5_IS9_EEE7destroyEPNS_11__tree_nodeIS9_PvEE, symObjAddr: 0x12228, symBinAddr: 0x100071520, symSize: 0x48 }
  - { offsetInCU: 0x248BF, offset: 0x6A9A5E, size: 0x8, addend: 0x0, symName: __ZNSt3__16vectorI11ipCandidateNS_9allocatorIS1_EEE16__destroy_vectorclB8ue170006Ev, symObjAddr: 0x32B0, symBinAddr: 0x100070074, symSize: 0x70 }
  - { offsetInCU: 0x24A41, offset: 0x6A9BE0, size: 0x8, addend: 0x0, symName: __ZN8OpenPlay15GetMessageCountERKNSt3__112basic_stringIcNS0_11char_traitsIcEENS0_9allocatorIcEEEEPj, symObjAddr: 0x674, symBinAddr: 0x10006D578, symSize: 0xC }
  - { offsetInCU: 0x24A8C, offset: 0x6A9C2B, size: 0x8, addend: 0x0, symName: __ZN8OpenPlay12CreatePlayerERNSt3__112basic_stringIcNS0_11char_traitsIcEENS0_9allocatorIcEEEERKS6_S9_i, symObjAddr: 0x680, symBinAddr: 0x10006D584, symSize: 0x28 }
  - { offsetInCU: 0x24AE5, offset: 0x6A9C84, size: 0x8, addend: 0x0, symName: __ZN8OpenPlay13DestroyPlayerERKNSt3__112basic_stringIcNS0_11char_traitsIcEENS0_9allocatorIcEEEE, symObjAddr: 0x6A8, symBinAddr: 0x10006D5AC, symSize: 0x20 }
  - { offsetInCU: 0x24B24, offset: 0x6A9CC3, size: 0x8, addend: 0x0, symName: __ZN8OpenPlay16EnableNewPlayersEb, symObjAddr: 0x6C8, symBinAddr: 0x10006D5CC, symSize: 0x20 }
  - { offsetInCU: 0x24B63, offset: 0x6A9D02, size: 0x8, addend: 0x0, symName: __ZN8OpenPlay13GetPlayerNameERKNSt3__112basic_stringIcNS0_11char_traitsIcEENS0_9allocatorIcEEEERS6_S9_, symObjAddr: 0x6E8, symBinAddr: 0x10006D5EC, symSize: 0x20 }
  - { offsetInCU: 0x24BBA, offset: 0x6A9D59, size: 0x8, addend: 0x0, symName: __ZN8OpenPlay13SetPlayerNameERKNSt3__112basic_stringIcNS0_11char_traitsIcEENS0_9allocatorIcEEEES8_S8_, symObjAddr: 0x708, symBinAddr: 0x10006D60C, symSize: 0x20 }
  - { offsetInCU: 0x24D38, offset: 0x6A9ED7, size: 0x8, addend: 0x0, symName: __ZN8OpenPlay7ReceiveERNSt3__112basic_stringIcNS0_11char_traitsIcEENS0_9allocatorIcEEEES7_jR9XPLAY_PKT, symObjAddr: 0x728, symBinAddr: 0x10006D62C, symSize: 0x26C }
  - { offsetInCU: 0x255F1, offset: 0x6AA790, size: 0x8, addend: 0x0, symName: __ZNSt3__13mapINS_12basic_stringIcNS_11char_traitsIcEENS_9allocatorIcEEEE10OpenPlayerNS_4lessIS6_EENS4_INS_4pairIKS6_S7_EEEEEC2B8ue170006ERKSE_, symObjAddr: 0x3414, symBinAddr: 0x1000700E4, symSize: 0x54 }
  - { offsetInCU: 0x25607, offset: 0x6AA7A6, size: 0x8, addend: 0x0, symName: __ZN8OpenPlay13SystemMessageER9XPLAY_PKT, symObjAddr: 0x994, symBinAddr: 0x10006D898, symSize: 0x6B4 }
  - { offsetInCU: 0x282C8, offset: 0x6AD467, size: 0x8, addend: 0x0, symName: __ZN10PONG_PARMSC2ERKNSt3__112basic_stringIcNS0_11char_traitsIcEENS0_9allocatorIcEEEE, symObjAddr: 0x12F80, symBinAddr: 0x100071EFC, symSize: 0xBC }
  - { offsetInCU: 0x286C7, offset: 0x6AD866, size: 0x8, addend: 0x0, symName: __ZN10PING_PARMSC2ERKNSt3__112basic_stringIcNS0_11char_traitsIcEENS0_9allocatorIcEEEE, symObjAddr: 0x124C4, symBinAddr: 0x100071740, symSize: 0xA8 }
  - { offsetInCU: 0x289B6, offset: 0x6ADB55, size: 0x8, addend: 0x0, symName: __ZN10PlayerList9GetPlayerENSt3__112basic_stringIcNS0_11char_traitsIcEENS0_9allocatorIcEEEE, symObjAddr: 0x1504, symBinAddr: 0x10006E408, symSize: 0x64 }
  - { offsetInCU: 0x28AE7, offset: 0x6ADC86, size: 0x8, addend: 0x0, symName: __ZN8OpenPlay9AddPlayerER10OpenPlayer, symObjAddr: 0x1568, symBinAddr: 0x10006E46C, symSize: 0x45C }
  - { offsetInCU: 0x2AB26, offset: 0x6AFCC5, size: 0x8, addend: 0x0, symName: __ZN10OpenPlayer8SelectIPENSt3__112basic_stringIcNS0_11char_traitsIcEENS0_9allocatorIcEEEE, symObjAddr: 0x20B0, symBinAddr: 0x10006EFB4, symSize: 0x158 }
  - { offsetInCU: 0x2AEEB, offset: 0x6B008A, size: 0x8, addend: 0x0, symName: __ZN10PONG_PARMS7to_jsonEv, symObjAddr: 0x19C4, symBinAddr: 0x10006E8C8, symSize: 0x3AC }
  - { offsetInCU: 0x2D00F, offset: 0x6B21AE, size: 0x8, addend: 0x0, symName: __ZL7_sendtoiRK11ipCandidateR9XPLAY_PKT, symObjAddr: 0x1D70, symBinAddr: 0x10006EC74, symSize: 0x244 }
  - { offsetInCU: 0x2D98E, offset: 0x6B2B2D, size: 0x8, addend: 0x0, symName: __ZN10OpenPlayerD2Ev, symObjAddr: 0x139D4, symBinAddr: 0x100072950, symSize: 0xA4 }
  - { offsetInCU: 0x2E244, offset: 0x6B33E3, size: 0x8, addend: 0x0, symName: __ZN10PONG_PARMSD1Ev, symObjAddr: 0x1FB4, symBinAddr: 0x10006EEB8, symSize: 0x50 }
  - { offsetInCU: 0x2E521, offset: 0x6B36C0, size: 0x8, addend: 0x0, symName: __ZN9XPLAY_PKTD1Ev, symObjAddr: 0x2004, symBinAddr: 0x10006EF08, symSize: 0x6C }
  - { offsetInCU: 0x2EA4E, offset: 0x6B3BED, size: 0x8, addend: 0x0, symName: __ZN10PING_PARMSD1Ev, symObjAddr: 0x2070, symBinAddr: 0x10006EF74, symSize: 0x40 }
  - { offsetInCU: 0x2ECEE, offset: 0x6B3E8D, size: 0x8, addend: 0x0, symName: __ZN8OpenPlay4SendERKNSt3__112basic_stringIcNS0_11char_traitsIcEENS0_9allocatorIcEEEES8_jR9XPLAY_PKT, symObjAddr: 0x1048, symBinAddr: 0x10006DF4C, symSize: 0x270 }
  - { offsetInCU: 0x2F7F7, offset: 0x6B4996, size: 0x8, addend: 0x0, symName: __ZNSt3__13mapINS_12basic_stringIcNS_11char_traitsIcEENS_9allocatorIcEEEE10OpenPlayerNS_4lessIS6_EENS4_INS_4pairIKS6_S7_EEEEEC2B8ue170006ERKSE_, symObjAddr: 0x3414, symBinAddr: 0x1000700E4, symSize: 0x54 }
  - { offsetInCU: 0x2F9B3, offset: 0x6B4B52, size: 0x8, addend: 0x0, symName: __ZL7_sendtoiRK10OpenPlayerR9XPLAY_PKT, symObjAddr: 0x12B8, symBinAddr: 0x10006E1BC, symSize: 0x24C }
  - { offsetInCU: 0x30704, offset: 0x6B58A3, size: 0x8, addend: 0x0, symName: __ZNSt3__16__treeINS_12__value_typeINS_12basic_stringIcNS_11char_traitsIcEENS_9allocatorIcEEEE10OpenPlayerEENS_19__map_value_compareIS7_S9_NS_4lessIS7_EELb1EEENS5_IS9_EEE4findIS7_EENS_15__tree_iteratorIS9_PNS_11__tree_nodeIS9_PvEElEERKT_, symObjAddr: 0x12270, symBinAddr: 0x100071568, symSize: 0x7C }
  - { offsetInCU: 0x30898, offset: 0x6B5A37, size: 0x8, addend: 0x0, symName: __ZNSt3__16__treeINS_12__value_typeINS_12basic_stringIcNS_11char_traitsIcEENS_9allocatorIcEEEE10OpenPlayerEENS_19__map_value_compareIS7_S9_NS_4lessIS7_EELb1EEENS5_IS9_EEE25__emplace_unique_key_argsIS7_JRKNS_21piecewise_construct_tENS_5tupleIJRKS7_EEENSK_IJEEEEEENS_4pairINS_15__tree_iteratorIS9_PNS_11__tree_nodeIS9_PvEElEEbEERKT_DpOT0_, symObjAddr: 0x122EC, symBinAddr: 0x1000715E4, symSize: 0xA8 }
  - { offsetInCU: 0x30BB1, offset: 0x6B5D50, size: 0x8, addend: 0x0, symName: __ZN10PlayerList9AddPlayerERK10OpenPlayer, symObjAddr: 0x2208, symBinAddr: 0x10006F10C, symSize: 0x110 }
  - { offsetInCU: 0x3109E, offset: 0x6B623D, size: 0x8, addend: 0x0, symName: __ZNSt3__16vectorI11ipCandidateNS_9allocatorIS1_EEE16__init_with_sizeB8ue170006IPS1_S6_EEvT_T0_m, symObjAddr: 0x1370C, symBinAddr: 0x100072688, symSize: 0x84 }
  - { offsetInCU: 0x31336, offset: 0x6B64D5, size: 0x8, addend: 0x0, symName: __ZN10OpenPlayerC2ENSt3__112basic_stringIcNS0_11char_traitsIcEENS0_9allocatorIcEEEES6_S6_15ipCandidateList, symObjAddr: 0x13790, symBinAddr: 0x10007270C, symSize: 0x1B4 }
  - { offsetInCU: 0x31CA8, offset: 0x6B6E47, size: 0x8, addend: 0x0, symName: __ZN10PING_PARMSC2ENSt3__112basic_stringIcNS0_11char_traitsIcEENS0_9allocatorIcEEEERK10OpenPlayer, symObjAddr: 0x13944, symBinAddr: 0x1000728C0, symSize: 0x90 }
  - { offsetInCU: 0x31EF2, offset: 0x6B7091, size: 0x8, addend: 0x0, symName: __ZN10PING_PARMS7to_jsonEv, symObjAddr: 0x2318, symBinAddr: 0x10006F21C, symSize: 0x1D4 }
  - { offsetInCU: 0x32EF0, offset: 0x6B808F, size: 0x8, addend: 0x0, symName: __ZN9XPLAY_PKT7to_jsonEv, symObjAddr: 0x24EC, symBinAddr: 0x10006F3F0, symSize: 0x3DC }
  - { offsetInCU: 0x35191, offset: 0x6BA330, size: 0x8, addend: 0x0, symName: __ZN10OpenPlayer7to_jsonEv, symObjAddr: 0x3DFC, symBinAddr: 0x100070A38, symSize: 0x444 }
  - { offsetInCU: 0x379A3, offset: 0x6BCB42, size: 0x8, addend: 0x0, symName: __ZL7_sendtoiRK11ipCandidateR9XPLAY_PKT.cold.1, symObjAddr: 0x13D48, symBinAddr: 0x10024F89C, symSize: 0x54 }
  - { offsetInCU: 0x37B2F, offset: 0x6BCCCE, size: 0x8, addend: 0x0, symName: __ZNSt3__13mapINS_12basic_stringIcNS_11char_traitsIcEENS_9allocatorIcEEEE10OpenPlayerNS_4lessIS6_EENS4_INS_4pairIKS6_S7_EEEEE16insert_or_assignB8ue170006IRKS7_EENSA_INS_14__map_iteratorINS_15__tree_iteratorINS_12__value_typeIS6_S7_EEPNS_11__tree_nodeISL_PvEElEEEEbEEOS6_OT_, symObjAddr: 0x1303C, symBinAddr: 0x100071FB8, symSize: 0x130 }
  - { offsetInCU: 0x37F42, offset: 0x6BD0E1, size: 0x8, addend: 0x0, symName: __Z11enum_playerNSt3__112basic_stringIcNS_11char_traitsIcEENS_9allocatorIcEEEES5_S5_, symObjAddr: 0x28C8, symBinAddr: 0x10006F7CC, symSize: 0x1BC }
  - { offsetInCU: 0x38CE0, offset: 0x6BDE7F, size: 0x8, addend: 0x0, symName: __ZN10OpenPlayerC2ENSt3__112basic_stringIcNS0_11char_traitsIcEENS0_9allocatorIcEEEES6_S6_S6_, symObjAddr: 0x13A78, symBinAddr: 0x1000729F4, symSize: 0x1F8 }
  - { offsetInCU: 0x399FE, offset: 0x6BEB9D, size: 0x8, addend: 0x0, symName: __ZN8OpenPlay4OpenERKNSt3__112basic_stringIcNS0_11char_traitsIcEENS0_9allocatorIcEEEEPFbS8_S8_bEj, symObjAddr: 0x2A84, symBinAddr: 0x10006F988, symSize: 0x170 }
  - { offsetInCU: 0x39EE0, offset: 0x6BF07F, size: 0x8, addend: 0x0, symName: __ZN8OpenPlay11EnumPlayersEPFbRKNSt3__112basic_stringIcNS0_11char_traitsIcEENS0_9allocatorIcEEEES8_bE, symObjAddr: 0x2BF4, symBinAddr: 0x10006FAF8, symSize: 0x128 }
  - { offsetInCU: 0x3A5A1, offset: 0x6BF740, size: 0x8, addend: 0x0, symName: __Z13enum_providerNSt3__112basic_stringIcNS_11char_traitsIcEENS_9allocatorIcEEEES5_, symObjAddr: 0x2D1C, symBinAddr: 0x10006FC20, symSize: 0xE0 }
  - { offsetInCU: 0x3AC0E, offset: 0x6BFDAD, size: 0x8, addend: 0x0, symName: __Z17OpenPlayEnumeratePFbNSt3__112basic_stringIcNS_11char_traitsIcEENS_9allocatorIcEEEES5_E, symObjAddr: 0x2DFC, symBinAddr: 0x10006FD00, symSize: 0x80 }
  - { offsetInCU: 0x3AF72, offset: 0x6C0111, size: 0x8, addend: 0x0, symName: __Z9enum_roomNSt3__112basic_stringIcNS_11char_traitsIcEENS_9allocatorIcEEEES5_, symObjAddr: 0x2E7C, symBinAddr: 0x10006FD80, symSize: 0xC8 }
  - { offsetInCU: 0x3B5F1, offset: 0x6C0790, size: 0x8, addend: 0x0, symName: __ZN7SessionD1Ev, symObjAddr: 0x2F44, symBinAddr: 0x10006FE48, symSize: 0x40 }
  - { offsetInCU: 0x3B896, offset: 0x6C0A35, size: 0x8, addend: 0x0, symName: __ZN8OpenPlay12EnumSessionsEP7SessionjPFbS1_PvPjjES2_j, symObjAddr: 0x2F8C, symBinAddr: 0x10006FE88, symSize: 0x80 }
  - { offsetInCU: 0x3BBB4, offset: 0x6C0D53, size: 0x8, addend: 0x0, symName: __ZN8OpenPlay5CloseEv, symObjAddr: 0x300C, symBinAddr: 0x10006FF08, symSize: 0x20 }
  - { offsetInCU: 0x3BBE7, offset: 0x6C0D86, size: 0x8, addend: 0x0, symName: __ZN8OpenPlay11SaveSessionEPKc, symObjAddr: 0x302C, symBinAddr: 0x10006FF28, symSize: 0x20 }
  - { offsetInCU: 0x3BC26, offset: 0x6C0DC5, size: 0x8, addend: 0x0, symName: __ZN8OpenPlayD1Ev, symObjAddr: 0x304C, symBinAddr: 0x10006FF48, symSize: 0x4 }
  - { offsetInCU: 0x3BC4A, offset: 0x6C0DE9, size: 0x8, addend: 0x0, symName: __ZN8OpenPlayD1Ev, symObjAddr: 0x304C, symBinAddr: 0x10006FF48, symSize: 0x4 }
  - { offsetInCU: 0x3BC5D, offset: 0x6C0DFC, size: 0x8, addend: 0x0, symName: __ZN8OpenPlayD2Ev, symObjAddr: 0x13C70, symBinAddr: 0x100072BEC, symSize: 0xD8 }
  - { offsetInCU: 0x3C418, offset: 0x6C15B7, size: 0x8, addend: 0x0, symName: __ZN8OpenPlayD0Ev, symObjAddr: 0x3050, symBinAddr: 0x10006FF4C, symSize: 0x14 }
  - { offsetInCU: 0x3C474, offset: 0x6C1613, size: 0x8, addend: 0x0, symName: __ZN8OpenPlay14SetSessionNameENSt3__112basic_stringIcNS0_11char_traitsIcEENS0_9allocatorIcEEEE, symObjAddr: 0x3064, symBinAddr: 0x10006FF60, symSize: 0x8 }
  - { offsetInCU: 0x3C4AA, offset: 0x6C1649, size: 0x8, addend: 0x0, symName: __ZN8OpenPlay14GetSessionNameEv, symObjAddr: 0x306C, symBinAddr: 0x10006FF68, symSize: 0x8 }
  - { offsetInCU: 0x3C5A4, offset: 0x6C1743, size: 0x8, addend: 0x0, symName: __ZN8OpenPlay6StunIpEv, symObjAddr: 0x3074, symBinAddr: 0x10006FF70, symSize: 0xFC }
  - { offsetInCU: 0x3CE74, offset: 0x6C2013, size: 0x8, addend: 0x0, symName: __ZNSt3__16vectorI11ipCandidateNS_9allocatorIS1_EEE16__destroy_vectorclB8ue170006Ev, symObjAddr: 0x32B0, symBinAddr: 0x100070074, symSize: 0x70 }
  - { offsetInCU: 0x3CE84, offset: 0x6C2023, size: 0x8, addend: 0x0, symName: __ZN8OpenPlay10CandidatesEv, symObjAddr: 0x3170, symBinAddr: 0x10007006C, symSize: 0x8 }
  - { offsetInCU: 0x3CEC1, offset: 0x6C2060, size: 0x8, addend: 0x0, symName: __ZN15ipCandidateList7to_jsonEv, symObjAddr: 0x12008, symBinAddr: 0x100071300, symSize: 0x1A0 }
  - { offsetInCU: 0x3DA78, offset: 0x6C2C17, size: 0x8, addend: 0x0, symName: __ZN11IDirectPlayD1Ev, symObjAddr: 0x3178, symBinAddr: 0x10024F894, symSize: 0x4 }
  - { offsetInCU: 0x3DAA1, offset: 0x6C2C40, size: 0x8, addend: 0x0, symName: __ZN11IDirectPlayD0Ev, symObjAddr: 0x317C, symBinAddr: 0x10024F898, symSize: 0x4 }
  - { offsetInCU: 0x3DE3F, offset: 0x6C2FDE, size: 0x8, addend: 0x0, symName: __ZNSt3__13mapINS_12basic_stringIcNS_11char_traitsIcEENS_9allocatorIcEEEE10OpenPlayerNS_4lessIS6_EENS4_INS_4pairIKS6_S7_EEEEE6insertB8ue170006INS_20__map_const_iteratorINS_21__tree_const_iteratorINS_12__value_typeIS6_S7_EEPNS_11__tree_nodeISJ_PvEElEEEEEEvT_SQ_, symObjAddr: 0x3468, symBinAddr: 0x100070138, symSize: 0x84 }
  - { offsetInCU: 0x3E0EE, offset: 0x6C328D, size: 0x8, addend: 0x0, symName: __ZNSt3__16__treeINS_12__value_typeINS_12basic_stringIcNS_11char_traitsIcEENS_9allocatorIcEEEE10OpenPlayerEENS_19__map_value_compareIS7_S9_NS_4lessIS7_EELb1EEENS5_IS9_EEE30__emplace_hint_unique_key_argsIS7_JRKNS_4pairIKS7_S8_EEEEENSH_INS_15__tree_iteratorIS9_PNS_11__tree_nodeIS9_PvEElEEbEENS_21__tree_const_iteratorIS9_SQ_lEERKT_DpOT0_, symObjAddr: 0x34EC, symBinAddr: 0x1000701BC, symSize: 0x94 }
  - { offsetInCU: 0x3E355, offset: 0x6C34F4, size: 0x8, addend: 0x0, symName: __ZNSt3__16__treeINS_12__value_typeINS_12basic_stringIcNS_11char_traitsIcEENS_9allocatorIcEEEE10OpenPlayerEENS_19__map_value_compareIS7_S9_NS_4lessIS7_EELb1EEENS5_IS9_EEE12__find_equalIS7_EERPNS_16__tree_node_baseIPvEENS_21__tree_const_iteratorIS9_PNS_11__tree_nodeIS9_SI_EElEERPNS_15__tree_end_nodeISK_EESL_RKT_, symObjAddr: 0x3580, symBinAddr: 0x100070250, symSize: 0x184 }
  - { offsetInCU: 0x3E7AD, offset: 0x6C394C, size: 0x8, addend: 0x0, symName: __ZNSt3__16__treeINS_12__value_typeINS_12basic_stringIcNS_11char_traitsIcEENS_9allocatorIcEEEE10OpenPlayerEENS_19__map_value_compareIS7_S9_NS_4lessIS7_EELb1EEENS5_IS9_EEE16__construct_nodeIJRKNS_4pairIKS7_S8_EEEEENS_10unique_ptrINS_11__tree_nodeIS9_PvEENS_22__tree_node_destructorINS5_ISP_EEEEEEDpOT_, symObjAddr: 0x3704, symBinAddr: 0x1000703D4, symSize: 0x68 }
  - { offsetInCU: 0x3EA68, offset: 0x6C3C07, size: 0x8, addend: 0x0, symName: __ZNSt3__16__treeINS_12__value_typeINS_12basic_stringIcNS_11char_traitsIcEENS_9allocatorIcEEEE10OpenPlayerEENS_19__map_value_compareIS7_S9_NS_4lessIS7_EELb1EEENS5_IS9_EEE16__insert_node_atEPNS_15__tree_end_nodeIPNS_16__tree_node_baseIPvEEEERSK_SK_, symObjAddr: 0x376C, symBinAddr: 0x10007043C, symSize: 0x54 }
  - { offsetInCU: 0x3EACF, offset: 0x6C3C6E, size: 0x8, addend: 0x0, symName: __ZNSt3__110unique_ptrINS_11__tree_nodeINS_12__value_typeINS_12basic_stringIcNS_11char_traitsIcEENS_9allocatorIcEEEE10OpenPlayerEEPvEENS_22__tree_node_destructorINS6_ISC_EEEEE5resetB8ue170006EPSC_, symObjAddr: 0x121A8, symBinAddr: 0x1000714A0, symSize: 0x44 }
  - { offsetInCU: 0x3ED3D, offset: 0x6C3EDC, size: 0x8, addend: 0x0, symName: __ZNSt3__16__treeINS_12__value_typeINS_12basic_stringIcNS_11char_traitsIcEENS_9allocatorIcEEEE10OpenPlayerEENS_19__map_value_compareIS7_S9_NS_4lessIS7_EELb1EEENS5_IS9_EEE12__find_equalIS7_EERPNS_16__tree_node_baseIPvEERPNS_15__tree_end_nodeISK_EERKT_, symObjAddr: 0x37C0, symBinAddr: 0x100070490, symSize: 0x90 }
  - { offsetInCU: 0x3F0E8, offset: 0x6C4287, size: 0x8, addend: 0x0, symName: __ZNSt3__14pairIKNS_12basic_stringIcNS_11char_traitsIcEENS_9allocatorIcEEEE10OpenPlayerEC2B8ue170006ERKS9_, symObjAddr: 0x38E4, symBinAddr: 0x100070520, symSize: 0x74 }
  - { offsetInCU: 0x3F33B, offset: 0x6C44DA, size: 0x8, addend: 0x0, symName: __ZN10OpenPlayerC2ERKS_, symObjAddr: 0x3958, symBinAddr: 0x100070594, symSize: 0x218 }
  - { offsetInCU: 0x3FECB, offset: 0x6C506A, size: 0x8, addend: 0x0, symName: __ZN10OpenPlayer9from_jsonERKNSt3__112basic_stringIcNS0_11char_traitsIcEENS0_9allocatorIcEEEE, symObjAddr: 0x3B70, symBinAddr: 0x1000707AC, symSize: 0x28C }
  - { offsetInCU: 0x416C2, offset: 0x6C6861, size: 0x8, addend: 0x0, symName: __ZN15ipCandidateList9from_jsonENSt3__112basic_stringIcNS0_11char_traitsIcEENS0_9allocatorIcEEEE, symObjAddr: 0x4468, symBinAddr: 0x100070E7C, symSize: 0x2E8 }
  - { offsetInCU: 0x44F62, offset: 0x6CA101, size: 0x8, addend: 0x0, symName: __ZN11ipCandidateC2ENSt3__112basic_stringIcNS0_11char_traitsIcEENS0_9allocatorIcEEEE, symObjAddr: 0xF714, symBinAddr: 0x100071164, symSize: 0x19C }
  - { offsetInCU: 0x60EC8, offset: 0x6E6067, size: 0x8, addend: 0x0, symName: __ZNSt3__16__treeINS_12__value_typeINS_12basic_stringIcNS_11char_traitsIcEENS_9allocatorIcEEEE10OpenPlayerEENS_19__map_value_compareIS7_S9_NS_4lessIS7_EELb1EEENS5_IS9_EEE16__construct_nodeIJRKNS_21piecewise_construct_tENS_5tupleIJRKS7_EEENSK_IJEEEEEENS_10unique_ptrINS_11__tree_nodeIS9_PvEENS_22__tree_node_destructorINS5_ISS_EEEEEEDpOT_, symObjAddr: 0x12394, symBinAddr: 0x10007168C, symSize: 0xB4 }
  - { offsetInCU: 0x61507, offset: 0x6E66A6, size: 0x8, addend: 0x0, symName: __ZN10PING_PARMS9from_jsonERKNSt3__112basic_stringIcNS0_11char_traitsIcEENS0_9allocatorIcEEEE, symObjAddr: 0x1256C, symBinAddr: 0x1000717E8, symSize: 0x20C }
  - { offsetInCU: 0x61E5F, offset: 0x6E6FFE, size: 0x8, addend: 0x0, symName: __ZN9XPLAY_PKT9from_jsonERKNSt3__112basic_stringIcNS0_11char_traitsIcEENS0_9allocatorIcEEEE, symObjAddr: 0x12778, symBinAddr: 0x1000719F4, symSize: 0x2A0 }
  - { offsetInCU: 0x62A74, offset: 0x6E7C13, size: 0x8, addend: 0x0, symName: __ZN10PONG_PARMS9from_jsonERKNSt3__112basic_stringIcNS0_11char_traitsIcEENS0_9allocatorIcEEEE, symObjAddr: 0x12BE4, symBinAddr: 0x100071C94, symSize: 0x268 }
  - { offsetInCU: 0x63A20, offset: 0x6E8BBF, size: 0x8, addend: 0x0, symName: __ZNSt3__16vectorI11ipCandidateNS_9allocatorIS1_EEE18__assign_with_sizeB8ue170006IPS1_S6_EEvT_T0_l, symObjAddr: 0x1316C, symBinAddr: 0x1000720E8, symSize: 0x19C }
  - { offsetInCU: 0x64081, offset: 0x6E9220, size: 0x8, addend: 0x0, symName: __ZNSt3__16__treeINS_12__value_typeINS_12basic_stringIcNS_11char_traitsIcEENS_9allocatorIcEEEE10OpenPlayerEENS_19__map_value_compareIS7_S9_NS_4lessIS7_EELb1EEENS5_IS9_EEE30__emplace_hint_unique_key_argsIS7_JS7_RKS8_EEENS_4pairINS_15__tree_iteratorIS9_PNS_11__tree_nodeIS9_PvEElEEbEENS_21__tree_const_iteratorIS9_SO_lEERKT_DpOT0_, symObjAddr: 0x1359C, symBinAddr: 0x100072518, symSize: 0xA4 }
  - { offsetInCU: 0x643A8, offset: 0x6E9547, size: 0x8, addend: 0x0, symName: __ZNSt3__16vectorI11ipCandidateNS_9allocatorIS1_EEE13__vdeallocateEv, symObjAddr: 0x13308, symBinAddr: 0x100072284, symSize: 0x64 }
  - { offsetInCU: 0x64582, offset: 0x6E9721, size: 0x8, addend: 0x0, symName: __ZNSt3__16vectorI11ipCandidateNS_9allocatorIS1_EEE11__vallocateB8ue170006Em, symObjAddr: 0x1336C, symBinAddr: 0x1000722E8, symSize: 0x54 }
  - { offsetInCU: 0x64600, offset: 0x6E979F, size: 0x8, addend: 0x0, symName: __ZNSt3__135__uninitialized_allocator_copy_implB8ue170006INS_9allocatorI11ipCandidateEEPS2_S4_S4_EET2_RT_T0_T1_S5_, symObjAddr: 0x133C0, symBinAddr: 0x10007233C, symSize: 0x80 }
  - { offsetInCU: 0x64611, offset: 0x6E97B0, size: 0x8, addend: 0x0, symName: __ZNKSt3__111__copy_loopINS_17_ClassicAlgPolicyEEclB8ue170006IP11ipCandidateS5_S5_EENS_4pairIT_T1_EES7_T0_S8_, symObjAddr: 0x13524, symBinAddr: 0x1000724A0, symSize: 0x78 }
  - { offsetInCU: 0x64776, offset: 0x6E9915, size: 0x8, addend: 0x0, symName: __ZNSt3__16__treeINS_12__value_typeINS_12basic_stringIcNS_11char_traitsIcEENS_9allocatorIcEEEE10OpenPlayerEENS_19__map_value_compareIS7_S9_NS_4lessIS7_EELb1EEENS5_IS9_EEE16__construct_nodeIJS7_RKS8_EEENS_10unique_ptrINS_11__tree_nodeIS9_PvEENS_22__tree_node_destructorINS5_ISM_EEEEEEDpOT_, symObjAddr: 0x13640, symBinAddr: 0x1000725BC, symSize: 0x70 }
  - { offsetInCU: 0x64AFE, offset: 0x6E9C9D, size: 0x8, addend: 0x0, symName: __ZNSt3__14pairIKNS_12basic_stringIcNS_11char_traitsIcEENS_9allocatorIcEEEE10OpenPlayerEC2B8ue170006IS6_RKS8_LPv0EEEOT_OT0_, symObjAddr: 0x136B0, symBinAddr: 0x10007262C, symSize: 0x5C }
  - { offsetInCU: 0x26, offset: 0x6EA0B5, size: 0x8, addend: 0x0, symName: __Z13userMouseMove5POINT, symObjAddr: 0x0, symBinAddr: 0x100072CC4, symSize: 0x20 }
  - { offsetInCU: 0x3F, offset: 0x6EA0CE, size: 0x8, addend: 0x0, symName: _user, symObjAddr: 0x5FCC, symBinAddr: 0x100329798, symSize: 0x0 }
  - { offsetInCU: 0x9E, offset: 0x6EA12D, size: 0x8, addend: 0x0, symName: __ZL6action.0, symObjAddr: 0x5FD8, symBinAddr: 0x100458758, symSize: 0x0 }
  - { offsetInCU: 0xB0, offset: 0x6EA13F, size: 0x8, addend: 0x0, symName: __ZL6action.1, symObjAddr: 0x5FE0, symBinAddr: 0x100458760, symSize: 0x0 }
  - { offsetInCU: 0xBB, offset: 0x6EA14A, size: 0x8, addend: 0x0, symName: __ZL6action.2, symObjAddr: 0x5FE8, symBinAddr: 0x100458768, symSize: 0x0 }
  - { offsetInCU: 0x2ACD, offset: 0x6ECB5C, size: 0x8, addend: 0x0, symName: __Z13userMouseMove5POINT, symObjAddr: 0x0, symBinAddr: 0x100072CC4, symSize: 0x20 }
  - { offsetInCU: 0x2AF3, offset: 0x6ECB82, size: 0x8, addend: 0x0, symName: __Z15userRButtonDown5POINT, symObjAddr: 0x20, symBinAddr: 0x100072CE4, symSize: 0x10 }
  - { offsetInCU: 0x2B1E, offset: 0x6ECBAD, size: 0x8, addend: 0x0, symName: __Z13userRButtonUp5POINT, symObjAddr: 0x30, symBinAddr: 0x100072CF4, symSize: 0x10 }
  - { offsetInCU: 0x2B49, offset: 0x6ECBD8, size: 0x8, addend: 0x0, symName: __Z15viewLButtonDown5POINT, symObjAddr: 0x40, symBinAddr: 0x100072D04, symSize: 0x10 }
  - { offsetInCU: 0x2B74, offset: 0x6ECC03, size: 0x8, addend: 0x0, symName: __Z13viewLButtonUp5POINT, symObjAddr: 0x50, symBinAddr: 0x100072D14, symSize: 0x10 }
  - { offsetInCU: 0x2B9F, offset: 0x6ECC2E, size: 0x8, addend: 0x0, symName: __Z15userLButtonDown5POINT, symObjAddr: 0x60, symBinAddr: 0x100072D24, symSize: 0x28 }
  - { offsetInCU: 0x2BC5, offset: 0x6ECC54, size: 0x8, addend: 0x0, symName: __Z13userLButtonUp5POINT, symObjAddr: 0x88, symBinAddr: 0x100072D4C, symSize: 0x28 }
  - { offsetInCU: 0x2BEB, offset: 0x6ECC7A, size: 0x8, addend: 0x0, symName: __Z4Userv, symObjAddr: 0xB0, symBinAddr: 0x100072D74, symSize: 0x48 }
  - { offsetInCU: 0x2C12, offset: 0x6ECCA1, size: 0x8, addend: 0x0, symName: __Z14userKeyPressedib, symObjAddr: 0xF8, symBinAddr: 0x100072DBC, symSize: 0x10 }
  - { offsetInCU: 0x2C51, offset: 0x6ECCE0, size: 0x8, addend: 0x0, symName: __Z15userKeyReleasedib, symObjAddr: 0x108, symBinAddr: 0x100072DCC, symSize: 0x10 }
  - { offsetInCU: 0x2A0D, offset: 0x6EF72C, size: 0x8, addend: 0x0, symName: __ZN4Wave4InitEv, symObjAddr: 0x20, symBinAddr: 0x100072DDC, symSize: 0x18 }
  - { offsetInCU: 0x2A3D, offset: 0x6EF75C, size: 0x8, addend: 0x0, symName: __ZN4WaveC2EPKc, symObjAddr: 0x48, symBinAddr: 0x100072DF4, symSize: 0x58 }
  - { offsetInCU: 0x2A7A, offset: 0x6EF799, size: 0x8, addend: 0x0, symName: __ZN4WaveC1EPKc, symObjAddr: 0xA0, symBinAddr: 0x100072E4C, symSize: 0x4 }
  - { offsetInCU: 0x2AB6, offset: 0x6EF7D5, size: 0x8, addend: 0x0, symName: __ZN4WaveC1EPKc, symObjAddr: 0xA0, symBinAddr: 0x100072E4C, symSize: 0x4 }
  - { offsetInCU: 0x2AD0, offset: 0x6EF7EF, size: 0x8, addend: 0x0, symName: __ZN4WaveD1Ev, symObjAddr: 0xA8, symBinAddr: 0x100072E50, symSize: 0x4 }
  - { offsetInCU: 0x2AFB, offset: 0x6EF81A, size: 0x8, addend: 0x0, symName: __ZN4Wave11SetFxVolumeEi, symObjAddr: 0xAC, symBinAddr: 0x100072E54, symSize: 0x14 }
  - { offsetInCU: 0x2B3F, offset: 0x6EF85E, size: 0x8, addend: 0x0, symName: __ZN4Wave14SetMusicVolumeEi, symObjAddr: 0xC0, symBinAddr: 0x100072E68, symSize: 0x14 }
  - { offsetInCU: 0x2B83, offset: 0x6EF8A2, size: 0x8, addend: 0x0, symName: __ZN4Wave4PlayEt, symObjAddr: 0xD4, symBinAddr: 0x100072E7C, symSize: 0x1C }
  - { offsetInCU: 0x2BDB, offset: 0x6EF8FA, size: 0x8, addend: 0x0, symName: __ZN4Wave19PlayBackgroundMusicEt, symObjAddr: 0xF0, symBinAddr: 0x100072E98, symSize: 0x44 }
  - { offsetInCU: 0x2C33, offset: 0x6EF952, size: 0x8, addend: 0x0, symName: __ZN4Wave4StopEv, symObjAddr: 0x15C, symBinAddr: 0x100072EDC, symSize: 0x4 }
  - { offsetInCU: 0x2C5A, offset: 0x6EF979, size: 0x8, addend: 0x0, symName: __ZN4Wave5PauseEt, symObjAddr: 0x160, symBinAddr: 0x100072EE0, symSize: 0x4 }
  - { offsetInCU: 0x2C8F, offset: 0x6EF9AE, size: 0x8, addend: 0x0, symName: __ZN4Wave9SetVolumeEl, symObjAddr: 0x164, symBinAddr: 0x100072EE4, symSize: 0x8 }
  - { offsetInCU: 0x2CC6, offset: 0x6EF9E5, size: 0x8, addend: 0x0, symName: __ZN4Wave7ReleaseEv, symObjAddr: 0x17C, symBinAddr: 0x100072EEC, symSize: 0x8 }
  - { offsetInCU: 0x53, offset: 0x6EFA4E, size: 0x8, addend: 0x0, symName: __ZL12base64_chars, symObjAddr: 0x150E0, symBinAddr: 0x100458770, symSize: 0x0 }
  - { offsetInCU: 0x4C1B, offset: 0x6F4616, size: 0x8, addend: 0x0, symName: __Z13base64_encodePKhj, symObjAddr: 0x0, symBinAddr: 0x100072EF4, symSize: 0x1CC }
  - { offsetInCU: 0x5013, offset: 0x6F4A0E, size: 0x8, addend: 0x0, symName: __Z13base64_decodeRKNSt3__112basic_stringIcNS_11char_traitsIcEENS_9allocatorIcEEEE, symObjAddr: 0x1CC, symBinAddr: 0x1000730C0, symSize: 0x254 }
  - { offsetInCU: 0x26, offset: 0x6F4E58, size: 0x8, addend: 0x0, symName: __ZN5PANELD2Ev, symObjAddr: 0x0, symBinAddr: 0x100073358, symSize: 0x4 }
  - { offsetInCU: 0x9C75, offset: 0x6FEAA7, size: 0x8, addend: 0x0, symName: __ZN5PANELD2Ev, symObjAddr: 0x0, symBinAddr: 0x100073358, symSize: 0x4 }
  - { offsetInCU: 0x9CB7, offset: 0x6FEAE9, size: 0x8, addend: 0x0, symName: __ZN5PANELD1Ev, symObjAddr: 0x4, symBinAddr: 0x10007335C, symSize: 0x4 }
  - { offsetInCU: 0x9CDB, offset: 0x6FEB0D, size: 0x8, addend: 0x0, symName: __ZN5PANELD1Ev, symObjAddr: 0x4, symBinAddr: 0x10007335C, symSize: 0x4 }
  - { offsetInCU: 0x9D12, offset: 0x6FEB44, size: 0x8, addend: 0x0, symName: __ZN5PANELD0Ev, symObjAddr: 0x8, symBinAddr: 0x100073360, symSize: 0x14 }
  - { offsetInCU: 0x9D79, offset: 0x6FEBAB, size: 0x8, addend: 0x0, symName: __ZN5PANELC2Ei, symObjAddr: 0x1C, symBinAddr: 0x100073374, symSize: 0x2C }
  - { offsetInCU: 0x9DCB, offset: 0x6FEBFD, size: 0x8, addend: 0x0, symName: __ZN5PANELC1Ei, symObjAddr: 0x48, symBinAddr: 0x1000733A0, symSize: 0x2C }
  - { offsetInCU: 0x9E2E, offset: 0x6FEC60, size: 0x8, addend: 0x0, symName: __ZN5PANEL6KeycmdEii, symObjAddr: 0x74, symBinAddr: 0x1000733CC, symSize: 0x54 }
  - { offsetInCU: 0x9EA9, offset: 0x6FECDB, size: 0x8, addend: 0x0, symName: __ZN5PANEL11QueryCursorE4RECT, symObjAddr: 0xC8, symBinAddr: 0x100073420, symSize: 0xB8 }
  - { offsetInCU: 0x53, offset: 0x6FEDC6, size: 0x8, addend: 0x0, symName: _IDS_NULL, symObjAddr: 0x1AF60, symBinAddr: 0x1003297A8, symSize: 0x0 }
  - { offsetInCU: 0x56D7, offset: 0x70444A, size: 0x8, addend: 0x0, symName: __Z9sprSelectNSt3__112basic_stringIcNS_11char_traitsIcEENS_9allocatorIcEEEE, symObjAddr: 0x0, symBinAddr: 0x1000734D8, symSize: 0x374 }
  - { offsetInCU: 0x67D1, offset: 0x705544, size: 0x8, addend: 0x0, symName: __ZL4ReadP10SPR_OBJECTNSt3__112basic_stringIcNS1_11char_traitsIcEENS1_9allocatorIcEEEE, symObjAddr: 0x374, symBinAddr: 0x10007384C, symSize: 0x294 }
  - { offsetInCU: 0x7750, offset: 0x7064C3, size: 0x8, addend: 0x0, symName: __Z6sprGetP10SPR_OBJECT, symObjAddr: 0x608, symBinAddr: 0x100073AE0, symSize: 0x4 }
  - { offsetInCU: 0x77B4, offset: 0x706527, size: 0x8, addend: 0x0, symName: __Z10sprReleaseP10SPR_OBJECT, symObjAddr: 0x60C, symBinAddr: 0x100073AE4, symSize: 0x44 }
  - { offsetInCU: 0x59EF, offset: 0x70C2C5, size: 0x8, addend: 0x0, symName: __Z16extract_hex_keysP11evp_pkey_stR10EthKeyPair, symObjAddr: 0x1E4, symBinAddr: 0x100073B6C, symSize: 0x178 }
  - { offsetInCU: 0x5C2D, offset: 0x70C503, size: 0x8, addend: 0x0, symName: __ZL11extract_hexPcRNSt3__112basic_stringIcNS0_11char_traitsIcEENS0_9allocatorIcEEEEi, symObjAddr: 0x35C, symBinAddr: 0x100073CE4, symSize: 0xC8 }
  - { offsetInCU: 0x62DE, offset: 0x70CBB4, size: 0x8, addend: 0x0, symName: __Z10HexToBytesRKNSt3__112basic_stringIcNS_11char_traitsIcEENS_9allocatorIcEEEE, symObjAddr: 0x424, symBinAddr: 0x100073DAC, symSize: 0x1CC }
  - { offsetInCU: 0x6D93, offset: 0x70D669, size: 0x8, addend: 0x0, symName: __Z6keygenR10EthKeyPair, symObjAddr: 0x5F0, symBinAddr: 0x100073F78, symSize: 0x16C }
  - { offsetInCU: 0x3A, offset: 0x70DDF4, size: 0x8, addend: 0x0, symName: __ZN7CFGVIEW5namesE, symObjAddr: 0x92B10, symBinAddr: 0x1003297C0, symSize: 0x0 }
  - { offsetInCU: 0x11F6E, offset: 0x71FD28, size: 0x8, addend: 0x0, symName: __ZN7CFGVIEWC2Ei, symObjAddr: 0x0, symBinAddr: 0x1000740E4, symSize: 0x30 }
  - { offsetInCU: 0x1210A, offset: 0x71FEC4, size: 0x8, addend: 0x0, symName: __ZN7CFGVIEW10CfgStringsEi, symObjAddr: 0x60, symBinAddr: 0x100074114, symSize: 0x24 }
  - { offsetInCU: 0x121D3, offset: 0x71FF8D, size: 0x8, addend: 0x0, symName: __ZN7CFGVIEWD1Ev, symObjAddr: 0x84, symBinAddr: 0x100074138, symSize: 0x4 }
  - { offsetInCU: 0x121F7, offset: 0x71FFB1, size: 0x8, addend: 0x0, symName: __ZN7CFGVIEWD1Ev, symObjAddr: 0x84, symBinAddr: 0x100074138, symSize: 0x4 }
  - { offsetInCU: 0x12215, offset: 0x71FFCF, size: 0x8, addend: 0x0, symName: __ZN7CFGVIEWD1Ev, symObjAddr: 0x84, symBinAddr: 0x100074138, symSize: 0x4 }
  - { offsetInCU: 0x124BF, offset: 0x720279, size: 0x8, addend: 0x0, symName: __ZN7CFGVIEWD0Ev, symObjAddr: 0x88, symBinAddr: 0x10007413C, symSize: 0x14 }
  - { offsetInCU: 0x6554, offset: 0x727047, size: 0x8, addend: 0x0, symName: __ZN9tcpSocketD2Ev, symObjAddr: 0x0, symBinAddr: 0x1000741A8, symSize: 0x4 }
  - { offsetInCU: 0x657F, offset: 0x727072, size: 0x8, addend: 0x0, symName: __ZN9tcpSocketD1Ev, symObjAddr: 0x4, symBinAddr: 0x1000741AC, symSize: 0x4 }
  - { offsetInCU: 0x65AA, offset: 0x72709D, size: 0x8, addend: 0x0, symName: __ZN9tcpSocketD0Ev, symObjAddr: 0x8, symBinAddr: 0x1000741B0, symSize: 0x4 }
  - { offsetInCU: 0x675B, offset: 0x72724E, size: 0x8, addend: 0x0, symName: __ZN6Socket11getAddrInfoENSt3__112basic_stringIcNS0_11char_traitsIcEENS0_9allocatorIcEEEEi, symObjAddr: 0xC, symBinAddr: 0x1000741B4, symSize: 0x144 }
  - { offsetInCU: 0x6D80, offset: 0x727873, size: 0x8, addend: 0x0, symName: __ZN9tcpSocket7connectENSt3__112basic_stringIcNS0_11char_traitsIcEENS0_9allocatorIcEEEEi, symObjAddr: 0x150, symBinAddr: 0x1000742F8, symSize: 0x180 }
  - { offsetInCU: 0x747C, offset: 0x727F6F, size: 0x8, addend: 0x0, symName: __ZN9tcpSocket5closeEv, symObjAddr: 0x2D0, symBinAddr: 0x100074478, symSize: 0x2C }
  - { offsetInCU: 0x74C9, offset: 0x727FBC, size: 0x8, addend: 0x0, symName: __ZN9tcpSocket4sendEPKcmi, symObjAddr: 0x2FC, symBinAddr: 0x1000744A4, symSize: 0xC4 }
  - { offsetInCU: 0x7596, offset: 0x728089, size: 0x8, addend: 0x0, symName: __ZN9tcpSocket4recvEPcmi, symObjAddr: 0x3C0, symBinAddr: 0x100074568, symSize: 0xB8 }
  - { offsetInCU: 0x3A, offset: 0x72875A, size: 0x8, addend: 0x0, symName: __ZN9GDB_TABLE7c_countE, symObjAddr: 0x193580, symBinAddr: 0x1003299A0, symSize: 0x0 }
  - { offsetInCU: 0xA409, offset: 0x732B29, size: 0x8, addend: 0x0, symName: __ZN9GDB_TABLE7c_tableE, symObjAddr: 0x193588, symBinAddr: 0x1003299A8, symSize: 0x0 }
  - { offsetInCU: 0xFB5F, offset: 0x73827F, size: 0x8, addend: 0x0, symName: __ZN9GDB_TABLEC2Eh, symObjAddr: 0x0, symBinAddr: 0x100074620, symSize: 0x48 }
  - { offsetInCU: 0xFB9F, offset: 0x7382BF, size: 0x8, addend: 0x0, symName: __ZN9GDB_TABLED2Ev, symObjAddr: 0x48, symBinAddr: 0x100074668, symSize: 0x30 }
  - { offsetInCU: 0xFBAA, offset: 0x7382CA, size: 0x8, addend: 0x0, symName: __ZN9GDB_TABLEC2Eh.cold.1, symObjAddr: 0xEC6C, symBinAddr: 0x10024F8F0, symSize: 0x28 }
  - { offsetInCU: 0xFBC2, offset: 0x7382E2, size: 0x8, addend: 0x0, symName: __ZN9GDB_TABLED2Ev, symObjAddr: 0x48, symBinAddr: 0x100074668, symSize: 0x30 }
  - { offsetInCU: 0x10258, offset: 0x738978, size: 0x8, addend: 0x0, symName: __ZN9GDB_TABLE10SendUpdateERKNSt3__112basic_stringIcNS0_11char_traitsIcEENS0_9allocatorIcEEEEtS8_S8_b, symObjAddr: 0x7C, symBinAddr: 0x100074698, symSize: 0x790 }
  - { offsetInCU: 0x11AD4, offset: 0x73A1F4, size: 0x8, addend: 0x0, symName: __ZN9GDB_TABLEC2Eh.cold.1, symObjAddr: 0xEC6C, symBinAddr: 0x10024F8F0, symSize: 0x28 }
  - { offsetInCU: 0x11AE4, offset: 0x73A204, size: 0x8, addend: 0x0, symName: __ZL19gdbTX_ViewListenersR9XPLAY_PKTb, symObjAddr: 0x80C, symBinAddr: 0x100074E28, symSize: 0x284 }
  - { offsetInCU: 0x1230E, offset: 0x73AA2E, size: 0x8, addend: 0x0, symName: __ZL19gdbTX_FreqListenersR9XPLAY_PKTb, symObjAddr: 0xA90, symBinAddr: 0x1000750AC, symSize: 0x14C }
  - { offsetInCU: 0x12528, offset: 0x73AC48, size: 0x8, addend: 0x0, symName: __ZL23gdbTX_IntimateListenersR9XPLAY_PKTb, symObjAddr: 0xBDC, symBinAddr: 0x1000751F8, symSize: 0x158 }
  - { offsetInCU: 0x12AB8, offset: 0x73B1D8, size: 0x8, addend: 0x0, symName: __ZN9GDB_TABLE4PollEv, symObjAddr: 0xDA0, symBinAddr: 0x100075350, symSize: 0x230 }
  - { offsetInCU: 0x53, offset: 0x73C815, size: 0x8, addend: 0x0, symName: _vm_proc_map, symObjAddr: 0x1FFD80, symBinAddr: 0x1003299C8, symSize: 0x0 }
  - { offsetInCU: 0x13523, offset: 0x74FCE5, size: 0x8, addend: 0x0, symName: __ZNSt3__119__allocate_at_leastB8ue170006INS_9allocatorIP7MACHINEEEEENS_19__allocation_resultINS_16allocator_traitsIT_E7pointerEEERS7_m, symObjAddr: 0xF2A8, symBinAddr: 0x10007984C, symSize: 0x34 }
  - { offsetInCU: 0x25115, offset: 0x7618D7, size: 0x8, addend: 0x0, symName: __ZN13GDBT_MACHINES10SendObjectERKNSt3__112basic_stringIcNS0_11char_traitsIcEENS0_9allocatorIcEEEES6_, symObjAddr: 0x28, symBinAddr: 0x100075580, symSize: 0xF4 }
  - { offsetInCU: 0x25C76, offset: 0x762438, size: 0x8, addend: 0x0, symName: __ZN13SYNCPOINT_PKT9from_jsonERKNSt3__112basic_stringIcNS0_11char_traitsIcEENS0_9allocatorIcEEEE, symObjAddr: 0x3C34, symBinAddr: 0x100078F88, symSize: 0x268 }
  - { offsetInCU: 0x25C8C, offset: 0x76244E, size: 0x8, addend: 0x0, symName: __ZN10OBJECT_PKT7to_jsonEv, symObjAddr: 0x11C, symBinAddr: 0x100075674, symSize: 0x90 }
  - { offsetInCU: 0x261C6, offset: 0x762988, size: 0x8, addend: 0x0, symName: __ZN13GDBT_MACHINES8SendSyncERKNSt3__112basic_stringIcNS0_11char_traitsIcEENS0_9allocatorIcEEEES8_S8_S8_, symObjAddr: 0x1AC, symBinAddr: 0x100075704, symSize: 0x214 }
  - { offsetInCU: 0x27239, offset: 0x7639FB, size: 0x8, addend: 0x0, symName: __ZN13SYNCPOINT_PKT7to_jsonEv, symObjAddr: 0x3C0, symBinAddr: 0x100075918, symSize: 0x2D0 }
  - { offsetInCU: 0x28A69, offset: 0x76522B, size: 0x8, addend: 0x0, symName: __ZN13SYNCPOINT_PKTD1Ev, symObjAddr: 0x690, symBinAddr: 0x100075BE8, symSize: 0x6C }
  - { offsetInCU: 0x29281, offset: 0x765A43, size: 0x8, addend: 0x0, symName: __ZN13GDBT_MACHINES13SendAllStatesERKNSt3__112basic_stringIcNS0_11char_traitsIcEENS0_9allocatorIcEEEE, symObjAddr: 0x734, symBinAddr: 0x100075C54, symSize: 0x34C }
  - { offsetInCU: 0x2A577, offset: 0x766D39, size: 0x8, addend: 0x0, symName: __ZN10OBJECT_PKTC2ERKNSt3__112basic_stringIcNS0_11char_traitsIcEENS0_9allocatorIcEEEE, symObjAddr: 0xEE2C, symBinAddr: 0x1000793D0, symSize: 0x48 }
  - { offsetInCU: 0x2A587, offset: 0x766D49, size: 0x8, addend: 0x0, symName: __ZN15SETALLSTATE_PKT7to_jsonEv, symObjAddr: 0xA80, symBinAddr: 0x100075FA0, symSize: 0x2C }
  - { offsetInCU: 0x2A5DC, offset: 0x766D9E, size: 0x8, addend: 0x0, symName: __ZN15SETALLSTATE_PKT7to_jsonEv, symObjAddr: 0xA80, symBinAddr: 0x100075FA0, symSize: 0x2C }
  - { offsetInCU: 0x2A8B2, offset: 0x767074, size: 0x8, addend: 0x0, symName: __ZN13GDBT_MACHINES13ReceiveUpdateERKNSt3__112basic_stringIcNS0_11char_traitsIcEENS0_9allocatorIcEEEES8_R9XPLAY_PKT, symObjAddr: 0xACC, symBinAddr: 0x100075FCC, symSize: 0x6C8 }
  - { offsetInCU: 0x2CCA7, offset: 0x769469, size: 0x8, addend: 0x0, symName: __ZN9TRANS_PKTC2ERKNSt3__112basic_stringIcNS0_11char_traitsIcEENS0_9allocatorIcEEEE, symObjAddr: 0xF018, symBinAddr: 0x1000795BC, symSize: 0x27C }
  - { offsetInCU: 0x2D928, offset: 0x76A0EA, size: 0x8, addend: 0x0, symName: __ZN13GDBT_MACHINES3GetERKNSt3__112basic_stringIcNS0_11char_traitsIcEENS0_9allocatorIcEEEE, symObjAddr: 0x1194, symBinAddr: 0x100076694, symSize: 0x64 }
  - { offsetInCU: 0x2D99D, offset: 0x76A15F, size: 0x8, addend: 0x0, symName: __ZN13SYNCPOINT_PKTC2ERKNSt3__112basic_stringIcNS0_11char_traitsIcEENS0_9allocatorIcEEEE, symObjAddr: 0xED18, symBinAddr: 0x100079338, symSize: 0x98 }
  - { offsetInCU: 0x2DCE0, offset: 0x76A4A2, size: 0x8, addend: 0x0, symName: __ZN10OBJECT_PKTC2ERKNSt3__112basic_stringIcNS0_11char_traitsIcEENS0_9allocatorIcEEEE, symObjAddr: 0xEE2C, symBinAddr: 0x1000793D0, symSize: 0x48 }
  - { offsetInCU: 0x2E0E0, offset: 0x76A8A2, size: 0x8, addend: 0x0, symName: __ZN13GDBT_MACHINES6SignalENSt3__112basic_stringIcNS0_11char_traitsIcEENS0_9allocatorIcEEEES6_, symObjAddr: 0x1248, symBinAddr: 0x1000766F8, symSize: 0x90 }
  - { offsetInCU: 0x2E451, offset: 0x76AC13, size: 0x8, addend: 0x0, symName: __ZN13GDBT_MACHINES4DropENSt3__112basic_stringIcNS0_11char_traitsIcEENS0_9allocatorIcEEEEPS6_, symObjAddr: 0x12D8, symBinAddr: 0x100076788, symSize: 0x3C }
  - { offsetInCU: 0x2E4C8, offset: 0x76AC8A, size: 0x8, addend: 0x0, symName: __ZN13GDBT_MACHINES4InitEv, symObjAddr: 0x1314, symBinAddr: 0x1000767C4, symSize: 0xE4 }
  - { offsetInCU: 0x2EC39, offset: 0x76B3FB, size: 0x8, addend: 0x0, symName: __ZN13GDBT_MACHINES6GatherEi, symObjAddr: 0x13F8, symBinAddr: 0x1000768A8, symSize: 0x160 }
  - { offsetInCU: 0x2F24F, offset: 0x76BA11, size: 0x8, addend: 0x0, symName: __ZNKSt3__16vectorIP7MACHINENS_9allocatorIS2_EEE20__throw_length_errorB8ue170006Ev, symObjAddr: 0xF294, symBinAddr: 0x100079838, symSize: 0x14 }
  - { offsetInCU: 0x2F279, offset: 0x76BA3B, size: 0x8, addend: 0x0, symName: __ZNSt3__119__allocate_at_leastB8ue170006INS_9allocatorIP7MACHINEEEEENS_19__allocation_resultINS_16allocator_traitsIT_E7pointerEEERS7_m, symObjAddr: 0xF2A8, symBinAddr: 0x10007984C, symSize: 0x34 }
  - { offsetInCU: 0x2F2BB, offset: 0x76BA7D, size: 0x8, addend: 0x0, symName: __ZN13GDBT_MACHINES8SetTraceENSt3__112basic_stringIcNS0_11char_traitsIcEENS0_9allocatorIcEEEEi, symObjAddr: 0x1558, symBinAddr: 0x100076A08, symSize: 0x1D4 }
  - { offsetInCU: 0x2FCB0, offset: 0x76C472, size: 0x8, addend: 0x0, symName: __ZN13GDBT_MACHINES9AddAgendaEP7MACHINE, symObjAddr: 0x172C, symBinAddr: 0x100076BDC, symSize: 0x34 }
  - { offsetInCU: 0x2FCED, offset: 0x76C4AF, size: 0x8, addend: 0x0, symName: __ZN13GDBT_MACHINES4TickEi, symObjAddr: 0x1760, symBinAddr: 0x100076C10, symSize: 0xB0 }
  - { offsetInCU: 0x2FCF8, offset: 0x76C4BA, size: 0x8, addend: 0x0, symName: __ZN13GDBT_MACHINES9AddAgendaEP7MACHINE.cold.1, symObjAddr: 0x10DC8, symBinAddr: 0x10024F918, symSize: 0x28 }
  - { offsetInCU: 0x2FD10, offset: 0x76C4D2, size: 0x8, addend: 0x0, symName: __ZN13GDBT_MACHINES4TickEi, symObjAddr: 0x1760, symBinAddr: 0x100076C10, symSize: 0xB0 }
  - { offsetInCU: 0x2FD6A, offset: 0x76C52C, size: 0x8, addend: 0x0, symName: __ZN13GDBT_MACHINES4LinkEv, symObjAddr: 0x1810, symBinAddr: 0x100076CC0, symSize: 0x140 }
  - { offsetInCU: 0x302B8, offset: 0x76CA7A, size: 0x8, addend: 0x0, symName: __ZN13TblAutomatons3GetENSt3__112basic_stringIcNS0_11char_traitsIcEENS0_9allocatorIcEEEE, symObjAddr: 0x1950, symBinAddr: 0x100076E00, symSize: 0xD4 }
  - { offsetInCU: 0x30593, offset: 0x76CD55, size: 0x8, addend: 0x0, symName: __ZN13GDBT_MACHINES4LoadEv, symObjAddr: 0x1A24, symBinAddr: 0x100076ED4, symSize: 0x3BC }
  - { offsetInCU: 0x3128D, offset: 0x76DA4F, size: 0x8, addend: 0x0, symName: __ZN7MACHINEC2Ev, symObjAddr: 0xF36C, symBinAddr: 0x100079880, symSize: 0x140 }
  - { offsetInCU: 0x3200A, offset: 0x76E7CC, size: 0x8, addend: 0x0, symName: __ZN13GDBT_MACHINESC2EP7MACHINEi, symObjAddr: 0x1042C, symBinAddr: 0x100079D70, symSize: 0x5C }
  - { offsetInCU: 0x32078, offset: 0x76E83A, size: 0x8, addend: 0x0, symName: __ZN7MACHINED2Ev, symObjAddr: 0x102AC, symBinAddr: 0x100079CAC, symSize: 0xC4 }
  - { offsetInCU: 0x32E7D, offset: 0x76F63F, size: 0x8, addend: 0x0, symName: __ZN13GDBT_MACHINES4DumpEv, symObjAddr: 0x1DE0, symBinAddr: 0x100077290, symSize: 0x380 }
  - { offsetInCU: 0x34087, offset: 0x770849, size: 0x8, addend: 0x0, symName: __ZN13GDBT_MACHINES13SaveGameStateENSt3__112basic_stringIcNS0_11char_traitsIcEENS0_9allocatorIcEEEE, symObjAddr: 0x2160, symBinAddr: 0x100077610, symSize: 0x638 }
  - { offsetInCU: 0x37705, offset: 0x773EC7, size: 0x8, addend: 0x0, symName: __ZN9REGISTERS9SqlValuesEv, symObjAddr: 0x2798, symBinAddr: 0x100077C48, symSize: 0xCDC }
  - { offsetInCU: 0x3F212, offset: 0x77B9D4, size: 0x8, addend: 0x0, symName: __ZN13GDBT_MACHINES13LoadGameStateENSt3__112basic_stringIcNS0_11char_traitsIcEENS0_9allocatorIcEEEE, symObjAddr: 0x3474, symBinAddr: 0x100078924, symSize: 0x364 }
  - { offsetInCU: 0x40871, offset: 0x77D033, size: 0x8, addend: 0x0, symName: __ZN9REGISTERS12SqlSetValuesEP12sqlite3_stmtii, symObjAddr: 0x37D8, symBinAddr: 0x100078C88, symSize: 0x300 }
  - { offsetInCU: 0x41FAB, offset: 0x77E76D, size: 0x8, addend: 0x0, symName: __ZN13SYNCPOINT_PKT9from_jsonERKNSt3__112basic_stringIcNS0_11char_traitsIcEENS0_9allocatorIcEEEE, symObjAddr: 0x3C34, symBinAddr: 0x100078F88, symSize: 0x268 }
  - { offsetInCU: 0x5D16D, offset: 0x79992F, size: 0x8, addend: 0x0, symName: __ZN15SETALLSTATE_PKT9from_jsonERKNSt3__112basic_stringIcNS0_11char_traitsIcEENS0_9allocatorIcEEEE, symObjAddr: 0xEB14, symBinAddr: 0x1000791F0, symSize: 0x148 }
  - { offsetInCU: 0x5D543, offset: 0x799D05, size: 0x8, addend: 0x0, symName: __ZN13SYNCPOINT_PKTC2ERKNSt3__112basic_stringIcNS0_11char_traitsIcEENS0_9allocatorIcEEEE.cold.1, symObjAddr: 0x114F4, symBinAddr: 0x10024F940, symSize: 0x68 }
  - { offsetInCU: 0x5D62B, offset: 0x799DED, size: 0x8, addend: 0x0, symName: __ZN10OBJECT_PKT9from_jsonERKNSt3__112basic_stringIcNS0_11char_traitsIcEENS0_9allocatorIcEEEE, symObjAddr: 0xEE74, symBinAddr: 0x100079418, symSize: 0x1A4 }
  - { offsetInCU: 0x5E022, offset: 0x79A7E4, size: 0x8, addend: 0x0, symName: __ZN3WIPD1Ev, symObjAddr: 0xF4AC, symBinAddr: 0x1000799C0, symSize: 0x60 }
  - { offsetInCU: 0x5E67F, offset: 0x79AE41, size: 0x8, addend: 0x0, symName: __ZN7MACHINE9from_jsonERKNSt3__112basic_stringIcNS0_11char_traitsIcEENS0_9allocatorIcEEEE, symObjAddr: 0xF50C, symBinAddr: 0x100079A20, symSize: 0x4 }
  - { offsetInCU: 0x5E716, offset: 0x79AED8, size: 0x8, addend: 0x0, symName: __ZN7MACHINE7to_jsonEv, symObjAddr: 0xF510, symBinAddr: 0x100079A24, symSize: 0x288 }
  - { offsetInCU: 0x63D1E, offset: 0x7A04E0, size: 0x8, addend: 0x0, symName: __ZN7B_TABLEI7MACHINEtttEC2EPS0_ii, symObjAddr: 0x10488, symBinAddr: 0x100079DCC, symSize: 0x64 }
  - { offsetInCU: 0x63D9C, offset: 0x7A055E, size: 0x8, addend: 0x0, symName: __ZN7B_TABLEI7MACHINEtttE8ValidateEv, symObjAddr: 0x104EC, symBinAddr: 0x100079E30, symSize: 0x98 }
  - { offsetInCU: 0x63E79, offset: 0x7A063B, size: 0x8, addend: 0x0, symName: __ZN7B_TABLEI7MACHINEtttE8ValidateEv.cold.1, symObjAddr: 0x1155C, symBinAddr: 0x10024F9A8, symSize: 0x28 }
  - { offsetInCU: 0x3F, offset: 0x7A1CA5, size: 0x8, addend: 0x0, symName: __ZL9constants, symObjAddr: 0x490, symBinAddr: 0x10028E3F0, symSize: 0x0 }
  - { offsetInCU: 0x8D, offset: 0x7A1CF3, size: 0x8, addend: 0x0, symName: _keccak_init, symObjAddr: 0x18, symBinAddr: 0x10007A0B8, symSize: 0x3C }
  - { offsetInCU: 0xB2, offset: 0x7A1D18, size: 0x8, addend: 0x0, symName: _keccak_update, symObjAddr: 0x54, symBinAddr: 0x10007A0F4, symSize: 0x134 }
  - { offsetInCU: 0x170, offset: 0x7A1DD6, size: 0x8, addend: 0x0, symName: __ZL18sha3_process_blockPyPKy, symObjAddr: 0x188, symBinAddr: 0x10007A228, symSize: 0x26C }
  - { offsetInCU: 0x571, offset: 0x7A21D7, size: 0x8, addend: 0x0, symName: _keccak_final, symObjAddr: 0x3F4, symBinAddr: 0x10007A494, symSize: 0x74 }
  - { offsetInCU: 0x4B, offset: 0x7A229E, size: 0x8, addend: 0x0, symName: _ast_types, symObjAddr: 0x636E0, symBinAddr: 0x1003299E0, symSize: 0x0 }
  - { offsetInCU: 0x53, offset: 0x7ABD87, size: 0x8, addend: 0x0, symName: _ONE_GUID, symObjAddr: 0x70460, symBinAddr: 0x100329BA8, symSize: 0x0 }
  - { offsetInCU: 0x65C4, offset: 0x7B22F8, size: 0x8, addend: 0x0, symName: _EmptyString, symObjAddr: 0x70478, symBinAddr: 0x100329BC0, symSize: 0x0 }
  - { offsetInCU: 0x65D9, offset: 0x7B230D, size: 0x8, addend: 0x0, symName: _netman, symObjAddr: 0x70490, symBinAddr: 0x100329BD8, symSize: 0x0 }
  - { offsetInCU: 0x6ABF, offset: 0x7B27F3, size: 0x8, addend: 0x0, symName: __ZN10NetManager18user_lost_interestE, symObjAddr: 0x704D8, symBinAddr: 0x100329C20, symSize: 0x0 }
  - { offsetInCU: 0x6AD3, offset: 0x7B2807, size: 0x8, addend: 0x0, symName: __ZN10NetManager17session_availableE, symObjAddr: 0x704D9, symBinAddr: 0x100329C21, symSize: 0x0 }
  - { offsetInCU: 0x6AE7, offset: 0x7B281B, size: 0x8, addend: 0x0, symName: __ZN10NetManager4lpDPE, symObjAddr: 0x704E0, symBinAddr: 0x100329C28, symSize: 0x0 }
  - { offsetInCU: 0x6AFB, offset: 0x7B282F, size: 0x8, addend: 0x0, symName: __ZN10NetManager7tbl_sesE, symObjAddr: 0x704E8, symBinAddr: 0x100329C30, symSize: 0x0 }
  - { offsetInCU: 0x6B0F, offset: 0x7B2843, size: 0x8, addend: 0x0, symName: __ZN10NetManager13tbl_ses_countE, symObjAddr: 0x708A8, symBinAddr: 0x100329FF0, symSize: 0x0 }
  - { offsetInCU: 0x6B23, offset: 0x7B2857, size: 0x8, addend: 0x0, symName: __ZN10NetManager16tbl_ses_selectedE, symObjAddr: 0x1554, symBinAddr: 0x10031C98C, symSize: 0x0 }
  - { offsetInCU: 0x6B3D, offset: 0x7B2871, size: 0x8, addend: 0x0, symName: __ZL6tbl_sp, symObjAddr: 0x708B0, symBinAddr: 0x100458788, symSize: 0x0 }
  - { offsetInCU: 0x6B98, offset: 0x7B28CC, size: 0x8, addend: 0x0, symName: __ZL15tbl_sp_selected, symObjAddr: 0x1558, symBinAddr: 0x10031C990, symSize: 0x0 }
  - { offsetInCU: 0x6BB2, offset: 0x7B28E6, size: 0x8, addend: 0x0, symName: __ZL12tbl_sp_count, symObjAddr: 0x70A30, symBinAddr: 0x100458908, symSize: 0x0 }
  - { offsetInCU: 0xA6C7, offset: 0x7B63FB, size: 0x8, addend: 0x0, symName: __ZN10NetManagerD1Ev, symObjAddr: 0x0, symBinAddr: 0x10007A748, symSize: 0x4 }
  - { offsetInCU: 0xA6F4, offset: 0x7B6428, size: 0x8, addend: 0x0, symName: __ZN10NetManagerD1Ev, symObjAddr: 0x0, symBinAddr: 0x10007A748, symSize: 0x4 }
  - { offsetInCU: 0xA707, offset: 0x7B643B, size: 0x8, addend: 0x0, symName: __ZN10NetManagerD2Ev, symObjAddr: 0x4, symBinAddr: 0x10007A74C, symSize: 0x54 }
  - { offsetInCU: 0xAB42, offset: 0x7B6876, size: 0x8, addend: 0x0, symName: __ZN10NetManager5errorElb, symObjAddr: 0x74, symBinAddr: 0x10007A7A0, symSize: 0xC }
  - { offsetInCU: 0xACC9, offset: 0x7B69FD, size: 0x8, addend: 0x0, symName: __ZN10NetManager11getOpenPlayERKNSt3__112basic_stringIcNS0_11char_traitsIcEENS0_9allocatorIcEEEE, symObjAddr: 0x80, symBinAddr: 0x10007A7AC, symSize: 0x24C }
  - { offsetInCU: 0xB86D, offset: 0x7B75A1, size: 0x8, addend: 0x0, symName: __ZN10NetManager11setOpenPlayERKNSt3__112basic_stringIcNS0_11char_traitsIcEENS0_9allocatorIcEEEES8_, symObjAddr: 0x340, symBinAddr: 0x10007A9F8, symSize: 0xE4 }
  - { offsetInCU: 0xBCA6, offset: 0x7B79DA, size: 0x8, addend: 0x0, symName: __Z11getOpenPlayRKNSt3__112basic_stringIcNS_11char_traitsIcEENS_9allocatorIcEEEE, symObjAddr: 0x424, symBinAddr: 0x10007AADC, symSize: 0x4 }
  - { offsetInCU: 0xBCD6, offset: 0x7B7A0A, size: 0x8, addend: 0x0, symName: __Z11getOpenPlayRKNSt3__112basic_stringIcNS_11char_traitsIcEENS_9allocatorIcEEEE, symObjAddr: 0x424, symBinAddr: 0x10007AADC, symSize: 0x4 }
  - { offsetInCU: 0xBCF0, offset: 0x7B7A24, size: 0x8, addend: 0x0, symName: __Z11setOpenPlayRKNSt3__112basic_stringIcNS_11char_traitsIcEENS_9allocatorIcEEEES7_, symObjAddr: 0x428, symBinAddr: 0x10007AAE0, symSize: 0x18 }
  - { offsetInCU: 0xBD4B, offset: 0x7B7A7F, size: 0x8, addend: 0x0, symName: __ZN10NetManager13SystemMessageER9XPLAY_PKT, symObjAddr: 0x474, symBinAddr: 0x10007AAF8, symSize: 0x60 }
  - { offsetInCU: 0xBF41, offset: 0x7B7C75, size: 0x8, addend: 0x0, symName: __ZN10NetManager5CloseEb, symObjAddr: 0x4D4, symBinAddr: 0x10007AB58, symSize: 0x8C }
  - { offsetInCU: 0xC076, offset: 0x7B7DAA, size: 0x8, addend: 0x0, symName: __ZN10NetManager7ReceiveERNSt3__112basic_stringIcNS0_11char_traitsIcEENS0_9allocatorIcEEEES7_R9XPLAY_PKT, symObjAddr: 0x560, symBinAddr: 0x10007ABE4, symSize: 0x288 }
  - { offsetInCU: 0xC6B3, offset: 0x7B83E7, size: 0x8, addend: 0x0, symName: __ZN10NetManager4SendER9XPLAY_PKTRKNSt3__112basic_stringIcNS2_11char_traitsIcEENS2_9allocatorIcEEEESA_b, symObjAddr: 0x7E8, symBinAddr: 0x10007AE6C, symSize: 0x210 }
  - { offsetInCU: 0xCC3E, offset: 0x7B8972, size: 0x8, addend: 0x0, symName: __ZN10NetManager12CreatePlayerERKNSt3__112basic_stringIcNS0_11char_traitsIcEENS0_9allocatorIcEEEES8_, symObjAddr: 0x9F8, symBinAddr: 0x10007B07C, symSize: 0x90 }
  - { offsetInCU: 0xCE70, offset: 0x7B8BA4, size: 0x8, addend: 0x0, symName: __ZN10NetManager13SetPlayerNameENSt3__112basic_stringIcNS0_11char_traitsIcEENS0_9allocatorIcEEEERKS6_S8_, symObjAddr: 0xAF4, symBinAddr: 0x10007B10C, symSize: 0x24 }
  - { offsetInCU: 0xCED4, offset: 0x7B8C08, size: 0x8, addend: 0x0, symName: __ZN10NetManager12EnumSessionsEv, symObjAddr: 0xB18, symBinAddr: 0x10007B130, symSize: 0x8C }
  - { offsetInCU: 0xCF31, offset: 0x7B8C65, size: 0x8, addend: 0x0, symName: __ZL20EnumSessionsCallbackP7SessionPvPjj, symObjAddr: 0xBA4, symBinAddr: 0x10007B1BC, symSize: 0x70 }
  - { offsetInCU: 0xCF89, offset: 0x7B8CBD, size: 0x8, addend: 0x0, symName: __ZN10NetManager14GetSessionDescEi, symObjAddr: 0xC14, symBinAddr: 0x10007B22C, symSize: 0x38 }
  - { offsetInCU: 0xCFC4, offset: 0x7B8CF8, size: 0x8, addend: 0x0, symName: __ZN10NetManager4OpenEiRKNSt3__112basic_stringIcNS0_11char_traitsIcEENS0_9allocatorIcEEEEj, symObjAddr: 0xC4C, symBinAddr: 0x10007B264, symSize: 0x114 }
  - { offsetInCU: 0xD36E, offset: 0x7B90A2, size: 0x8, addend: 0x0, symName: __ZL17AddPlayerCallbackRKNSt3__112basic_stringIcNS_11char_traitsIcEENS_9allocatorIcEEEES7_b, symObjAddr: 0xD60, symBinAddr: 0x10007B378, symSize: 0x9C }
  - { offsetInCU: 0xD4C1, offset: 0x7B91F5, size: 0x8, addend: 0x0, symName: __ZN10NetManager6CreateEi, symObjAddr: 0xE10, symBinAddr: 0x10007B414, symSize: 0xBC }
  - { offsetInCU: 0xD865, offset: 0x7B9599, size: 0x8, addend: 0x0, symName: __ZN10NetManager9EnumerateEv, symObjAddr: 0xECC, symBinAddr: 0x10007B4D0, symSize: 0x48 }
  - { offsetInCU: 0xD8EF, offset: 0x7B9623, size: 0x8, addend: 0x0, symName: __ZL21EnumProvidersCallbackNSt3__112basic_stringIcNS_11char_traitsIcEENS_9allocatorIcEEEES5_, symObjAddr: 0xF14, symBinAddr: 0x10007B518, symSize: 0xA4 }
  - { offsetInCU: 0xDABB, offset: 0x7B97EF, size: 0x8, addend: 0x0, symName: __ZN10NetManager15GetProviderDescEi, symObjAddr: 0xFB8, symBinAddr: 0x10007B5BC, symSize: 0x40 }
  - { offsetInCU: 0x577E, offset: 0x7BF260, size: 0x8, addend: 0x0, symName: __ZN9FBLT_DSCR8ZeroInitEv, symObjAddr: 0x20, symBinAddr: 0x10007B780, symSize: 0x20 }
  - { offsetInCU: 0x57BB, offset: 0x7BF29D, size: 0x8, addend: 0x0, symName: __ZN9FBLT_DSCRC1Ev, symObjAddr: 0x40, symBinAddr: 0x10007B7A0, symSize: 0x20 }
  - { offsetInCU: 0x57E9, offset: 0x7BF2CB, size: 0x8, addend: 0x0, symName: __ZN9FBLT_DSCRC1Ev, symObjAddr: 0x40, symBinAddr: 0x10007B7A0, symSize: 0x20 }
  - { offsetInCU: 0x5806, offset: 0x7BF2E8, size: 0x8, addend: 0x0, symName: __ZN9FBLT_DSCRC1Ev, symObjAddr: 0x40, symBinAddr: 0x10007B7A0, symSize: 0x20 }
  - { offsetInCU: 0x583C, offset: 0x7BF31E, size: 0x8, addend: 0x0, symName: __ZN9FBLT_DSCRD2Ev, symObjAddr: 0x60, symBinAddr: 0x10007B7C0, symSize: 0x4C }
  - { offsetInCU: 0x5895, offset: 0x7BF377, size: 0x8, addend: 0x0, symName: __ZN5MASKSD2Ev, symObjAddr: 0x3F8, symBinAddr: 0x10007BB4C, symSize: 0x94 }
  - { offsetInCU: 0x5ADA, offset: 0x7BF5BC, size: 0x8, addend: 0x0, symName: __ZN9FBLT_DSCRD1Ev, symObjAddr: 0xB8, symBinAddr: 0x10007B80C, symSize: 0x4 }
  - { offsetInCU: 0x5B08, offset: 0x7BF5EA, size: 0x8, addend: 0x0, symName: __ZN9FBLT_DSCRD1Ev, symObjAddr: 0xB8, symBinAddr: 0x10007B80C, symSize: 0x4 }
  - { offsetInCU: 0x5B89, offset: 0x7BF66B, size: 0x8, addend: 0x0, symName: __ZN9FBLT_DSCR10SpriteInitEP3ONE, symObjAddr: 0xBC, symBinAddr: 0x10007B810, symSize: 0x54 }
  - { offsetInCU: 0x5BC1, offset: 0x7BF6A3, size: 0x8, addend: 0x0, symName: __ZN9FBLT_DSCR10SpriteInitEP3ONE, symObjAddr: 0xBC, symBinAddr: 0x10007B810, symSize: 0x54 }
  - { offsetInCU: 0x5CCD, offset: 0x7BF7AF, size: 0x8, addend: 0x0, symName: __ZN9FBLT_DSCR8MaskInitEP3ONE, symObjAddr: 0x110, symBinAddr: 0x10007B864, symSize: 0x98 }
  - { offsetInCU: 0x5EBE, offset: 0x7BF9A0, size: 0x8, addend: 0x0, symName: __ZN9FBLT_DSCR6XPrintEP3ONEP6SPIRITNSt3__112basic_stringIcNS4_11char_traitsIcEENS4_9allocatorIcEEEEi, symObjAddr: 0x1A8, symBinAddr: 0x10007B8FC, symSize: 0x144 }
  - { offsetInCU: 0x6159, offset: 0x7BFC3B, size: 0x8, addend: 0x0, symName: __ZN9FBLT_DSCR15GetBoundingRectEP4RECTi, symObjAddr: 0x2EC, symBinAddr: 0x10007BA40, symSize: 0x2C }
  - { offsetInCU: 0x61D3, offset: 0x7BFCB5, size: 0x8, addend: 0x0, symName: __ZN9FBLT_DSCR18SetFramesPerSecondEi, symObjAddr: 0x318, symBinAddr: 0x10007BA6C, symSize: 0x10 }
  - { offsetInCU: 0x6208, offset: 0x7BFCEA, size: 0x8, addend: 0x0, symName: __ZN9FBLT_DSCR9NextFrameEP3ONEib, symObjAddr: 0x328, symBinAddr: 0x10007BA7C, symSize: 0x50 }
  - { offsetInCU: 0x627B, offset: 0x7BFD5D, size: 0x8, addend: 0x0, symName: __ZN9FBLT_DSCR9PrevFrameEP3ONEib, symObjAddr: 0x378, symBinAddr: 0x10007BACC, symSize: 0x48 }
  - { offsetInCU: 0x62F1, offset: 0x7BFDD3, size: 0x8, addend: 0x0, symName: __ZN9FBLT_DSCR7BonesOnEii, symObjAddr: 0x3C0, symBinAddr: 0x10007BB14, symSize: 0x1C }
  - { offsetInCU: 0x6334, offset: 0x7BFE16, size: 0x8, addend: 0x0, symName: __ZN9FBLT_DSCR8BonesOffEii, symObjAddr: 0x3DC, symBinAddr: 0x10007BB30, symSize: 0x1C }
  - { offsetInCU: 0x47, offset: 0x7BFFFB, size: 0x8, addend: 0x0, symName: _strAutoOps, symObjAddr: 0x198, symBinAddr: 0x10031C998, symSize: 0x0 }
  - { offsetInCU: 0x26, offset: 0x7C2A3C, size: 0x8, addend: 0x0, symName: __ZN6Linker4LinkEv, symObjAddr: 0x0, symBinAddr: 0x10007BBE0, symSize: 0x90 }
  - { offsetInCU: 0x9C84, offset: 0x7CC69A, size: 0x8, addend: 0x0, symName: __ZN6Linker4LinkEv, symObjAddr: 0x0, symBinAddr: 0x10007BBE0, symSize: 0x90 }
  - { offsetInCU: 0x40, offset: 0x7CC78A, size: 0x8, addend: 0x0, symName: _tbl_objects, symObjAddr: 0x1FD70, symBinAddr: 0x100329FF8, symSize: 0x0 }
  - { offsetInCU: 0x30F3, offset: 0x7CF83D, size: 0x8, addend: 0x0, symName: _count_objects, symObjAddr: 0x1FD78, symBinAddr: 0x10032A000, symSize: 0x0 }
  - { offsetInCU: 0x3108, offset: 0x7CF852, size: 0x8, addend: 0x0, symName: _nullobject, symObjAddr: 0x1FD80, symBinAddr: 0x10032A008, symSize: 0x0 }
  - { offsetInCU: 0x550D, offset: 0x7D1C57, size: 0x8, addend: 0x0, symName: __ZN11TBL_OBJECTS4LoadEv, symObjAddr: 0x0, symBinAddr: 0x10007BC70, symSize: 0x474 }
  - { offsetInCU: 0x73F7, offset: 0x7D3B41, size: 0x8, addend: 0x0, symName: __ZN11TBL_OBJECTS4DumpEv, symObjAddr: 0x474, symBinAddr: 0x10007C0E4, symSize: 0x310 }
  - { offsetInCU: 0x85D2, offset: 0x7D4D1C, size: 0x8, addend: 0x0, symName: __ZN11TBL_OBJECTS3GetENSt3__112basic_stringIcNS0_11char_traitsIcEENS0_9allocatorIcEEEE, symObjAddr: 0x784, symBinAddr: 0x10007C3F4, symSize: 0xF0 }
  - { offsetInCU: 0x88DF, offset: 0x7D5029, size: 0x8, addend: 0x0, symName: __Z14objdefGetClassRKNSt3__112basic_stringIcNS_11char_traitsIcEENS_9allocatorIcEEEE, symObjAddr: 0x9E0, symBinAddr: 0x10007C4E4, symSize: 0xF0 }
  - { offsetInCU: 0x8D0E, offset: 0x7D5458, size: 0x8, addend: 0x0, symName: __Z19objdefGetLookIconIdRKNSt3__112basic_stringIcNS_11char_traitsIcEENS_9allocatorIcEEEE, symObjAddr: 0xAD0, symBinAddr: 0x10007C5D4, symSize: 0xE4 }
  - { offsetInCU: 0x34, offset: 0x7D5B0C, size: 0x8, addend: 0x0, symName: _gdbt_machines, symObjAddr: 0x66540, symBinAddr: 0x10032A020, symSize: 0x0 }
  - { offsetInCU: 0xDD35, offset: 0x7EFD4A, size: 0x8, addend: 0x0, symName: __ZN7COMPASS6ActionEii, symObjAddr: 0x7C, symBinAddr: 0x10007C748, symSize: 0x74 }
  - { offsetInCU: 0x117C8, offset: 0x7F37DD, size: 0x8, addend: 0x0, symName: __ZN7COMPASSC1Ei, symObjAddr: 0x2C, symBinAddr: 0x10007C6FC, symSize: 0x2C }
  - { offsetInCU: 0x11846, offset: 0x7F385B, size: 0x8, addend: 0x0, symName: __ZN7COMPASSD1Ev, symObjAddr: 0x5C, symBinAddr: 0x10007C728, symSize: 0x4 }
  - { offsetInCU: 0x1186A, offset: 0x7F387F, size: 0x8, addend: 0x0, symName: __ZN7COMPASSD1Ev, symObjAddr: 0x5C, symBinAddr: 0x10007C728, symSize: 0x4 }
  - { offsetInCU: 0x118A1, offset: 0x7F38B6, size: 0x8, addend: 0x0, symName: __ZN7COMPASSD0Ev, symObjAddr: 0x60, symBinAddr: 0x10007C72C, symSize: 0x14 }
  - { offsetInCU: 0x11907, offset: 0x7F391C, size: 0x8, addend: 0x0, symName: __ZN7COMPASS11QueryCursorE4RECT, symObjAddr: 0x74, symBinAddr: 0x10007C740, symSize: 0x8 }
  - { offsetInCU: 0x26, offset: 0x7F39FB, size: 0x8, addend: 0x0, symName: __Z12rgba8_mirrorP8tagRGBA8ii, symObjAddr: 0x0, symBinAddr: 0x10007C7BC, symSize: 0xB4 }
  - { offsetInCU: 0x4D, offset: 0x7F3A22, size: 0x8, addend: 0x0, symName: __Z12rgba8_mirrorP8tagRGBA8ii, symObjAddr: 0x0, symBinAddr: 0x10007C7BC, symSize: 0xB4 }
  - { offsetInCU: 0x26, offset: 0x7F3B2E, size: 0x8, addend: 0x0, symName: __ZN8PARTICLE9BrickWallEv, symObjAddr: 0x0, symBinAddr: 0x10007C870, symSize: 0x8 }
  - { offsetInCU: 0x41, offset: 0x7F3B49, size: 0x8, addend: 0x0, symName: __ZN8PARTICLE9BrickWallEv, symObjAddr: 0x0, symBinAddr: 0x10007C870, symSize: 0x8 }
  - { offsetInCU: 0x68, offset: 0x7F3B70, size: 0x8, addend: 0x0, symName: __ZN8PARTICLE10accelerateEii, symObjAddr: 0x8, symBinAddr: 0x10007C878, symSize: 0x1BC }
...
